
TouchScreen.elf      檔案格式 elf32-littlearm


.text 區段的反組譯：

87800000 <_start>:
87800000:	e59ff120 	ldr	pc, [pc, #288]	@ 87800128 <FIQ_Handler+0x8>
87800004:	e59ff120 	ldr	pc, [pc, #288]	@ 8780012c <FIQ_Handler+0xc>
87800008:	e59ff120 	ldr	pc, [pc, #288]	@ 87800130 <FIQ_Handler+0x10>
8780000c:	e59ff120 	ldr	pc, [pc, #288]	@ 87800134 <FIQ_Handler+0x14>
87800010:	e59ff120 	ldr	pc, [pc, #288]	@ 87800138 <FIQ_Handler+0x18>
87800014:	e59ff120 	ldr	pc, [pc, #288]	@ 8780013c <FIQ_Handler+0x1c>
87800018:	e59ff120 	ldr	pc, [pc, #288]	@ 87800140 <FIQ_Handler+0x20>
8780001c:	e59ff120 	ldr	pc, [pc, #288]	@ 87800144 <FIQ_Handler+0x24>

87800020 <Reset_Handler>:
87800020:	f10c0080 	cpsid	i
87800024:	ee110f10 	mrc	15, 0, r0, cr1, cr0, {0}
87800028:	e3c00a01 	bic	r0, r0, #4096	@ 0x1000
8780002c:	e3c00b02 	bic	r0, r0, #2048	@ 0x800
87800030:	e3c00004 	bic	r0, r0, #4
87800034:	e3c00002 	bic	r0, r0, #2
87800038:	e3c00001 	bic	r0, r0, #1
8780003c:	ee010f10 	mcr	15, 0, r0, cr1, cr0, {0}

87800040 <_bss_start>:
87800040:	878092c8 	strhi	r9, [r0, r8, asr #5]

87800044 <_bss_end>:
87800044:	8780a044 	strhi	sl, [r0, r4, asr #32]
87800048:	e51f0010 	ldr	r0, [pc, #-16]	@ 87800040 <_bss_start>
8780004c:	e51f1010 	ldr	r1, [pc, #-16]	@ 87800044 <_bss_end>
87800050:	e3a02000 	mov	r2, #0

87800054 <bss_loop>:
87800054:	e8a00004 	stmia	r0!, {r2}
87800058:	e1500001 	cmp	r0, r1
8780005c:	dafffffc 	ble	87800054 <bss_loop>
87800060:	e10f0000 	mrs	r0, CPSR
87800064:	e3c0001f 	bic	r0, r0, #31
87800068:	e3800012 	orr	r0, r0, #18
8780006c:	e129f000 	msr	CPSR_fc, r0
87800070:	e59fd0d0 	ldr	sp, [pc, #208]	@ 87800148 <FIQ_Handler+0x28>
87800074:	e10f0000 	mrs	r0, CPSR
87800078:	e3c0001f 	bic	r0, r0, #31
8780007c:	e380001f 	orr	r0, r0, #31
87800080:	e129f000 	msr	CPSR_fc, r0
87800084:	e59fd0c0 	ldr	sp, [pc, #192]	@ 8780014c <FIQ_Handler+0x2c>
87800088:	e10f0000 	mrs	r0, CPSR
8780008c:	e3c0001f 	bic	r0, r0, #31
87800090:	e3800013 	orr	r0, r0, #19
87800094:	e129f000 	msr	CPSR_fc, r0
87800098:	e59fd0b0 	ldr	sp, [pc, #176]	@ 87800150 <FIQ_Handler+0x30>
8780009c:	f1080080 	cpsie	i
878000a0:	ea0011fe 	b	878048a0 <__main_from_arm>

878000a4 <Undefined_Handler>:
878000a4:	e59f0080 	ldr	r0, [pc, #128]	@ 8780012c <FIQ_Handler+0xc>
878000a8:	e12fff10 	bx	r0

878000ac <SVC_Handler>:
878000ac:	e59f007c 	ldr	r0, [pc, #124]	@ 87800130 <FIQ_Handler+0x10>
878000b0:	e12fff10 	bx	r0

878000b4 <PreAbort_Handler>:
878000b4:	e59f0078 	ldr	r0, [pc, #120]	@ 87800134 <FIQ_Handler+0x14>
878000b8:	e12fff10 	bx	r0

878000bc <DataAbort_Handler>:
878000bc:	e59f0074 	ldr	r0, [pc, #116]	@ 87800138 <FIQ_Handler+0x18>
878000c0:	e12fff10 	bx	r0

878000c4 <NotUsed_Handler>:
878000c4:	e59f0070 	ldr	r0, [pc, #112]	@ 8780013c <FIQ_Handler+0x1c>
878000c8:	e12fff10 	bx	r0

878000cc <IRQ_Handler>:
878000cc:	e52de004 	push	{lr}		@ (str lr, [sp, #-4]!)
878000d0:	e92d100f 	push	{r0, r1, r2, r3, ip}
878000d4:	e14f0000 	mrs	r0, SPSR
878000d8:	e52d0004 	push	{r0}		@ (str r0, [sp, #-4]!)
878000dc:	ee9f1f10 	mrc	15, 4, r1, cr15, cr0, {0}
878000e0:	e2811a02 	add	r1, r1, #8192	@ 0x2000
878000e4:	e591000c 	ldr	r0, [r1, #12]
878000e8:	e92d0003 	push	{r0, r1}
878000ec:	f1020013 	cps	#19
878000f0:	e52de004 	push	{lr}		@ (str lr, [sp, #-4]!)
878000f4:	e59f2058 	ldr	r2, [pc, #88]	@ 87800154 <FIQ_Handler+0x34>
878000f8:	e12fff32 	blx	r2
878000fc:	e49de004 	pop	{lr}		@ (ldr lr, [sp], #4)
87800100:	f1020012 	cps	#18
87800104:	e8bd0003 	pop	{r0, r1}
87800108:	e5810010 	str	r0, [r1, #16]
8780010c:	e49d0004 	pop	{r0}		@ (ldr r0, [sp], #4)
87800110:	e16ff000 	msr	SPSR_fsxc, r0
87800114:	e8bd100f 	pop	{r0, r1, r2, r3, ip}
87800118:	e49de004 	pop	{lr}		@ (ldr lr, [sp], #4)
8780011c:	e25ef004 	subs	pc, lr, #4

87800120 <FIQ_Handler>:
87800120:	e59f001c 	ldr	r0, [pc, #28]	@ 87800144 <FIQ_Handler+0x24>
87800124:	e12fff10 	bx	r0
87800128:	87800020 	strhi	r0, [r0, r0, lsr #32]
8780012c:	878000a4 	strhi	r0, [r0, r4, lsr #1]
87800130:	878000ac 	strhi	r0, [r0, ip, lsr #1]
87800134:	878000b4 			@ <UNDEFINED> instruction: 0x878000b4
87800138:	878000bc 			@ <UNDEFINED> instruction: 0x878000bc
8780013c:	878000c4 	strhi	r0, [r0, r4, asr #1]
87800140:	878000cc 	strhi	r0, [r0, ip, asr #1]
87800144:	87800120 	strhi	r0, [r0, r0, lsr #2]
87800148:	80600000 	rsbhi	r0, r0, r0
8780014c:	80400000 	subhi	r0, r0, r0
87800150:	80200000 	eorhi	r0, r0, r0
87800154:	87800785 	strhi	r0, [r0, r5, lsl #15]
87800158:	00001e41 	andeq	r1, r0, r1, asr #28
8780015c:	61656100 	cmnvs	r5, r0, lsl #2
87800160:	01006962 	tsteq	r0, r2, ror #18
87800164:	00000014 	andeq	r0, r0, r4, lsl r0
87800168:	412d3705 			@ <UNDEFINED> instruction: 0x412d3705
8780016c:	070a0600 	streq	r0, [sl, -r0, lsl #12]
87800170:	09010841 	stmdbeq	r1, {r0, r6, fp}
87800174:	00040a02 	andeq	r0, r4, r2, lsl #20
	...

87800180 <__umodsi3>:
87800180:	e2512001 	subs	r2, r1, #1
87800184:	3a000062 	bcc	87800314 <Ldiv0>
87800188:	11500001 	cmpne	r0, r1
8780018c:	03a00000 	moveq	r0, #0
87800190:	81110002 	tsthi	r1, r2
87800194:	00000002 	andeq	r0, r0, r2
87800198:	91a0f00e 	movls	pc, lr
8780019c:	e3a02000 	mov	r2, #0
878001a0:	e3510201 	cmp	r1, #268435456	@ 0x10000000
878001a4:	31510000 	cmpcc	r1, r0
878001a8:	31a01201 	lslcc	r1, r1, #4
878001ac:	32822004 	addcc	r2, r2, #4
878001b0:	3afffffa 	bcc	878001a0 <__umodsi3+0x20>
878001b4:	e3510102 	cmp	r1, #-2147483648	@ 0x80000000
878001b8:	31510000 	cmpcc	r1, r0
878001bc:	31a01081 	lslcc	r1, r1, #1
878001c0:	32822001 	addcc	r2, r2, #1
878001c4:	3afffffa 	bcc	878001b4 <__umodsi3+0x34>
878001c8:	e2522003 	subs	r2, r2, #3
878001cc:	ba00000e 	blt	8780020c <__umodsi3+0x8c>
878001d0:	e1500001 	cmp	r0, r1
878001d4:	20400001 	subcs	r0, r0, r1
878001d8:	e15000a1 	cmp	r0, r1, lsr #1
878001dc:	204000a1 	subcs	r0, r0, r1, lsr #1
878001e0:	e1500121 	cmp	r0, r1, lsr #2
878001e4:	20400121 	subcs	r0, r0, r1, lsr #2
878001e8:	e15001a1 	cmp	r0, r1, lsr #3
878001ec:	204001a1 	subcs	r0, r0, r1, lsr #3
878001f0:	e3500001 	cmp	r0, #1
878001f4:	e1a01221 	lsr	r1, r1, #4
878001f8:	a2522004 	subsge	r2, r2, #4
878001fc:	aafffff3 	bge	878001d0 <__umodsi3+0x50>
87800200:	e3120003 	tst	r2, #3
87800204:	13300000 	teqne	r0, #0
87800208:	0a00000a 	beq	87800238 <__umodsi3+0xb8>
8780020c:	e3720002 	cmn	r2, #2
87800210:	ba000006 	blt	87800230 <__umodsi3+0xb0>
87800214:	0a000002 	beq	87800224 <__umodsi3+0xa4>
87800218:	e1500001 	cmp	r0, r1
8780021c:	20400001 	subcs	r0, r0, r1
87800220:	e1a010a1 	lsr	r1, r1, #1
87800224:	e1500001 	cmp	r0, r1
87800228:	20400001 	subcs	r0, r0, r1
8780022c:	e1a010a1 	lsr	r1, r1, #1
87800230:	e1500001 	cmp	r0, r1
87800234:	20400001 	subcs	r0, r0, r1
87800238:	e1a0f00e 	mov	pc, lr
8780023c:	90909090 	umullsls	r9, r0, r0, r0

87800240 <__modsi3>:
87800240:	e3510000 	cmp	r1, #0
87800244:	0a000032 	beq	87800314 <Ldiv0>
87800248:	42611000 	rsbmi	r1, r1, #0
8780024c:	e1b0c000 	movs	ip, r0
87800250:	42600000 	rsbmi	r0, r0, #0
87800254:	e2512001 	subs	r2, r1, #1
87800258:	11500001 	cmpne	r0, r1
8780025c:	03a00000 	moveq	r0, #0
87800260:	81110002 	tsthi	r1, r2
87800264:	00000002 	andeq	r0, r0, r2
87800268:	9a000026 	bls	87800308 <__modsi3+0xc8>
8780026c:	e3a02000 	mov	r2, #0
87800270:	e3510201 	cmp	r1, #268435456	@ 0x10000000
87800274:	31510000 	cmpcc	r1, r0
87800278:	31a01201 	lslcc	r1, r1, #4
8780027c:	32822004 	addcc	r2, r2, #4
87800280:	3afffffa 	bcc	87800270 <__modsi3+0x30>
87800284:	e3510102 	cmp	r1, #-2147483648	@ 0x80000000
87800288:	31510000 	cmpcc	r1, r0
8780028c:	31a01081 	lslcc	r1, r1, #1
87800290:	32822001 	addcc	r2, r2, #1
87800294:	3afffffa 	bcc	87800284 <__modsi3+0x44>
87800298:	e2522003 	subs	r2, r2, #3
8780029c:	ba00000e 	blt	878002dc <__modsi3+0x9c>
878002a0:	e1500001 	cmp	r0, r1
878002a4:	20400001 	subcs	r0, r0, r1
878002a8:	e15000a1 	cmp	r0, r1, lsr #1
878002ac:	204000a1 	subcs	r0, r0, r1, lsr #1
878002b0:	e1500121 	cmp	r0, r1, lsr #2
878002b4:	20400121 	subcs	r0, r0, r1, lsr #2
878002b8:	e15001a1 	cmp	r0, r1, lsr #3
878002bc:	204001a1 	subcs	r0, r0, r1, lsr #3
878002c0:	e3500001 	cmp	r0, #1
878002c4:	e1a01221 	lsr	r1, r1, #4
878002c8:	a2522004 	subsge	r2, r2, #4
878002cc:	aafffff3 	bge	878002a0 <__modsi3+0x60>
878002d0:	e3120003 	tst	r2, #3
878002d4:	13300000 	teqne	r0, #0
878002d8:	0a00000a 	beq	87800308 <__modsi3+0xc8>
878002dc:	e3720002 	cmn	r2, #2
878002e0:	ba000006 	blt	87800300 <__modsi3+0xc0>
878002e4:	0a000002 	beq	878002f4 <__modsi3+0xb4>
878002e8:	e1500001 	cmp	r0, r1
878002ec:	20400001 	subcs	r0, r0, r1
878002f0:	e1a010a1 	lsr	r1, r1, #1
878002f4:	e1500001 	cmp	r0, r1
878002f8:	20400001 	subcs	r0, r0, r1
878002fc:	e1a010a1 	lsr	r1, r1, #1
87800300:	e1500001 	cmp	r0, r1
87800304:	20400001 	subcs	r0, r0, r1
87800308:	e35c0000 	cmp	ip, #0
8780030c:	42600000 	rsbmi	r0, r0, #0
87800310:	e1a0f00e 	mov	pc, lr

87800314 <Ldiv0>:
87800314:	e52de004 	push	{lr}		@ (str lr, [sp, #-4]!)
87800318:	e3a00000 	mov	r0, #0
8780031c:	e49df004 	pop	{pc}		@ (ldr pc, [sp], #4)

87800320 <imx6ul_hardfpu_enable>:
87800320:	ee11 3f50 	mrc	15, 0, r3, cr1, cr0, {2}
87800324:	f023 4340 	bic.w	r3, r3, #3221225472	@ 0xc0000000
87800328:	f423 0370 	bic.w	r3, r3, #15728640	@ 0xf00000
8780032c:	f443 0370 	orr.w	r3, r3, #15728640	@ 0xf00000
87800330:	ee01 3f50 	mcr	15, 0, r3, cr1, cr0, {2}
87800334:	eef8 3a10 	vmrs	r3, fpexc
87800338:	f043 4380 	orr.w	r3, r3, #1073741824	@ 0x40000000
8780033c:	eee8 3a10 	vmsr	fpexc, r3
87800340:	4770      	bx	lr
87800342:	bf00      	nop

87800344 <clk_enable>:
87800344:	f44f 4380 	mov.w	r3, #16384	@ 0x4000
87800348:	f04f 32ff 	mov.w	r2, #4294967295	@ 0xffffffff
8780034c:	f2c0 230c 	movt	r3, #524	@ 0x20c
87800350:	669a      	str	r2, [r3, #104]	@ 0x68
87800352:	66da      	str	r2, [r3, #108]	@ 0x6c
87800354:	671a      	str	r2, [r3, #112]	@ 0x70
87800356:	675a      	str	r2, [r3, #116]	@ 0x74
87800358:	679a      	str	r2, [r3, #120]	@ 0x78
8780035a:	67da      	str	r2, [r3, #124]	@ 0x7c
8780035c:	f8c3 2080 	str.w	r2, [r3, #128]	@ 0x80
87800360:	4770      	bx	lr
87800362:	bf00      	nop

87800364 <imx6uclk_init>:
87800364:	f44f 4380 	mov.w	r3, #16384	@ 0x4000
87800368:	b410      	push	{r4}
8780036a:	f2c0 230c 	movt	r3, #524	@ 0x20c
8780036e:	68da      	ldr	r2, [r3, #12]
87800370:	0751      	lsls	r1, r2, #29
87800372:	d407      	bmi.n	87800384 <imx6uclk_init+0x20>
87800374:	68da      	ldr	r2, [r3, #12]
87800376:	f422 7280 	bic.w	r2, r2, #256	@ 0x100
8780037a:	60da      	str	r2, [r3, #12]
8780037c:	68da      	ldr	r2, [r3, #12]
8780037e:	f042 0204 	orr.w	r2, r2, #4
87800382:	60da      	str	r2, [r3, #12]
87800384:	f44f 4200 	mov.w	r2, #32768	@ 0x8000
87800388:	f44f 4380 	mov.w	r3, #16384	@ 0x4000
8780038c:	f2c0 230c 	movt	r3, #524	@ 0x20c
87800390:	f2c0 220c 	movt	r2, #524	@ 0x20c
87800394:	f242 0058 	movw	r0, #8280	@ 0x2058
87800398:	2101      	movs	r1, #1
8780039a:	6010      	str	r0, [r2, #0]
8780039c:	f241 001b 	movw	r0, #4123	@ 0x101b
878003a0:	6119      	str	r1, [r3, #16]
878003a2:	f2c2 0018 	movt	r0, #8216	@ 0x2018
878003a6:	68dc      	ldr	r4, [r3, #12]
878003a8:	f241 010c 	movw	r1, #4108	@ 0x100c
878003ac:	f2c1 3111 	movt	r1, #4881	@ 0x1311
878003b0:	f024 0404 	bic.w	r4, r4, #4
878003b4:	60dc      	str	r4, [r3, #12]
878003b6:	f8d2 4100 	ldr.w	r4, [r2, #256]	@ 0x100
878003ba:	f004 3cc0 	and.w	ip, r4, #3233857728	@ 0xc0c0c0c0
878003be:	ea4c 0000 	orr.w	r0, ip, r0
878003c2:	f8c2 0100 	str.w	r0, [r2, #256]	@ 0x100
878003c6:	f8d2 00f0 	ldr.w	r0, [r2, #240]	@ 0xf0
878003ca:	f000 30c0 	and.w	r0, r0, #3233857728	@ 0xc0c0c0c0
878003ce:	4301      	orrs	r1, r0
878003d0:	f8c2 10f0 	str.w	r1, [r2, #240]	@ 0xf0
878003d4:	699a      	ldr	r2, [r3, #24]
878003d6:	f422 2240 	bic.w	r2, r2, #786432	@ 0xc0000
878003da:	619a      	str	r2, [r3, #24]
878003dc:	699a      	ldr	r2, [r3, #24]
878003de:	f442 2280 	orr.w	r2, r2, #262144	@ 0x40000
878003e2:	619a      	str	r2, [r3, #24]
878003e4:	695a      	ldr	r2, [r3, #20]
878003e6:	f022 7200 	bic.w	r2, r2, #33554432	@ 0x2000000
878003ea:	615a      	str	r2, [r3, #20]
878003ec:	6c9a      	ldr	r2, [r3, #72]	@ 0x48
878003ee:	0692      	lsls	r2, r2, #26
878003f0:	d4fc      	bmi.n	878003ec <imx6uclk_init+0x88>
878003f2:	695a      	ldr	r2, [r3, #20]
878003f4:	f85d 4b04 	ldr.w	r4, [sp], #4
878003f8:	f422 7240 	bic.w	r2, r2, #768	@ 0x300
878003fc:	615a      	str	r2, [r3, #20]
878003fe:	695a      	ldr	r2, [r3, #20]
87800400:	f442 7280 	orr.w	r2, r2, #256	@ 0x100
87800404:	615a      	str	r2, [r3, #20]
87800406:	69da      	ldr	r2, [r3, #28]
87800408:	f022 0240 	bic.w	r2, r2, #64	@ 0x40
8780040c:	61da      	str	r2, [r3, #28]
8780040e:	69da      	ldr	r2, [r3, #28]
87800410:	f022 023f 	bic.w	r2, r2, #63	@ 0x3f
87800414:	61da      	str	r2, [r3, #28]
87800416:	6a5a      	ldr	r2, [r3, #36]	@ 0x24
87800418:	f022 0240 	bic.w	r2, r2, #64	@ 0x40
8780041c:	625a      	str	r2, [r3, #36]	@ 0x24
8780041e:	6a5a      	ldr	r2, [r3, #36]	@ 0x24
87800420:	f022 023f 	bic.w	r2, r2, #63	@ 0x3f
87800424:	625a      	str	r2, [r3, #36]	@ 0x24
87800426:	6b9a      	ldr	r2, [r3, #56]	@ 0x38
87800428:	f422 2280 	bic.w	r2, r2, #262144	@ 0x40000
8780042c:	639a      	str	r2, [r3, #56]	@ 0x38
8780042e:	6b9a      	ldr	r2, [r3, #56]	@ 0x38
87800430:	f022 72fc 	bic.w	r2, r2, #33030144	@ 0x1f80000
87800434:	639a      	str	r2, [r3, #56]	@ 0x38
87800436:	4770      	bx	lr

87800438 <led_init>:
87800438:	2200      	movs	r2, #0
8780043a:	f44f 4340 	mov.w	r3, #49152	@ 0xc000
8780043e:	b410      	push	{r4}
87800440:	f2c0 2309 	movt	r3, #521	@ 0x209
87800444:	f2c0 220e 	movt	r2, #526	@ 0x20e
87800448:	2405      	movs	r4, #5
8780044a:	2108      	movs	r1, #8
8780044c:	f241 00b0 	movw	r0, #4272	@ 0x10b0
87800450:	6694      	str	r4, [r2, #104]	@ 0x68
87800452:	f8c2 02f4 	str.w	r0, [r2, #756]	@ 0x2f4
87800456:	6059      	str	r1, [r3, #4]
87800458:	681a      	ldr	r2, [r3, #0]
8780045a:	f85d 4b04 	ldr.w	r4, [sp], #4
8780045e:	430a      	orrs	r2, r1
87800460:	601a      	str	r2, [r3, #0]
87800462:	4770      	bx	lr

87800464 <led_on>:
87800464:	f44f 4340 	mov.w	r3, #49152	@ 0xc000
87800468:	f2c0 2309 	movt	r3, #521	@ 0x209
8780046c:	681a      	ldr	r2, [r3, #0]
8780046e:	f022 0208 	bic.w	r2, r2, #8
87800472:	601a      	str	r2, [r3, #0]
87800474:	4770      	bx	lr
87800476:	bf00      	nop

87800478 <led_off>:
87800478:	f44f 4340 	mov.w	r3, #49152	@ 0xc000
8780047c:	f2c0 2309 	movt	r3, #521	@ 0x209
87800480:	681a      	ldr	r2, [r3, #0]
87800482:	f042 0208 	orr.w	r2, r2, #8
87800486:	601a      	str	r2, [r3, #0]
87800488:	4770      	bx	lr
8780048a:	bf00      	nop

8780048c <led_switch>:
8780048c:	b950      	cbnz	r0, 878004a4 <led_switch+0x18>
8780048e:	2901      	cmp	r1, #1
87800490:	d009      	beq.n	878004a6 <led_switch+0x1a>
87800492:	b939      	cbnz	r1, 878004a4 <led_switch+0x18>
87800494:	f44f 4340 	mov.w	r3, #49152	@ 0xc000
87800498:	f2c0 2309 	movt	r3, #521	@ 0x209
8780049c:	681a      	ldr	r2, [r3, #0]
8780049e:	f042 0208 	orr.w	r2, r2, #8
878004a2:	601a      	str	r2, [r3, #0]
878004a4:	4770      	bx	lr
878004a6:	f44f 4340 	mov.w	r3, #49152	@ 0xc000
878004aa:	f2c0 2309 	movt	r3, #521	@ 0x209
878004ae:	681a      	ldr	r2, [r3, #0]
878004b0:	f022 0208 	bic.w	r2, r2, #8
878004b4:	601a      	str	r2, [r3, #0]
878004b6:	4770      	bx	lr

878004b8 <beep_init>:
878004b8:	2300      	movs	r3, #0
878004ba:	2205      	movs	r2, #5
878004bc:	f2c0 2329 	movt	r3, #553	@ 0x229
878004c0:	f241 00b0 	movw	r0, #4272	@ 0x10b0
878004c4:	b500      	push	{lr}
878004c6:	b085      	sub	sp, #20
878004c8:	60da      	str	r2, [r3, #12]
878004ca:	2101      	movs	r1, #1
878004cc:	aa01      	add	r2, sp, #4
878004ce:	6518      	str	r0, [r3, #80]	@ 0x50
878004d0:	f44f 4040 	mov.w	r0, #49152	@ 0xc000
878004d4:	f2c0 200a 	movt	r0, #522	@ 0x20a
878004d8:	9101      	str	r1, [sp, #4]
878004da:	f88d 1008 	strb.w	r1, [sp, #8]
878004de:	f000 f8d5 	bl	8780068c <gpio_init>
878004e2:	b005      	add	sp, #20
878004e4:	f85d fb04 	ldr.w	pc, [sp], #4

878004e8 <beep_switch>:
878004e8:	2801      	cmp	r0, #1
878004ea:	4601      	mov	r1, r0
878004ec:	d009      	beq.n	87800502 <beep_switch+0x1a>
878004ee:	b100      	cbz	r0, 878004f2 <beep_switch+0xa>
878004f0:	4770      	bx	lr
878004f2:	2201      	movs	r2, #1
878004f4:	f44f 4040 	mov.w	r0, #49152	@ 0xc000
878004f8:	4611      	mov	r1, r2
878004fa:	f2c0 200a 	movt	r0, #522	@ 0x20a
878004fe:	f000 b855 	b.w	878005ac <gpio_pinwrite>
87800502:	f44f 4040 	mov.w	r0, #49152	@ 0xc000
87800506:	2200      	movs	r2, #0
87800508:	f2c0 200a 	movt	r0, #522	@ 0x20a
8780050c:	f000 b84e 	b.w	878005ac <gpio_pinwrite>

87800510 <key_init>:
87800510:	2300      	movs	r3, #0
87800512:	b510      	push	{r4, lr}
87800514:	f2c0 230e 	movt	r3, #526	@ 0x20e
87800518:	b084      	sub	sp, #16
8780051a:	2105      	movs	r1, #5
8780051c:	f24f 0280 	movw	r2, #61568	@ 0xf080
87800520:	f44f 4040 	mov.w	r0, #49152	@ 0xc000
87800524:	f8c3 108c 	str.w	r1, [r3, #140]	@ 0x8c
87800528:	2400      	movs	r4, #0
8780052a:	f8c3 2318 	str.w	r2, [r3, #792]	@ 0x318
8780052e:	2112      	movs	r1, #18
87800530:	aa01      	add	r2, sp, #4
87800532:	f2c0 2009 	movt	r0, #521	@ 0x209
87800536:	9401      	str	r4, [sp, #4]
87800538:	f000 f8a8 	bl	8780068c <gpio_init>
8780053c:	b004      	add	sp, #16
8780053e:	bd10      	pop	{r4, pc}

87800540 <read_key>:
87800540:	f44f 4040 	mov.w	r0, #49152	@ 0xc000
87800544:	2112      	movs	r1, #18
87800546:	f2c0 2009 	movt	r0, #521	@ 0x209
8780054a:	f000 b83b 	b.w	878005c4 <gpio_pinread>
8780054e:	bf00      	nop

87800550 <key_getvalue>:
87800550:	b538      	push	{r3, r4, r5, lr}
87800552:	f249 14c0 	movw	r4, #37312	@ 0x91c0
87800556:	f2c8 7480 	movt	r4, #34688	@ 0x8780
8780055a:	7823      	ldrb	r3, [r4, #0]
8780055c:	2b01      	cmp	r3, #1
8780055e:	d00b      	beq.n	87800578 <key_getvalue+0x28>
87800560:	f44f 4040 	mov.w	r0, #49152	@ 0xc000
87800564:	2112      	movs	r1, #18
87800566:	f2c0 2009 	movt	r0, #521	@ 0x209
8780056a:	f000 f82b 	bl	878005c4 <gpio_pinread>
8780056e:	2801      	cmp	r0, #1
87800570:	bf08      	it	eq
87800572:	7020      	strbeq	r0, [r4, #0]
87800574:	2000      	movs	r0, #0
87800576:	bd38      	pop	{r3, r4, r5, pc}
87800578:	f44f 4040 	mov.w	r0, #49152	@ 0xc000
8780057c:	2112      	movs	r1, #18
8780057e:	f2c0 2009 	movt	r0, #521	@ 0x209
87800582:	f000 f81f 	bl	878005c4 <gpio_pinread>
87800586:	4605      	mov	r5, r0
87800588:	2800      	cmp	r0, #0
8780058a:	d1e9      	bne.n	87800560 <key_getvalue+0x10>
8780058c:	200a      	movs	r0, #10
8780058e:	f000 fc69 	bl	87800e64 <delay>
87800592:	f44f 4040 	mov.w	r0, #49152	@ 0xc000
87800596:	2112      	movs	r1, #18
87800598:	f2c0 2009 	movt	r0, #521	@ 0x209
8780059c:	7025      	strb	r5, [r4, #0]
8780059e:	f000 f811 	bl	878005c4 <gpio_pinread>
878005a2:	fab0 f080 	clz	r0, r0
878005a6:	0940      	lsrs	r0, r0, #5
878005a8:	bd38      	pop	{r3, r4, r5, pc}
878005aa:	bf00      	nop

878005ac <gpio_pinwrite>:
878005ac:	2301      	movs	r3, #1
878005ae:	408b      	lsls	r3, r1
878005b0:	b922      	cbnz	r2, 878005bc <gpio_pinwrite+0x10>
878005b2:	6802      	ldr	r2, [r0, #0]
878005b4:	ea22 0303 	bic.w	r3, r2, r3
878005b8:	6003      	str	r3, [r0, #0]
878005ba:	4770      	bx	lr
878005bc:	6802      	ldr	r2, [r0, #0]
878005be:	4313      	orrs	r3, r2
878005c0:	6003      	str	r3, [r0, #0]
878005c2:	4770      	bx	lr

878005c4 <gpio_pinread>:
878005c4:	6800      	ldr	r0, [r0, #0]
878005c6:	40c8      	lsrs	r0, r1
878005c8:	f000 0001 	and.w	r0, r0, #1
878005cc:	4770      	bx	lr
878005ce:	bf00      	nop

878005d0 <gpio_enable>:
878005d0:	6942      	ldr	r2, [r0, #20]
878005d2:	2301      	movs	r3, #1
878005d4:	408b      	lsls	r3, r1
878005d6:	4313      	orrs	r3, r2
878005d8:	6143      	str	r3, [r0, #20]
878005da:	4770      	bx	lr

878005dc <gpio_disable>:
878005dc:	6943      	ldr	r3, [r0, #20]
878005de:	2201      	movs	r2, #1
878005e0:	408a      	lsls	r2, r1
878005e2:	ea23 0302 	bic.w	r3, r3, r2
878005e6:	6143      	str	r3, [r0, #20]
878005e8:	4770      	bx	lr
878005ea:	bf00      	nop

878005ec <gpio_clearIntFlags>:
878005ec:	6982      	ldr	r2, [r0, #24]
878005ee:	2301      	movs	r3, #1
878005f0:	408b      	lsls	r3, r1
878005f2:	4313      	orrs	r3, r2
878005f4:	6183      	str	r3, [r0, #24]
878005f6:	4770      	bx	lr

878005f8 <gpio_intconfig>:
878005f8:	b410      	push	{r4}
878005fa:	2301      	movs	r3, #1
878005fc:	69c4      	ldr	r4, [r0, #28]
878005fe:	408b      	lsls	r3, r1
87800600:	290f      	cmp	r1, #15
87800602:	f102 32ff 	add.w	r2, r2, #4294967295	@ 0xffffffff
87800606:	bf88      	it	hi
87800608:	3910      	subhi	r1, #16
8780060a:	ea24 0403 	bic.w	r4, r4, r3
8780060e:	61c4      	str	r4, [r0, #28]
87800610:	bf94      	ite	ls
87800612:	f100 040c 	addls.w	r4, r0, #12
87800616:	f100 0410 	addhi.w	r4, r0, #16
8780061a:	2a04      	cmp	r2, #4
8780061c:	d810      	bhi.n	87800640 <gpio_intconfig+0x48>
8780061e:	e8df f002 	tbb	[pc, r2]
87800622:	27220318 			@ <UNDEFINED> instruction: 0x27220318
87800626:	68220012 	stmdavs	r2!, {r1, r4}
8780062a:	0049      	lsls	r1, r1, #1
8780062c:	2003      	movs	r0, #3
8780062e:	2301      	movs	r3, #1
87800630:	4088      	lsls	r0, r1
87800632:	408b      	lsls	r3, r1
87800634:	ea22 0200 	bic.w	r2, r2, r0
87800638:	6022      	str	r2, [r4, #0]
8780063a:	6822      	ldr	r2, [r4, #0]
8780063c:	4313      	orrs	r3, r2
8780063e:	6023      	str	r3, [r4, #0]
87800640:	f85d 4b04 	ldr.w	r4, [sp], #4
87800644:	4770      	bx	lr
87800646:	69c2      	ldr	r2, [r0, #28]
87800648:	f85d 4b04 	ldr.w	r4, [sp], #4
8780064c:	4313      	orrs	r3, r2
8780064e:	61c3      	str	r3, [r0, #28]
87800650:	4770      	bx	lr
87800652:	0049      	lsls	r1, r1, #1
87800654:	6823      	ldr	r3, [r4, #0]
87800656:	2203      	movs	r2, #3
87800658:	408a      	lsls	r2, r1
8780065a:	ea23 0302 	bic.w	r3, r3, r2
8780065e:	6023      	str	r3, [r4, #0]
87800660:	f85d 4b04 	ldr.w	r4, [sp], #4
87800664:	4770      	bx	lr
87800666:	6822      	ldr	r2, [r4, #0]
87800668:	0049      	lsls	r1, r1, #1
8780066a:	2003      	movs	r0, #3
8780066c:	2302      	movs	r3, #2
8780066e:	e7df      	b.n	87800630 <gpio_intconfig+0x38>
87800670:	0049      	lsls	r1, r1, #1
87800672:	6822      	ldr	r2, [r4, #0]
87800674:	2303      	movs	r3, #3
87800676:	408b      	lsls	r3, r1
87800678:	ea22 0203 	bic.w	r2, r2, r3
8780067c:	6022      	str	r2, [r4, #0]
8780067e:	6822      	ldr	r2, [r4, #0]
87800680:	4313      	orrs	r3, r2
87800682:	6023      	str	r3, [r4, #0]
87800684:	f85d 4b04 	ldr.w	r4, [sp], #4
87800688:	4770      	bx	lr
8780068a:	bf00      	nop

8780068c <gpio_init>:
8780068c:	b410      	push	{r4}
8780068e:	2301      	movs	r3, #1
87800690:	6814      	ldr	r4, [r2, #0]
87800692:	408b      	lsls	r3, r1
87800694:	b944      	cbnz	r4, 878006a8 <gpio_init+0x1c>
87800696:	6844      	ldr	r4, [r0, #4]
87800698:	6892      	ldr	r2, [r2, #8]
8780069a:	ea24 0303 	bic.w	r3, r4, r3
8780069e:	f85d 4b04 	ldr.w	r4, [sp], #4
878006a2:	6043      	str	r3, [r0, #4]
878006a4:	f7ff bfa8 	b.w	878005f8 <gpio_intconfig>
878006a8:	6844      	ldr	r4, [r0, #4]
878006aa:	431c      	orrs	r4, r3
878006ac:	6044      	str	r4, [r0, #4]
878006ae:	7914      	ldrb	r4, [r2, #4]
878006b0:	b944      	cbnz	r4, 878006c4 <gpio_init+0x38>
878006b2:	6804      	ldr	r4, [r0, #0]
878006b4:	ea24 0303 	bic.w	r3, r4, r3
878006b8:	f85d 4b04 	ldr.w	r4, [sp], #4
878006bc:	6003      	str	r3, [r0, #0]
878006be:	6892      	ldr	r2, [r2, #8]
878006c0:	f7ff bf9a 	b.w	878005f8 <gpio_intconfig>
878006c4:	6804      	ldr	r4, [r0, #0]
878006c6:	4323      	orrs	r3, r4
878006c8:	f85d 4b04 	ldr.w	r4, [sp], #4
878006cc:	6003      	str	r3, [r0, #0]
878006ce:	6892      	ldr	r2, [r2, #8]
878006d0:	f7ff bf92 	b.w	878005f8 <gpio_intconfig>

878006d4 <default_IRQhandler>:
878006d4:	e7fe      	b.n	878006d4 <default_IRQhandler>
878006d6:	bf00      	nop

878006d8 <system_irq_init>:
878006d8:	f240 62d5 	movw	r2, #1749	@ 0x6d5
878006dc:	f249 23c8 	movw	r3, #37576	@ 0x92c8
878006e0:	f2c8 7280 	movt	r2, #34688	@ 0x8780
878006e4:	f2c8 7380 	movt	r3, #34688	@ 0x8780
878006e8:	2100      	movs	r1, #0
878006ea:	f203 5004 	addw	r0, r3, #1284	@ 0x504
878006ee:	f843 1b04 	str.w	r1, [r3], #4
878006f2:	e9c3 2100 	strd	r2, r1, [r3]
878006f6:	3308      	adds	r3, #8
878006f8:	4283      	cmp	r3, r0
878006fa:	d1fa      	bne.n	878006f2 <system_irq_init+0x1a>
878006fc:	4770      	bx	lr
878006fe:	bf00      	nop

87800700 <system_register_irqhandler>:
87800700:	f249 23c8 	movw	r3, #37576	@ 0x92c8
87800704:	f2c8 7380 	movt	r3, #34688	@ 0x8780
87800708:	eb03 03c0 	add.w	r3, r3, r0, lsl #3
8780070c:	e9c3 1201 	strd	r1, r2, [r3, #4]
87800710:	4770      	bx	lr
87800712:	bf00      	nop

87800714 <int_init>:
87800714:	b510      	push	{r4, lr}
87800716:	ee9f 1f10 	mrc	15, 4, r1, cr15, cr0, {0}
8780071a:	f36f 010f 	bfc	r1, #0, #16
8780071e:	2300      	movs	r3, #0
87800720:	f501 5e80 	add.w	lr, r1, #4096	@ 0x1000
87800724:	f04f 34ff 	mov.w	r4, #4294967295	@ 0xffffffff
87800728:	f8de 2004 	ldr.w	r2, [lr, #4]
8780072c:	f002 0c1f 	and.w	ip, r2, #31
87800730:	459c      	cmp	ip, r3
87800732:	f503 608c 	add.w	r0, r3, #1120	@ 0x460
87800736:	f841 4020 	str.w	r4, [r1, r0, lsl #2]
8780073a:	f103 0301 	add.w	r3, r3, #1
8780073e:	d1f7      	bne.n	87800730 <int_init+0x1c>
87800740:	f501 5200 	add.w	r2, r1, #8192	@ 0x2000
87800744:	21f8      	movs	r1, #248	@ 0xf8
87800746:	6051      	str	r1, [r2, #4]
87800748:	2001      	movs	r0, #1
8780074a:	2102      	movs	r1, #2
8780074c:	f249 23c8 	movw	r3, #37576	@ 0x92c8
87800750:	6091      	str	r1, [r2, #8]
87800752:	f2c8 7380 	movt	r3, #34688	@ 0x8780
87800756:	f8ce 0000 	str.w	r0, [lr]
8780075a:	2100      	movs	r1, #0
8780075c:	6010      	str	r0, [r2, #0]
8780075e:	f240 62d5 	movw	r2, #1749	@ 0x6d5
87800762:	f2c8 7280 	movt	r2, #34688	@ 0x8780
87800766:	f203 5004 	addw	r0, r3, #1284	@ 0x504
8780076a:	f843 1b04 	str.w	r1, [r3], #4
8780076e:	e9c3 2100 	strd	r2, r1, [r3]
87800772:	3308      	adds	r3, #8
87800774:	4298      	cmp	r0, r3
87800776:	d1fa      	bne.n	8780076e <int_init+0x5a>
87800778:	2300      	movs	r3, #0
8780077a:	f2c8 7380 	movt	r3, #34688	@ 0x8780
8780077e:	ee0c 3f10 	mcr	15, 0, r3, cr12, cr0, {0}
87800782:	bd10      	pop	{r4, pc}

87800784 <system_irqhandler>:
87800784:	f3c0 0009 	ubfx	r0, r0, #0, #10
87800788:	289f      	cmp	r0, #159	@ 0x9f
8780078a:	d810      	bhi.n	878007ae <system_irqhandler+0x2a>
8780078c:	b538      	push	{r3, r4, r5, lr}
8780078e:	f249 24c8 	movw	r4, #37576	@ 0x92c8
87800792:	f2c8 7480 	movt	r4, #34688	@ 0x8780
87800796:	eb04 02c0 	add.w	r2, r4, r0, lsl #3
8780079a:	6823      	ldr	r3, [r4, #0]
8780079c:	e9d2 5101 	ldrd	r5, r1, [r2, #4]
878007a0:	3301      	adds	r3, #1
878007a2:	6023      	str	r3, [r4, #0]
878007a4:	47a8      	blx	r5
878007a6:	6823      	ldr	r3, [r4, #0]
878007a8:	3b01      	subs	r3, #1
878007aa:	6023      	str	r3, [r4, #0]
878007ac:	bd38      	pop	{r3, r4, r5, pc}
878007ae:	4770      	bx	lr

878007b0 <gpio1_18_IRQHandler>:
878007b0:	200a      	movs	r0, #10
878007b2:	b508      	push	{r3, lr}
878007b4:	f000 fb56 	bl	87800e64 <delay>
878007b8:	f44f 4040 	mov.w	r0, #49152	@ 0xc000
878007bc:	2112      	movs	r1, #18
878007be:	f2c0 2009 	movt	r0, #521	@ 0x209
878007c2:	f7ff feff 	bl	878005c4 <gpio_pinread>
878007c6:	b140      	cbz	r0, 878007da <gpio1_18_IRQHandler+0x2a>
878007c8:	f44f 4040 	mov.w	r0, #49152	@ 0xc000
878007cc:	e8bd 4008 	ldmia.w	sp!, {r3, lr}
878007d0:	2112      	movs	r1, #18
878007d2:	f2c0 2009 	movt	r0, #521	@ 0x209
878007d6:	f7ff bf09 	b.w	878005ec <gpio_clearIntFlags>
878007da:	f249 73cc 	movw	r3, #38860	@ 0x97cc
878007de:	f2c8 7380 	movt	r3, #34688	@ 0x8780
878007e2:	7818      	ldrb	r0, [r3, #0]
878007e4:	fab0 f080 	clz	r0, r0
878007e8:	0940      	lsrs	r0, r0, #5
878007ea:	7018      	strb	r0, [r3, #0]
878007ec:	f7ff fe7c 	bl	878004e8 <beep_switch>
878007f0:	e7ea      	b.n	878007c8 <gpio1_18_IRQHandler+0x18>
878007f2:	bf00      	nop

878007f4 <exti_init>:
878007f4:	2300      	movs	r3, #0
878007f6:	b530      	push	{r4, r5, lr}
878007f8:	f2c0 230e 	movt	r3, #526	@ 0x20e
878007fc:	2105      	movs	r1, #5
878007fe:	f24f 0280 	movw	r2, #61568	@ 0xf080
87800802:	f44f 4440 	mov.w	r4, #49152	@ 0xc000
87800806:	b085      	sub	sp, #20
87800808:	f8c3 108c 	str.w	r1, [r3, #140]	@ 0x8c
8780080c:	f2c0 2409 	movt	r4, #521	@ 0x209
87800810:	f8c3 2318 	str.w	r2, [r3, #792]	@ 0x318
87800814:	2304      	movs	r3, #4
87800816:	2500      	movs	r5, #0
87800818:	eb0d 0203 	add.w	r2, sp, r3
8780081c:	2112      	movs	r1, #18
8780081e:	4620      	mov	r0, r4
87800820:	9501      	str	r5, [sp, #4]
87800822:	9303      	str	r3, [sp, #12]
87800824:	f7ff ff32 	bl	8780068c <gpio_init>
87800828:	ee9f 3f10 	mrc	15, 4, r3, cr15, cr0, {0}
8780082c:	f36f 030f 	bfc	r3, #0, #16
87800830:	2008      	movs	r0, #8
87800832:	f503 5380 	add.w	r3, r3, #4096	@ 0x1000
87800836:	f240 71b1 	movw	r1, #1969	@ 0x7b1
8780083a:	f8c3 010c 	str.w	r0, [r3, #268]	@ 0x10c
8780083e:	462a      	mov	r2, r5
87800840:	f2c8 7180 	movt	r1, #34688	@ 0x8780
87800844:	2063      	movs	r0, #99	@ 0x63
87800846:	f7ff ff5b 	bl	87800700 <system_register_irqhandler>
8780084a:	2112      	movs	r1, #18
8780084c:	4620      	mov	r0, r4
8780084e:	f7ff febf 	bl	878005d0 <gpio_enable>
87800852:	b005      	add	sp, #20
87800854:	bd30      	pop	{r4, r5, pc}
87800856:	bf00      	nop

87800858 <epit1_IRQHandler>:
87800858:	b508      	push	{r3, lr}
8780085a:	2300      	movs	r3, #0
8780085c:	f2c0 230d 	movt	r3, #525	@ 0x20d
87800860:	685b      	ldr	r3, [r3, #4]
87800862:	07db      	lsls	r3, r3, #31
87800864:	d407      	bmi.n	87800876 <epit1_IRQHandler+0x1e>
87800866:	2300      	movs	r3, #0
87800868:	f2c0 230d 	movt	r3, #525	@ 0x20d
8780086c:	685a      	ldr	r2, [r3, #4]
8780086e:	f042 0201 	orr.w	r2, r2, #1
87800872:	605a      	str	r2, [r3, #4]
87800874:	bd08      	pop	{r3, pc}
87800876:	2100      	movs	r1, #0
87800878:	4608      	mov	r0, r1
8780087a:	f7ff fe07 	bl	8780048c <led_switch>
8780087e:	e7f2      	b.n	87800866 <epit1_IRQHandler+0xe>

87800880 <epit_init>:
87800880:	f640 72ff 	movw	r2, #4095	@ 0xfff
87800884:	230e      	movs	r3, #14
87800886:	4290      	cmp	r0, r2
87800888:	f2c0 1300 	movt	r3, #256	@ 0x100
8780088c:	bf28      	it	cs
8780088e:	4610      	movcs	r0, r2
87800890:	b510      	push	{r4, lr}
87800892:	ea43 1300 	orr.w	r3, r3, r0, lsl #4
87800896:	2400      	movs	r4, #0
87800898:	f2c0 240d 	movt	r4, #525	@ 0x20d
8780089c:	2200      	movs	r2, #0
8780089e:	6022      	str	r2, [r4, #0]
878008a0:	6023      	str	r3, [r4, #0]
878008a2:	60a1      	str	r1, [r4, #8]
878008a4:	60e2      	str	r2, [r4, #12]
878008a6:	ee9f 3f10 	mrc	15, 4, r3, cr15, cr0, {0}
878008aa:	f36f 030f 	bfc	r3, #0, #16
878008ae:	f04f 7080 	mov.w	r0, #16777216	@ 0x1000000
878008b2:	f503 5380 	add.w	r3, r3, #4096	@ 0x1000
878008b6:	f640 0159 	movw	r1, #2137	@ 0x859
878008ba:	f8c3 0108 	str.w	r0, [r3, #264]	@ 0x108
878008be:	f2c8 7180 	movt	r1, #34688	@ 0x8780
878008c2:	2058      	movs	r0, #88	@ 0x58
878008c4:	f7ff ff1c 	bl	87800700 <system_register_irqhandler>
878008c8:	6823      	ldr	r3, [r4, #0]
878008ca:	f043 0301 	orr.w	r3, r3, #1
878008ce:	6023      	str	r3, [r4, #0]
878008d0:	bd10      	pop	{r4, pc}
878008d2:	bf00      	nop

878008d4 <Filter_IRQHandler>:
878008d4:	b508      	push	{r3, lr}
878008d6:	2300      	movs	r3, #0
878008d8:	f2c0 230d 	movt	r3, #525	@ 0x20d
878008dc:	685a      	ldr	r2, [r3, #4]
878008de:	07d2      	lsls	r2, r2, #31
878008e0:	d407      	bmi.n	878008f2 <Filter_IRQHandler+0x1e>
878008e2:	2300      	movs	r3, #0
878008e4:	f2c0 230d 	movt	r3, #525	@ 0x20d
878008e8:	685a      	ldr	r2, [r3, #4]
878008ea:	f042 0201 	orr.w	r2, r2, #1
878008ee:	605a      	str	r2, [r3, #4]
878008f0:	bd08      	pop	{r3, pc}
878008f2:	681a      	ldr	r2, [r3, #0]
878008f4:	f44f 4040 	mov.w	r0, #49152	@ 0xc000
878008f8:	2112      	movs	r1, #18
878008fa:	f2c0 2009 	movt	r0, #521	@ 0x209
878008fe:	f022 0201 	bic.w	r2, r2, #1
87800902:	601a      	str	r2, [r3, #0]
87800904:	f7ff fe5e 	bl	878005c4 <gpio_pinread>
87800908:	2800      	cmp	r0, #0
8780090a:	d1ea      	bne.n	878008e2 <Filter_IRQHandler+0xe>
8780090c:	f249 73cd 	movw	r3, #38861	@ 0x97cd
87800910:	f2c8 7380 	movt	r3, #34688	@ 0x8780
87800914:	7818      	ldrb	r0, [r3, #0]
87800916:	fab0 f080 	clz	r0, r0
8780091a:	0940      	lsrs	r0, r0, #5
8780091c:	7018      	strb	r0, [r3, #0]
8780091e:	f7ff fde3 	bl	878004e8 <beep_switch>
87800922:	e7de      	b.n	878008e2 <Filter_IRQHandler+0xe>

87800924 <gpio1_16_31_IRQHandler>:
87800924:	2300      	movs	r3, #0
87800926:	b410      	push	{r4}
87800928:	f2c0 230d 	movt	r3, #525	@ 0x20d
8780092c:	f44f 5491 	mov.w	r4, #4640	@ 0x1220
87800930:	f2c0 040a 	movt	r4, #10
87800934:	f44f 4040 	mov.w	r0, #49152	@ 0xc000
87800938:	681a      	ldr	r2, [r3, #0]
8780093a:	2112      	movs	r1, #18
8780093c:	f2c0 2009 	movt	r0, #521	@ 0x209
87800940:	f022 0201 	bic.w	r2, r2, #1
87800944:	601a      	str	r2, [r3, #0]
87800946:	609c      	str	r4, [r3, #8]
87800948:	681a      	ldr	r2, [r3, #0]
8780094a:	f85d 4b04 	ldr.w	r4, [sp], #4
8780094e:	f042 0201 	orr.w	r2, r2, #1
87800952:	601a      	str	r2, [r3, #0]
87800954:	f7ff be4a 	b.w	878005ec <gpio_clearIntFlags>

87800958 <keyFilter_init>:
87800958:	2300      	movs	r3, #0
8780095a:	b570      	push	{r4, r5, r6, lr}
8780095c:	f2c0 230e 	movt	r3, #526	@ 0x20e
87800960:	2105      	movs	r1, #5
87800962:	f24f 0280 	movw	r2, #61568	@ 0xf080
87800966:	f44f 4440 	mov.w	r4, #49152	@ 0xc000
8780096a:	b084      	sub	sp, #16
8780096c:	f8c3 108c 	str.w	r1, [r3, #140]	@ 0x8c
87800970:	f2c0 2409 	movt	r4, #521	@ 0x209
87800974:	f8c3 2318 	str.w	r2, [r3, #792]	@ 0x318
87800978:	2304      	movs	r3, #4
8780097a:	2500      	movs	r5, #0
8780097c:	eb0d 0203 	add.w	r2, sp, r3
87800980:	2112      	movs	r1, #18
87800982:	4620      	mov	r0, r4
87800984:	9501      	str	r5, [sp, #4]
87800986:	9303      	str	r3, [sp, #12]
87800988:	f7ff fe80 	bl	8780068c <gpio_init>
8780098c:	ee9f 3f10 	mrc	15, 4, r3, cr15, cr0, {0}
87800990:	462e      	mov	r6, r5
87800992:	2208      	movs	r2, #8
87800994:	f6cf 76ff 	movt	r6, #65535	@ 0xffff
87800998:	f640 1125 	movw	r1, #2341	@ 0x925
8780099c:	4033      	ands	r3, r6
8780099e:	f2c8 7180 	movt	r1, #34688	@ 0x8780
878009a2:	f503 5380 	add.w	r3, r3, #4096	@ 0x1000
878009a6:	2063      	movs	r0, #99	@ 0x63
878009a8:	f8c3 210c 	str.w	r2, [r3, #268]	@ 0x10c
878009ac:	462a      	mov	r2, r5
878009ae:	f7ff fea7 	bl	87800700 <system_register_irqhandler>
878009b2:	4620      	mov	r0, r4
878009b4:	2112      	movs	r1, #18
878009b6:	f7ff fe0b 	bl	878005d0 <gpio_enable>
878009ba:	462c      	mov	r4, r5
878009bc:	220e      	movs	r2, #14
878009be:	f24b 5340 	movw	r3, #46400	@ 0xb540
878009c2:	f2c0 240d 	movt	r4, #525	@ 0x20d
878009c6:	f2c0 1200 	movt	r2, #256	@ 0x100
878009ca:	f2c0 0364 	movt	r3, #100	@ 0x64
878009ce:	6025      	str	r5, [r4, #0]
878009d0:	6022      	str	r2, [r4, #0]
878009d2:	60a3      	str	r3, [r4, #8]
878009d4:	60e5      	str	r5, [r4, #12]
878009d6:	ee9f 3f10 	mrc	15, 4, r3, cr15, cr0, {0}
878009da:	4033      	ands	r3, r6
878009dc:	f04f 7080 	mov.w	r0, #16777216	@ 0x1000000
878009e0:	f503 5380 	add.w	r3, r3, #4096	@ 0x1000
878009e4:	f640 01d5 	movw	r1, #2261	@ 0x8d5
878009e8:	f8c3 0108 	str.w	r0, [r3, #264]	@ 0x108
878009ec:	462a      	mov	r2, r5
878009ee:	f2c8 7180 	movt	r1, #34688	@ 0x8780
878009f2:	2058      	movs	r0, #88	@ 0x58
878009f4:	f7ff fe84 	bl	87800700 <system_register_irqhandler>
878009f8:	6823      	ldr	r3, [r4, #0]
878009fa:	f043 0301 	orr.w	r3, r3, #1
878009fe:	6023      	str	r3, [r4, #0]
87800a00:	b004      	add	sp, #16
87800a02:	bd70      	pop	{r4, r5, r6, pc}

87800a04 <Filter_Timer_init>:
87800a04:	b510      	push	{r4, lr}
87800a06:	230e      	movs	r3, #14
87800a08:	2400      	movs	r4, #0
87800a0a:	2200      	movs	r2, #0
87800a0c:	f2c0 240d 	movt	r4, #525	@ 0x20d
87800a10:	f2c0 1300 	movt	r3, #256	@ 0x100
87800a14:	6022      	str	r2, [r4, #0]
87800a16:	6023      	str	r3, [r4, #0]
87800a18:	60a0      	str	r0, [r4, #8]
87800a1a:	60e2      	str	r2, [r4, #12]
87800a1c:	ee9f 3f10 	mrc	15, 4, r3, cr15, cr0, {0}
87800a20:	f36f 030f 	bfc	r3, #0, #16
87800a24:	f04f 7080 	mov.w	r0, #16777216	@ 0x1000000
87800a28:	f503 5380 	add.w	r3, r3, #4096	@ 0x1000
87800a2c:	f640 01d5 	movw	r1, #2261	@ 0x8d5
87800a30:	f8c3 0108 	str.w	r0, [r3, #264]	@ 0x108
87800a34:	f2c8 7180 	movt	r1, #34688	@ 0x8780
87800a38:	2058      	movs	r0, #88	@ 0x58
87800a3a:	f7ff fe61 	bl	87800700 <system_register_irqhandler>
87800a3e:	6823      	ldr	r3, [r4, #0]
87800a40:	f043 0301 	orr.w	r3, r3, #1
87800a44:	6023      	str	r3, [r4, #0]
87800a46:	bd10      	pop	{r4, pc}

87800a48 <FilterTimer_stop>:
87800a48:	2300      	movs	r3, #0
87800a4a:	f2c0 230d 	movt	r3, #525	@ 0x20d
87800a4e:	681a      	ldr	r2, [r3, #0]
87800a50:	f022 0201 	bic.w	r2, r2, #1
87800a54:	601a      	str	r2, [r3, #0]
87800a56:	4770      	bx	lr

87800a58 <FilterTimer_restart>:
87800a58:	2300      	movs	r3, #0
87800a5a:	f2c0 230d 	movt	r3, #525	@ 0x20d
87800a5e:	681a      	ldr	r2, [r3, #0]
87800a60:	f022 0201 	bic.w	r2, r2, #1
87800a64:	601a      	str	r2, [r3, #0]
87800a66:	6098      	str	r0, [r3, #8]
87800a68:	681a      	ldr	r2, [r3, #0]
87800a6a:	f042 0201 	orr.w	r2, r2, #1
87800a6e:	601a      	str	r2, [r3, #0]
87800a70:	4770      	bx	lr
87800a72:	bf00      	nop

87800a74 <uart_setbaudrate>:
87800a74:	e92d 4ff0 	stmdb	sp!, {r4, r5, r6, r7, r8, r9, sl, fp, lr}
87800a78:	010e      	lsls	r6, r1, #4
87800a7a:	b087      	sub	sp, #28
87800a7c:	460f      	mov	r7, r1
87800a7e:	4683      	mov	fp, r0
87800a80:	4692      	mov	sl, r2
87800a82:	f000 80ed 	beq.w	87800c60 <uart_setbaudrate+0x1ec>
87800a86:	4631      	mov	r1, r6
87800a88:	4610      	mov	r0, r2
87800a8a:	460c      	mov	r4, r1
87800a8c:	f003 fe5a 	bl	87804744 <__aeabi_uidivmod>
87800a90:	4620      	mov	r0, r4
87800a92:	2900      	cmp	r1, #0
87800a94:	d1f9      	bne.n	87800a8a <uart_setbaudrate+0x16>
87800a96:	4621      	mov	r1, r4
87800a98:	4650      	mov	r0, sl
87800a9a:	f003 fd25 	bl	878044e8 <__udivsi3>
87800a9e:	4621      	mov	r1, r4
87800aa0:	4680      	mov	r8, r0
87800aa2:	4630      	mov	r0, r6
87800aa4:	f003 fd20 	bl	878044e8 <__udivsi3>
87800aa8:	4606      	mov	r6, r0
87800aaa:	f64f 73f9 	movw	r3, #65529	@ 0xfff9
87800aae:	f108 32ff 	add.w	r2, r8, #4294967295	@ 0xffffffff
87800ab2:	f2c0 0306 	movt	r3, #6
87800ab6:	4598      	cmp	r8, r3
87800ab8:	bf98      	it	ls
87800aba:	f5b6 3f80 	cmpls.w	r6, #65536	@ 0x10000
87800abe:	bf2c      	ite	cs
87800ac0:	2301      	movcs	r3, #1
87800ac2:	2300      	movcc	r3, #0
87800ac4:	d27a      	bcs.n	87800bbc <uart_setbaudrate+0x148>
87800ac6:	9301      	str	r3, [sp, #4]
87800ac8:	f248 0301 	movw	r3, #32769	@ 0x8001
87800acc:	f2c8 0300 	movt	r3, #32768	@ 0x8000
87800ad0:	9600      	str	r6, [sp, #0]
87800ad2:	fba3 3202 	umull	r3, r2, r3, r2
87800ad6:	ea4f 1308 	mov.w	r3, r8, lsl #4
87800ada:	0bd2      	lsrs	r2, r2, #15
87800adc:	1e51      	subs	r1, r2, #1
87800ade:	3201      	adds	r2, #1
87800ae0:	9204      	str	r2, [sp, #16]
87800ae2:	461a      	mov	r2, r3
87800ae4:	2905      	cmp	r1, #5
87800ae6:	4654      	mov	r4, sl
87800ae8:	bf96      	itet	ls
87800aea:	f644 10f8 	movwls	r0, #18936	@ 0x49f8
87800aee:	2105      	movhi	r1, #5
87800af0:	f2c8 7080 	movtls	r0, #34688	@ 0x8780
87800af4:	f04f 0500 	mov.w	r5, #0
87800af8:	bf98      	it	ls
87800afa:	f850 1021 	ldrls.w	r1, [r0, r1, lsl #2]
87800afe:	9105      	str	r1, [sp, #20]
87800b00:	b1e3      	cbz	r3, 87800b3c <uart_setbaudrate+0xc8>
87800b02:	f8cd 8008 	str.w	r8, [sp, #8]
87800b06:	461a      	mov	r2, r3
87800b08:	4698      	mov	r8, r3
87800b0a:	2500      	movs	r5, #0
87800b0c:	4620      	mov	r0, r4
87800b0e:	462b      	mov	r3, r5
87800b10:	4629      	mov	r1, r5
87800b12:	4614      	mov	r4, r2
87800b14:	4691      	mov	r9, r2
87800b16:	f003 fe23 	bl	87804760 <__aeabi_uldivmod>
87800b1a:	2a00      	cmp	r2, #0
87800b1c:	d1f5      	bne.n	87800b0a <uart_setbaudrate+0x96>
87800b1e:	4621      	mov	r1, r4
87800b20:	4650      	mov	r0, sl
87800b22:	f8cd 800c 	str.w	r8, [sp, #12]
87800b26:	f003 fcdf 	bl	878044e8 <__udivsi3>
87800b2a:	9b03      	ldr	r3, [sp, #12]
87800b2c:	4604      	mov	r4, r0
87800b2e:	f8dd 8008 	ldr.w	r8, [sp, #8]
87800b32:	4649      	mov	r1, r9
87800b34:	4618      	mov	r0, r3
87800b36:	f003 fcd7 	bl	878044e8 <__udivsi3>
87800b3a:	4602      	mov	r2, r0
87800b3c:	9b00      	ldr	r3, [sp, #0]
87800b3e:	9901      	ldr	r1, [sp, #4]
87800b40:	fb03 f505 	mul.w	r5, r3, r5
87800b44:	fb04 5501 	mla	r5, r4, r1, r5
87800b48:	fba3 0104 	umull	r0, r1, r3, r4
87800b4c:	2300      	movs	r3, #0
87800b4e:	4429      	add	r1, r5
87800b50:	f003 fe06 	bl	87804760 <__aeabi_uldivmod>
87800b54:	42b8      	cmp	r0, r7
87800b56:	f171 0300 	sbcs.w	r3, r1, #0
87800b5a:	d32b      	bcc.n	87800bb4 <uart_setbaudrate+0x140>
87800b5c:	1bc0      	subs	r0, r0, r7
87800b5e:	f161 0200 	sbc.w	r2, r1, #0
87800b62:	f248 531f 	movw	r3, #34079	@ 0x851f
87800b66:	f2c5 13eb 	movt	r3, #20971	@ 0x51eb
87800b6a:	fba3 7307 	umull	r7, r3, r3, r7
87800b6e:	095b      	lsrs	r3, r3, #5
87800b70:	eb03 0343 	add.w	r3, r3, r3, lsl #1
87800b74:	4298      	cmp	r0, r3
87800b76:	f172 0200 	sbcs.w	r2, r2, #0
87800b7a:	d218      	bcs.n	87800bae <uart_setbaudrate+0x13a>
87800b7c:	f8db 3090 	ldr.w	r3, [fp, #144]	@ 0x90
87800b80:	3e01      	subs	r6, #1
87800b82:	9a05      	ldr	r2, [sp, #20]
87800b84:	b2b6      	uxth	r6, r6
87800b86:	9904      	ldr	r1, [sp, #16]
87800b88:	4640      	mov	r0, r8
87800b8a:	f423 7360 	bic.w	r3, r3, #896	@ 0x380
87800b8e:	f8cb 3090 	str.w	r3, [fp, #144]	@ 0x90
87800b92:	f8db 3090 	ldr.w	r3, [fp, #144]	@ 0x90
87800b96:	ea43 13c2 	orr.w	r3, r3, r2, lsl #7
87800b9a:	f8cb 3090 	str.w	r3, [fp, #144]	@ 0x90
87800b9e:	f8cb 60a4 	str.w	r6, [fp, #164]	@ 0xa4
87800ba2:	f003 fca1 	bl	878044e8 <__udivsi3>
87800ba6:	1e43      	subs	r3, r0, #1
87800ba8:	b29b      	uxth	r3, r3
87800baa:	f8cb 30a8 	str.w	r3, [fp, #168]	@ 0xa8
87800bae:	b007      	add	sp, #28
87800bb0:	e8bd 8ff0 	ldmia.w	sp!, {r4, r5, r6, r7, r8, r9, sl, fp, pc}
87800bb4:	1a38      	subs	r0, r7, r0
87800bb6:	eb61 0241 	sbc.w	r2, r1, r1, lsl #1
87800bba:	e7d2      	b.n	87800b62 <uart_setbaudrate+0xee>
87800bbc:	f646 53b9 	movw	r3, #28089	@ 0x6db9
87800bc0:	f248 0901 	movw	r9, #32769	@ 0x8001
87800bc4:	f2c2 4393 	movt	r3, #9363	@ 0x2493
87800bc8:	f2c8 0900 	movt	r9, #32768	@ 0x8000
87800bcc:	fba3 1302 	umull	r1, r3, r3, r2
87800bd0:	1e74      	subs	r4, r6, #1
87800bd2:	4630      	mov	r0, r6
87800bd4:	1ad2      	subs	r2, r2, r3
87800bd6:	eb03 0352 	add.w	r3, r3, r2, lsr #1
87800bda:	fba9 2404 	umull	r2, r4, r9, r4
87800bde:	0c9b      	lsrs	r3, r3, #18
87800be0:	3301      	adds	r3, #1
87800be2:	0be4      	lsrs	r4, r4, #15
87800be4:	3401      	adds	r4, #1
87800be6:	429c      	cmp	r4, r3
87800be8:	bf38      	it	cc
87800bea:	461c      	movcc	r4, r3
87800bec:	4621      	mov	r1, r4
87800bee:	f003 fc7b 	bl	878044e8 <__udivsi3>
87800bf2:	4544      	cmp	r4, r8
87800bf4:	4605      	mov	r5, r0
87800bf6:	d90c      	bls.n	87800c12 <uart_setbaudrate+0x19e>
87800bf8:	42b4      	cmp	r4, r6
87800bfa:	d925      	bls.n	87800c48 <uart_setbaudrate+0x1d4>
87800bfc:	2601      	movs	r6, #1
87800bfe:	2200      	movs	r2, #0
87800c00:	e9cd 6200 	strd	r6, r2, [sp]
87800c04:	2205      	movs	r2, #5
87800c06:	4654      	mov	r4, sl
87800c08:	2310      	movs	r3, #16
87800c0a:	46b0      	mov	r8, r6
87800c0c:	9205      	str	r2, [sp, #20]
87800c0e:	9604      	str	r6, [sp, #16]
87800c10:	e777      	b.n	87800b02 <uart_setbaudrate+0x8e>
87800c12:	4640      	mov	r0, r8
87800c14:	4621      	mov	r1, r4
87800c16:	f003 fc67 	bl	878044e8 <__udivsi3>
87800c1a:	1e41      	subs	r1, r0, #1
87800c1c:	42b4      	cmp	r4, r6
87800c1e:	fba9 9101 	umull	r9, r1, r9, r1
87800c22:	ea4f 1300 	mov.w	r3, r0, lsl #4
87800c26:	4680      	mov	r8, r0
87800c28:	bf99      	ittee	ls
87800c2a:	9500      	strls	r5, [sp, #0]
87800c2c:	2000      	movls	r0, #0
87800c2e:	2601      	movhi	r6, #1
87800c30:	2000      	movhi	r0, #0
87800c32:	bf9a      	itte	ls
87800c34:	9001      	strls	r0, [sp, #4]
87800c36:	462e      	movls	r6, r5
87800c38:	e9cd 6000 	strdhi	r6, r0, [sp]
87800c3c:	0bc9      	lsrs	r1, r1, #15
87800c3e:	1c4a      	adds	r2, r1, #1
87800c40:	3901      	subs	r1, #1
87800c42:	9204      	str	r2, [sp, #16]
87800c44:	461a      	mov	r2, r3
87800c46:	e74d      	b.n	87800ae4 <uart_setbaudrate+0x70>
87800c48:	2300      	movs	r3, #0
87800c4a:	f04f 0801 	mov.w	r8, #1
87800c4e:	2205      	movs	r2, #5
87800c50:	9301      	str	r3, [sp, #4]
87800c52:	4654      	mov	r4, sl
87800c54:	4606      	mov	r6, r0
87800c56:	2310      	movs	r3, #16
87800c58:	9000      	str	r0, [sp, #0]
87800c5a:	e9cd 8204 	strd	r8, r2, [sp, #16]
87800c5e:	e750      	b.n	87800b02 <uart_setbaudrate+0x8e>
87800c60:	4690      	mov	r8, r2
87800c62:	e722      	b.n	87800aaa <uart_setbaudrate+0x36>

87800c64 <uart_init>:
87800c64:	2300      	movs	r3, #0
87800c66:	b510      	push	{r4, lr}
87800c68:	461c      	mov	r4, r3
87800c6a:	2100      	movs	r1, #0
87800c6c:	f2c0 230e 	movt	r3, #526	@ 0x20e
87800c70:	f2c0 2402 	movt	r4, #514	@ 0x202
87800c74:	f241 02b0 	movw	r2, #4272	@ 0x10b0
87800c78:	2003      	movs	r0, #3
87800c7a:	f8c3 1084 	str.w	r1, [r3, #132]	@ 0x84
87800c7e:	f8c3 1088 	str.w	r1, [r3, #136]	@ 0x88
87800c82:	f8c3 0624 	str.w	r0, [r3, #1572]	@ 0x624
87800c86:	f8c3 2310 	str.w	r2, [r3, #784]	@ 0x310
87800c8a:	f8c3 2314 	str.w	r2, [r3, #788]	@ 0x314
87800c8e:	f8d4 3080 	ldr.w	r3, [r4, #128]	@ 0x80
87800c92:	f023 0301 	bic.w	r3, r3, #1
87800c96:	f8c4 3080 	str.w	r3, [r4, #128]	@ 0x80
87800c9a:	f8d4 3084 	ldr.w	r3, [r4, #132]	@ 0x84
87800c9e:	f023 0301 	bic.w	r3, r3, #1
87800ca2:	f8c4 3084 	str.w	r3, [r4, #132]	@ 0x84
87800ca6:	f8d4 3084 	ldr.w	r3, [r4, #132]	@ 0x84
87800caa:	07db      	lsls	r3, r3, #31
87800cac:	d5fb      	bpl.n	87800ca6 <uart_init+0x42>
87800cae:	2300      	movs	r3, #0
87800cb0:	f44f 4234 	mov.w	r2, #46080	@ 0xb400
87800cb4:	f8c4 3080 	str.w	r3, [r4, #128]	@ 0x80
87800cb8:	2000      	movs	r0, #0
87800cba:	f8d4 3080 	ldr.w	r3, [r4, #128]	@ 0x80
87800cbe:	f2c0 42c4 	movt	r2, #1220	@ 0x4c4
87800cc2:	f44f 31e1 	mov.w	r1, #115200	@ 0x1c200
87800cc6:	f2c0 2002 	movt	r0, #514	@ 0x202
87800cca:	f423 4380 	bic.w	r3, r3, #16384	@ 0x4000
87800cce:	f8c4 3080 	str.w	r3, [r4, #128]	@ 0x80
87800cd2:	f8d4 3084 	ldr.w	r3, [r4, #132]	@ 0x84
87800cd6:	f443 4380 	orr.w	r3, r3, #16384	@ 0x4000
87800cda:	f043 0326 	orr.w	r3, r3, #38	@ 0x26
87800cde:	f8c4 3084 	str.w	r3, [r4, #132]	@ 0x84
87800ce2:	f8d4 3088 	ldr.w	r3, [r4, #136]	@ 0x88
87800ce6:	f043 0304 	orr.w	r3, r3, #4
87800cea:	f8c4 3088 	str.w	r3, [r4, #136]	@ 0x88
87800cee:	f7ff fec1 	bl	87800a74 <uart_setbaudrate>
87800cf2:	f8d4 3080 	ldr.w	r3, [r4, #128]	@ 0x80
87800cf6:	f043 0301 	orr.w	r3, r3, #1
87800cfa:	f8c4 3080 	str.w	r3, [r4, #128]	@ 0x80
87800cfe:	bd10      	pop	{r4, pc}

87800d00 <uart_io_init>:
87800d00:	2300      	movs	r3, #0
87800d02:	f241 02b0 	movw	r2, #4272	@ 0x10b0
87800d06:	4619      	mov	r1, r3
87800d08:	2003      	movs	r0, #3
87800d0a:	f2c0 230e 	movt	r3, #526	@ 0x20e
87800d0e:	f8c3 1084 	str.w	r1, [r3, #132]	@ 0x84
87800d12:	f8c3 1088 	str.w	r1, [r3, #136]	@ 0x88
87800d16:	f8c3 0624 	str.w	r0, [r3, #1572]	@ 0x624
87800d1a:	f8c3 2310 	str.w	r2, [r3, #784]	@ 0x310
87800d1e:	f8c3 2314 	str.w	r2, [r3, #788]	@ 0x314
87800d22:	4770      	bx	lr

87800d24 <uart_disable>:
87800d24:	f8d0 3080 	ldr.w	r3, [r0, #128]	@ 0x80
87800d28:	f023 0301 	bic.w	r3, r3, #1
87800d2c:	f8c0 3080 	str.w	r3, [r0, #128]	@ 0x80
87800d30:	4770      	bx	lr
87800d32:	bf00      	nop

87800d34 <uart_enable>:
87800d34:	f8d0 3080 	ldr.w	r3, [r0, #128]	@ 0x80
87800d38:	f043 0301 	orr.w	r3, r3, #1
87800d3c:	f8c0 3080 	str.w	r3, [r0, #128]	@ 0x80
87800d40:	4770      	bx	lr
87800d42:	bf00      	nop

87800d44 <uart_softreset>:
87800d44:	f8d0 3084 	ldr.w	r3, [r0, #132]	@ 0x84
87800d48:	f023 0301 	bic.w	r3, r3, #1
87800d4c:	f8c0 3084 	str.w	r3, [r0, #132]	@ 0x84
87800d50:	f8d0 3084 	ldr.w	r3, [r0, #132]	@ 0x84
87800d54:	07db      	lsls	r3, r3, #31
87800d56:	d5fb      	bpl.n	87800d50 <uart_softreset+0xc>
87800d58:	4770      	bx	lr
87800d5a:	bf00      	nop

87800d5c <put_char>:
87800d5c:	2200      	movs	r2, #0
87800d5e:	f2c0 2202 	movt	r2, #514	@ 0x202
87800d62:	f8d2 3098 	ldr.w	r3, [r2, #152]	@ 0x98
87800d66:	071b      	lsls	r3, r3, #28
87800d68:	d5fb      	bpl.n	87800d62 <put_char+0x6>
87800d6a:	6410      	str	r0, [r2, #64]	@ 0x40
87800d6c:	4770      	bx	lr
87800d6e:	bf00      	nop

87800d70 <put_string>:
87800d70:	7801      	ldrb	r1, [r0, #0]
87800d72:	b159      	cbz	r1, 87800d8c <put_string+0x1c>
87800d74:	2200      	movs	r2, #0
87800d76:	f2c0 2202 	movt	r2, #514	@ 0x202
87800d7a:	f8d2 3098 	ldr.w	r3, [r2, #152]	@ 0x98
87800d7e:	071b      	lsls	r3, r3, #28
87800d80:	d5fb      	bpl.n	87800d7a <put_string+0xa>
87800d82:	6411      	str	r1, [r2, #64]	@ 0x40
87800d84:	f810 1f01 	ldrb.w	r1, [r0, #1]!
87800d88:	2900      	cmp	r1, #0
87800d8a:	d1f6      	bne.n	87800d7a <put_string+0xa>
87800d8c:	4770      	bx	lr
87800d8e:	bf00      	nop

87800d90 <get_char>:
87800d90:	2200      	movs	r2, #0
87800d92:	f2c0 2202 	movt	r2, #514	@ 0x202
87800d96:	f8d2 3098 	ldr.w	r3, [r2, #152]	@ 0x98
87800d9a:	07db      	lsls	r3, r3, #31
87800d9c:	d5fb      	bpl.n	87800d96 <get_char+0x6>
87800d9e:	6810      	ldr	r0, [r2, #0]
87800da0:	b2c0      	uxtb	r0, r0
87800da2:	4770      	bx	lr

87800da4 <raise>:
87800da4:	4770      	bx	lr
87800da6:	bf00      	nop

87800da8 <delay_init>:
87800da8:	f44f 4300 	mov.w	r3, #32768	@ 0x8000
87800dac:	2100      	movs	r1, #0
87800dae:	f2c0 2309 	movt	r3, #521	@ 0x209
87800db2:	f44f 4200 	mov.w	r2, #32768	@ 0x8000
87800db6:	6019      	str	r1, [r3, #0]
87800db8:	601a      	str	r2, [r3, #0]
87800dba:	681a      	ldr	r2, [r3, #0]
87800dbc:	0412      	lsls	r2, r2, #16
87800dbe:	d4fc      	bmi.n	87800dba <delay_init+0x12>
87800dc0:	681a      	ldr	r2, [r3, #0]
87800dc2:	2041      	movs	r0, #65	@ 0x41
87800dc4:	f04f 31ff 	mov.w	r1, #4294967295	@ 0xffffffff
87800dc8:	f042 0242 	orr.w	r2, r2, #66	@ 0x42
87800dcc:	601a      	str	r2, [r3, #0]
87800dce:	6058      	str	r0, [r3, #4]
87800dd0:	6119      	str	r1, [r3, #16]
87800dd2:	681a      	ldr	r2, [r3, #0]
87800dd4:	f042 0201 	orr.w	r2, r2, #1
87800dd8:	601a      	str	r2, [r3, #0]
87800dda:	4770      	bx	lr

87800ddc <delay_us>:
87800ddc:	f44f 4100 	mov.w	r1, #32768	@ 0x8000
87800de0:	b510      	push	{r4, lr}
87800de2:	f2c0 2109 	movt	r1, #521	@ 0x209
87800de6:	4604      	mov	r4, r0
87800de8:	f04f 0c00 	mov.w	ip, #0
87800dec:	6a4a      	ldr	r2, [r1, #36]	@ 0x24
87800dee:	6a4b      	ldr	r3, [r1, #36]	@ 0x24
87800df0:	4293      	cmp	r3, r2
87800df2:	d0fc      	beq.n	87800dee <delay_us+0x12>
87800df4:	f103 3eff 	add.w	lr, r3, #4294967295	@ 0xffffffff
87800df8:	eb0c 0003 	add.w	r0, ip, r3
87800dfc:	44f4      	add	ip, lr
87800dfe:	bf8c      	ite	hi
87800e00:	eba0 0c02 	subhi.w	ip, r0, r2
87800e04:	ebac 0c02 	subls.w	ip, ip, r2
87800e08:	461a      	mov	r2, r3
87800e0a:	45a4      	cmp	ip, r4
87800e0c:	d9ef      	bls.n	87800dee <delay_us+0x12>
87800e0e:	bd10      	pop	{r4, pc}

87800e10 <delay_ms>:
87800e10:	b1e0      	cbz	r0, 87800e4c <delay_ms+0x3c>
87800e12:	f44f 4100 	mov.w	r1, #32768	@ 0x8000
87800e16:	b530      	push	{r4, r5, lr}
87800e18:	f2c0 2109 	movt	r1, #521	@ 0x209
87800e1c:	4605      	mov	r5, r0
87800e1e:	2400      	movs	r4, #0
87800e20:	6a4a      	ldr	r2, [r1, #36]	@ 0x24
87800e22:	2000      	movs	r0, #0
87800e24:	6a4b      	ldr	r3, [r1, #36]	@ 0x24
87800e26:	4293      	cmp	r3, r2
87800e28:	d0fc      	beq.n	87800e24 <delay_ms+0x14>
87800e2a:	f103 3cff 	add.w	ip, r3, #4294967295	@ 0xffffffff
87800e2e:	eb03 0e00 	add.w	lr, r3, r0
87800e32:	4460      	add	r0, ip
87800e34:	bf8c      	ite	hi
87800e36:	ebae 0002 	subhi.w	r0, lr, r2
87800e3a:	1a80      	subls	r0, r0, r2
87800e3c:	461a      	mov	r2, r3
87800e3e:	f5b0 7f7a 	cmp.w	r0, #1000	@ 0x3e8
87800e42:	d9ef      	bls.n	87800e24 <delay_ms+0x14>
87800e44:	3401      	adds	r4, #1
87800e46:	42ac      	cmp	r4, r5
87800e48:	d1ea      	bne.n	87800e20 <delay_ms+0x10>
87800e4a:	bd30      	pop	{r4, r5, pc}
87800e4c:	4770      	bx	lr
87800e4e:	bf00      	nop

87800e50 <delay_short>:
87800e50:	b082      	sub	sp, #8
87800e52:	9001      	str	r0, [sp, #4]
87800e54:	9b01      	ldr	r3, [sp, #4]
87800e56:	1e5a      	subs	r2, r3, #1
87800e58:	9201      	str	r2, [sp, #4]
87800e5a:	2b00      	cmp	r3, #0
87800e5c:	d1fa      	bne.n	87800e54 <delay_short+0x4>
87800e5e:	b002      	add	sp, #8
87800e60:	4770      	bx	lr
87800e62:	bf00      	nop

87800e64 <delay>:
87800e64:	b082      	sub	sp, #8
87800e66:	9001      	str	r0, [sp, #4]
87800e68:	9b01      	ldr	r3, [sp, #4]
87800e6a:	1e5a      	subs	r2, r3, #1
87800e6c:	9201      	str	r2, [sp, #4]
87800e6e:	b153      	cbz	r3, 87800e86 <delay+0x22>
87800e70:	f240 73ff 	movw	r3, #2047	@ 0x7ff
87800e74:	461a      	mov	r2, r3
87800e76:	3b01      	subs	r3, #1
87800e78:	2a00      	cmp	r2, #0
87800e7a:	d1fb      	bne.n	87800e74 <delay+0x10>
87800e7c:	9b01      	ldr	r3, [sp, #4]
87800e7e:	1e5a      	subs	r2, r3, #1
87800e80:	9201      	str	r2, [sp, #4]
87800e82:	2b00      	cmp	r3, #0
87800e84:	d1f4      	bne.n	87800e70 <delay+0xc>
87800e86:	b002      	add	sp, #8
87800e88:	4770      	bx	lr
87800e8a:	bf00      	nop

87800e8c <lcd_drawline>:
87800e8c:	e92d 4ff0 	stmdb	sp!, {r4, r5, r6, r7, r8, r9, sl, fp, lr}
87800e90:	eba2 0900 	sub.w	r9, r2, r0
87800e94:	f1b9 0f00 	cmp.w	r9, #0
87800e98:	b085      	sub	sp, #20
87800e9a:	4680      	mov	r8, r0
87800e9c:	468b      	mov	fp, r1
87800e9e:	eba3 0c01 	sub.w	ip, r3, r1
87800ea2:	bfc8      	it	gt
87800ea4:	2201      	movgt	r2, #1
87800ea6:	dc05      	bgt.n	87800eb4 <lcd_drawline+0x28>
87800ea8:	bf16      	itet	ne
87800eaa:	eba0 0902 	subne.w	r9, r0, r2
87800eae:	464a      	moveq	r2, r9
87800eb0:	f04f 32ff 	movne.w	r2, #4294967295	@ 0xffffffff
87800eb4:	f1bc 0f00 	cmp.w	ip, #0
87800eb8:	dd30      	ble.n	87800f1c <lcd_drawline+0x90>
87800eba:	45e1      	cmp	r9, ip
87800ebc:	464f      	mov	r7, r9
87800ebe:	bfb8      	it	lt
87800ec0:	4667      	movlt	r7, ip
87800ec2:	2301      	movs	r3, #1
87800ec4:	9303      	str	r3, [sp, #12]
87800ec6:	f249 7ad0 	movw	sl, #38864	@ 0x97d0
87800eca:	2500      	movs	r5, #0
87800ecc:	f2c8 7a80 	movt	sl, #34688	@ 0x8780
87800ed0:	e9cd 9201 	strd	r9, r2, [sp, #4]
87800ed4:	462e      	mov	r6, r5
87800ed6:	46d9      	mov	r9, fp
87800ed8:	462c      	mov	r4, r5
87800eda:	46d3      	mov	fp, sl
87800edc:	46e2      	mov	sl, ip
87800ede:	1c7b      	adds	r3, r7, #1
87800ee0:	9300      	str	r3, [sp, #0]
87800ee2:	fa1f f189 	uxth.w	r1, r9
87800ee6:	fa1f f088 	uxth.w	r0, r8
87800eea:	f8db 2018 	ldr.w	r2, [fp, #24]
87800eee:	f000 fcf5 	bl	878018dc <lcd_drawpoint>
87800ef2:	9b01      	ldr	r3, [sp, #4]
87800ef4:	4455      	add	r5, sl
87800ef6:	3401      	adds	r4, #1
87800ef8:	b2a4      	uxth	r4, r4
87800efa:	441e      	add	r6, r3
87800efc:	42be      	cmp	r6, r7
87800efe:	bfc2      	ittt	gt
87800f00:	9b02      	ldrgt	r3, [sp, #8]
87800f02:	1bf6      	subgt	r6, r6, r7
87800f04:	4498      	addgt	r8, r3
87800f06:	42bd      	cmp	r5, r7
87800f08:	bfc2      	ittt	gt
87800f0a:	9b03      	ldrgt	r3, [sp, #12]
87800f0c:	1bed      	subgt	r5, r5, r7
87800f0e:	4499      	addgt	r9, r3
87800f10:	9b00      	ldr	r3, [sp, #0]
87800f12:	429c      	cmp	r4, r3
87800f14:	dde5      	ble.n	87800ee2 <lcd_drawline+0x56>
87800f16:	b005      	add	sp, #20
87800f18:	e8bd 8ff0 	ldmia.w	sp!, {r4, r5, r6, r7, r8, r9, sl, fp, pc}
87800f1c:	d104      	bne.n	87800f28 <lcd_drawline+0x9c>
87800f1e:	ea29 77e9 	bic.w	r7, r9, r9, asr #31
87800f22:	f8cd c00c 	str.w	ip, [sp, #12]
87800f26:	e7ce      	b.n	87800ec6 <lcd_drawline+0x3a>
87800f28:	eba1 0c03 	sub.w	ip, r1, r3
87800f2c:	464f      	mov	r7, r9
87800f2e:	45e1      	cmp	r9, ip
87800f30:	bfb8      	it	lt
87800f32:	4667      	movlt	r7, ip
87800f34:	1c7b      	adds	r3, r7, #1
87800f36:	dbee      	blt.n	87800f16 <lcd_drawline+0x8a>
87800f38:	f04f 33ff 	mov.w	r3, #4294967295	@ 0xffffffff
87800f3c:	9303      	str	r3, [sp, #12]
87800f3e:	e7c2      	b.n	87800ec6 <lcd_drawline+0x3a>

87800f40 <lcd_draw_rectangle>:
87800f40:	e92d 41f0 	stmdb	sp!, {r4, r5, r6, r7, r8, lr}
87800f44:	461c      	mov	r4, r3
87800f46:	4606      	mov	r6, r0
87800f48:	460d      	mov	r5, r1
87800f4a:	460b      	mov	r3, r1
87800f4c:	4617      	mov	r7, r2
87800f4e:	f7ff ff9d 	bl	87800e8c <lcd_drawline>
87800f52:	4623      	mov	r3, r4
87800f54:	4632      	mov	r2, r6
87800f56:	4629      	mov	r1, r5
87800f58:	4630      	mov	r0, r6
87800f5a:	f7ff ff97 	bl	87800e8c <lcd_drawline>
87800f5e:	4623      	mov	r3, r4
87800f60:	463a      	mov	r2, r7
87800f62:	4621      	mov	r1, r4
87800f64:	4630      	mov	r0, r6
87800f66:	f7ff ff91 	bl	87800e8c <lcd_drawline>
87800f6a:	4623      	mov	r3, r4
87800f6c:	463a      	mov	r2, r7
87800f6e:	4629      	mov	r1, r5
87800f70:	4638      	mov	r0, r7
87800f72:	e8bd 41f0 	ldmia.w	sp!, {r4, r5, r6, r7, r8, lr}
87800f76:	f7ff bf89 	b.w	87800e8c <lcd_drawline>
87800f7a:	bf00      	nop

87800f7c <lcd_draw_Circle>:
87800f7c:	4613      	mov	r3, r2
87800f7e:	e92d 4ff0 	stmdb	sp!, {r4, r5, r6, r7, r8, r9, sl, fp, lr}
87800f82:	f1c2 0201 	rsb	r2, r2, #1
87800f86:	b087      	sub	sp, #28
87800f88:	9202      	str	r2, [sp, #8]
87800f8a:	2b00      	cmp	r3, #0
87800f8c:	d065      	beq.n	8780105a <lcd_draw_Circle+0xde>
87800f8e:	f249 77d0 	movw	r7, #38864	@ 0x97d0
87800f92:	2600      	movs	r6, #0
87800f94:	f2c8 7780 	movt	r7, #34688	@ 0x8780
87800f98:	468b      	mov	fp, r1
87800f9a:	9001      	str	r0, [sp, #4]
87800f9c:	b29d      	uxth	r5, r3
87800f9e:	9305      	str	r3, [sp, #20]
87800fa0:	9b01      	ldr	r3, [sp, #4]
87800fa2:	b2b4      	uxth	r4, r6
87800fa4:	eb05 080b 	add.w	r8, r5, fp
87800fa8:	69ba      	ldr	r2, [r7, #24]
87800faa:	fa1f f888 	uxth.w	r8, r8
87800fae:	eb0b 0a04 	add.w	sl, fp, r4
87800fb2:	1919      	adds	r1, r3, r4
87800fb4:	fa1f fa8a 	uxth.w	sl, sl
87800fb8:	b289      	uxth	r1, r1
87800fba:	4608      	mov	r0, r1
87800fbc:	9103      	str	r1, [sp, #12]
87800fbe:	4641      	mov	r1, r8
87800fc0:	f000 fc8c 	bl	878018dc <lcd_drawpoint>
87800fc4:	9b01      	ldr	r3, [sp, #4]
87800fc6:	4651      	mov	r1, sl
87800fc8:	18ea      	adds	r2, r5, r3
87800fca:	b292      	uxth	r2, r2
87800fcc:	4610      	mov	r0, r2
87800fce:	69ba      	ldr	r2, [r7, #24]
87800fd0:	9004      	str	r0, [sp, #16]
87800fd2:	f000 fc83 	bl	878018dc <lcd_drawpoint>
87800fd6:	9b01      	ldr	r3, [sp, #4]
87800fd8:	4641      	mov	r1, r8
87800fda:	69ba      	ldr	r2, [r7, #24]
87800fdc:	eba3 0904 	sub.w	r9, r3, r4
87800fe0:	ebab 0404 	sub.w	r4, fp, r4
87800fe4:	fa1f f989 	uxth.w	r9, r9
87800fe8:	b2a4      	uxth	r4, r4
87800fea:	4648      	mov	r0, r9
87800fec:	f000 fc76 	bl	878018dc <lcd_drawpoint>
87800ff0:	9b01      	ldr	r3, [sp, #4]
87800ff2:	4651      	mov	r1, sl
87800ff4:	69ba      	ldr	r2, [r7, #24]
87800ff6:	eba3 0805 	sub.w	r8, r3, r5
87800ffa:	ebab 0505 	sub.w	r5, fp, r5
87800ffe:	fa1f f888 	uxth.w	r8, r8
87801002:	b2ad      	uxth	r5, r5
87801004:	4640      	mov	r0, r8
87801006:	f000 fc69 	bl	878018dc <lcd_drawpoint>
8780100a:	69ba      	ldr	r2, [r7, #24]
8780100c:	4648      	mov	r0, r9
8780100e:	4629      	mov	r1, r5
87801010:	f000 fc64 	bl	878018dc <lcd_drawpoint>
87801014:	69ba      	ldr	r2, [r7, #24]
87801016:	4640      	mov	r0, r8
87801018:	4621      	mov	r1, r4
8780101a:	f000 fc5f 	bl	878018dc <lcd_drawpoint>
8780101e:	69ba      	ldr	r2, [r7, #24]
87801020:	4629      	mov	r1, r5
87801022:	9803      	ldr	r0, [sp, #12]
87801024:	f000 fc5a 	bl	878018dc <lcd_drawpoint>
87801028:	69ba      	ldr	r2, [r7, #24]
8780102a:	4621      	mov	r1, r4
8780102c:	9804      	ldr	r0, [sp, #16]
8780102e:	f000 fc55 	bl	878018dc <lcd_drawpoint>
87801032:	9902      	ldr	r1, [sp, #8]
87801034:	9b05      	ldr	r3, [sp, #20]
87801036:	2900      	cmp	r1, #0
87801038:	eba6 0203 	sub.w	r2, r6, r3
8780103c:	bfa8      	it	ge
8780103e:	f103 33ff 	addge.w	r3, r3, #4294967295	@ 0xffffffff
87801042:	eb01 0242 	add.w	r2, r1, r2, lsl #1
87801046:	eb01 0146 	add.w	r1, r1, r6, lsl #1
8780104a:	f106 0601 	add.w	r6, r6, #1
8780104e:	bfb4      	ite	lt
87801050:	1cca      	addlt	r2, r1, #3
87801052:	3205      	addge	r2, #5
87801054:	42b3      	cmp	r3, r6
87801056:	9202      	str	r2, [sp, #8]
87801058:	dca0      	bgt.n	87800f9c <lcd_draw_Circle+0x20>
8780105a:	b007      	add	sp, #28
8780105c:	e8bd 8ff0 	ldmia.w	sp!, {r4, r5, r6, r7, r8, r9, sl, fp, pc}

87801060 <lcd_showchar>:
87801060:	e92d 4ff0 	stmdb	sp!, {r4, r5, r6, r7, r8, r9, sl, fp, lr}
87801064:	4698      	mov	r8, r3
87801066:	f1a2 0720 	sub.w	r7, r2, #32
8780106a:	f018 0207 	ands.w	r2, r8, #7
8780106e:	bf18      	it	ne
87801070:	2201      	movne	r2, #1
87801072:	468a      	mov	sl, r1
87801074:	eb02 02d8 	add.w	r2, r2, r8, lsr #3
87801078:	ea4f 0158 	mov.w	r1, r8, lsr #1
8780107c:	fb12 f201 	smulbb	r2, r2, r1
87801080:	b087      	sub	sp, #28
87801082:	f89d 3040 	ldrb.w	r3, [sp, #64]	@ 0x40
87801086:	f012 01ff 	ands.w	r1, r2, #255	@ 0xff
8780108a:	d045      	beq.n	87801118 <lcd_showchar+0xb8>
8780108c:	b2ff      	uxtb	r7, r7
8780108e:	f644 2b10 	movw	fp, #18960	@ 0x4a10
87801092:	f246 12d8 	movw	r2, #25048	@ 0x61d8
87801096:	f2c8 7b80 	movt	fp, #34688	@ 0x8780
8780109a:	f2c8 7280 	movt	r2, #34688	@ 0x8780
8780109e:	eb07 04c7 	add.w	r4, r7, r7, lsl #3
878010a2:	eb07 0547 	add.w	r5, r7, r7, lsl #1
878010a6:	eb02 12c7 	add.w	r2, r2, r7, lsl #7
878010aa:	eb0b 1707 	add.w	r7, fp, r7, lsl #4
878010ae:	1879      	adds	r1, r7, r1
878010b0:	f249 76d0 	movw	r6, #38864	@ 0x97d0
878010b4:	9105      	str	r1, [sp, #20]
878010b6:	f50b 61be 	add.w	r1, fp, #1520	@ 0x5f0
878010ba:	f60b 2b68 	addw	fp, fp, #2664	@ 0xa68
878010be:	f1a8 0e0c 	sub.w	lr, r8, #12
878010c2:	eb0b 0b84 	add.w	fp, fp, r4, lsl #2
878010c6:	eb01 0185 	add.w	r1, r1, r5, lsl #2
878010ca:	46dc      	mov	ip, fp
878010cc:	46c3      	mov	fp, r8
878010ce:	4680      	mov	r8, r0
878010d0:	4618      	mov	r0, r3
878010d2:	f2c8 7680 	movt	r6, #34688	@ 0x8780
878010d6:	463b      	mov	r3, r7
878010d8:	4654      	mov	r4, sl
878010da:	4607      	mov	r7, r0
878010dc:	f1be 0f14 	cmp.w	lr, #20
878010e0:	d81a      	bhi.n	87801118 <lcd_showchar+0xb8>
878010e2:	e8df f00e 	tbb	[pc, lr]
878010e6:	19191943 	ldmdbne	r9, {r0, r1, r6, r8, fp, ip}
878010ea:	19191941 	ldmdbne	r9, {r0, r6, r8, fp, ip}
878010ee:	19191919 	ldmdbne	r9, {r0, r3, r4, r8, fp, ip}
878010f2:	1919193e 	ldmdbne	r9, {r1, r2, r3, r4, r5, r8, fp, ip}
878010f6:	19191919 	ldmdbne	r9, {r0, r3, r4, r8, fp, ip}
878010fa:	e9dd001c 	ldmib	sp, {r2, r3, r4}^
878010fe:	1300      	asrs	r0, r0, #12
87801100:	e9dd 2c02 	ldrd	r2, ip, [sp, #8]
87801104:	f8dd e010 	ldr.w	lr, [sp, #16]
87801108:	9805      	ldr	r0, [sp, #20]
8780110a:	3301      	adds	r3, #1
8780110c:	3101      	adds	r1, #1
8780110e:	3201      	adds	r2, #1
87801110:	f10c 0c01 	add.w	ip, ip, #1
87801114:	4283      	cmp	r3, r0
87801116:	d1e1      	bne.n	878010dc <lcd_showchar+0x7c>
87801118:	b007      	add	sp, #28
8780111a:	e8bd 8ff0 	ldmia.w	sp!, {r4, r5, r6, r7, r8, r9, sl, fp, pc}
8780111e:	7815      	ldrb	r5, [r2, #0]
87801120:	f104 0908 	add.w	r9, r4, #8
87801124:	e9cd 1300 	strd	r1, r3, [sp]
87801128:	fa1f f989 	uxth.w	r9, r9
8780112c:	e9cd 2c02 	strd	r2, ip, [sp, #8]
87801130:	f8cd e010 	str.w	lr, [sp, #16]
87801134:	e00d      	b.n	87801152 <lcd_showchar+0xf2>
87801136:	b1df      	cbz	r7, 87801170 <lcd_showchar+0x110>
87801138:	8832      	ldrh	r2, [r6, #0]
8780113a:	1c61      	adds	r1, r4, #1
8780113c:	b28c      	uxth	r4, r1
8780113e:	006d      	lsls	r5, r5, #1
87801140:	42a2      	cmp	r2, r4
87801142:	b2ed      	uxtb	r5, r5
87801144:	eba4 000a 	sub.w	r0, r4, sl
87801148:	d9e6      	bls.n	87801118 <lcd_showchar+0xb8>
8780114a:	4558      	cmp	r0, fp
8780114c:	d016      	beq.n	8780117c <lcd_showchar+0x11c>
8780114e:	454c      	cmp	r4, r9
87801150:	d0d4      	beq.n	878010fc <lcd_showchar+0x9c>
87801152:	062b      	lsls	r3, r5, #24
87801154:	d5ef      	bpl.n	87801136 <lcd_showchar+0xd6>
87801156:	69b2      	ldr	r2, [r6, #24]
87801158:	4621      	mov	r1, r4
8780115a:	4640      	mov	r0, r8
8780115c:	f000 fbbe 	bl	878018dc <lcd_drawpoint>
87801160:	e7ea      	b.n	87801138 <lcd_showchar+0xd8>
87801162:	f89c 5000 	ldrb.w	r5, [ip]
87801166:	e7db      	b.n	87801120 <lcd_showchar+0xc0>
87801168:	781d      	ldrb	r5, [r3, #0]
8780116a:	e7d9      	b.n	87801120 <lcd_showchar+0xc0>
8780116c:	780d      	ldrb	r5, [r1, #0]
8780116e:	e7d7      	b.n	87801120 <lcd_showchar+0xc0>
87801170:	69f2      	ldr	r2, [r6, #28]
87801172:	4621      	mov	r1, r4
87801174:	4640      	mov	r0, r8
87801176:	f000 fbb1 	bl	878018dc <lcd_drawpoint>
8780117a:	e7dd      	b.n	87801138 <lcd_showchar+0xd8>
8780117c:	8870      	ldrh	r0, [r6, #2]
8780117e:	f108 0801 	add.w	r8, r8, #1
87801182:	fa1f f888 	uxth.w	r8, r8
87801186:	e9dd 1300 	ldrd	r1, r3, [sp]
8780118a:	e9dd 2c02 	ldrd	r2, ip, [sp, #8]
8780118e:	4540      	cmp	r0, r8
87801190:	f8dd e010 	ldr.w	lr, [sp, #16]
87801194:	d9c0      	bls.n	87801118 <lcd_showchar+0xb8>
87801196:	4654      	mov	r4, sl
87801198:	e7b6      	b.n	87801108 <lcd_showchar+0xa8>
8780119a:	bf00      	nop

8780119c <lcd_pow>:
8780119c:	1e4b      	subs	r3, r1, #1
8780119e:	4602      	mov	r2, r0
878011a0:	b2db      	uxtb	r3, r3
878011a2:	2001      	movs	r0, #1
878011a4:	b131      	cbz	r1, 878011b4 <lcd_pow+0x18>
878011a6:	3b01      	subs	r3, #1
878011a8:	fb02 f000 	mul.w	r0, r2, r0
878011ac:	b2db      	uxtb	r3, r3
878011ae:	2bff      	cmp	r3, #255	@ 0xff
878011b0:	d1f9      	bne.n	878011a6 <lcd_pow+0xa>
878011b2:	4770      	bx	lr
878011b4:	4770      	bx	lr
878011b6:	bf00      	nop

878011b8 <lcd_shownum>:
878011b8:	e92d 4ff0 	stmdb	sp!, {r4, r5, r6, r7, r8, r9, sl, fp, lr}
878011bc:	b085      	sub	sp, #20
878011be:	f89d e038 	ldrb.w	lr, [sp, #56]	@ 0x38
878011c2:	9102      	str	r1, [sp, #8]
878011c4:	2b00      	cmp	r3, #0
878011c6:	d03d      	beq.n	87801244 <lcd_shownum+0x8c>
878011c8:	1e9c      	subs	r4, r3, #2
878011ca:	2500      	movs	r5, #0
878011cc:	f64c 4acd 	movw	sl, #52429	@ 0xcccd
878011d0:	b2e4      	uxtb	r4, r4
878011d2:	ea4f 075e 	mov.w	r7, lr, lsr #1
878011d6:	4680      	mov	r8, r0
878011d8:	4693      	mov	fp, r2
878011da:	f8cd e00c 	str.w	lr, [sp, #12]
878011de:	4699      	mov	r9, r3
878011e0:	f6cc 4acc 	movt	sl, #52428	@ 0xcccc
878011e4:	462e      	mov	r6, r5
878011e6:	2cff      	cmp	r4, #255	@ 0xff
878011e8:	d02f      	beq.n	8780124a <lcd_shownum+0x92>
878011ea:	4623      	mov	r3, r4
878011ec:	2101      	movs	r1, #1
878011ee:	3b01      	subs	r3, #1
878011f0:	eb01 0181 	add.w	r1, r1, r1, lsl #2
878011f4:	b2db      	uxtb	r3, r3
878011f6:	0049      	lsls	r1, r1, #1
878011f8:	2bff      	cmp	r3, #255	@ 0xff
878011fa:	d1f8      	bne.n	878011ee <lcd_shownum+0x36>
878011fc:	4658      	mov	r0, fp
878011fe:	f003 f973 	bl	878044e8 <__udivsi3>
87801202:	fbaa 2300 	umull	r2, r3, sl, r0
87801206:	08db      	lsrs	r3, r3, #3
87801208:	eb03 0383 	add.w	r3, r3, r3, lsl #2
8780120c:	eba0 0343 	sub.w	r3, r0, r3, lsl #1
87801210:	b2da      	uxtb	r2, r3
87801212:	b92e      	cbnz	r6, 87801220 <lcd_shownum+0x68>
87801214:	f109 31ff 	add.w	r1, r9, #4294967295	@ 0xffffffff
87801218:	42a9      	cmp	r1, r5
8780121a:	dd01      	ble.n	87801220 <lcd_shownum+0x68>
8780121c:	b1bb      	cbz	r3, 8780124e <lcd_shownum+0x96>
8780121e:	2601      	movs	r6, #1
87801220:	2300      	movs	r3, #0
87801222:	3230      	adds	r2, #48	@ 0x30
87801224:	9300      	str	r3, [sp, #0]
87801226:	b2d2      	uxtb	r2, r2
87801228:	e9dd 1302 	ldrd	r1, r3, [sp, #8]
8780122c:	4640      	mov	r0, r8
8780122e:	f7ff ff17 	bl	87801060 <lcd_showchar>
87801232:	3501      	adds	r5, #1
87801234:	44b8      	add	r8, r7
87801236:	45a9      	cmp	r9, r5
87801238:	f104 34ff 	add.w	r4, r4, #4294967295	@ 0xffffffff
8780123c:	fa1f f888 	uxth.w	r8, r8
87801240:	b2e4      	uxtb	r4, r4
87801242:	d1d0      	bne.n	878011e6 <lcd_shownum+0x2e>
87801244:	b005      	add	sp, #20
87801246:	e8bd 8ff0 	ldmia.w	sp!, {r4, r5, r6, r7, r8, r9, sl, fp, pc}
8780124a:	4658      	mov	r0, fp
8780124c:	e7d9      	b.n	87801202 <lcd_shownum+0x4a>
8780124e:	9b03      	ldr	r3, [sp, #12]
87801250:	2220      	movs	r2, #32
87801252:	9902      	ldr	r1, [sp, #8]
87801254:	4640      	mov	r0, r8
87801256:	9600      	str	r6, [sp, #0]
87801258:	f7ff ff02 	bl	87801060 <lcd_showchar>
8780125c:	e7e9      	b.n	87801232 <lcd_shownum+0x7a>
8780125e:	bf00      	nop

87801260 <lcd_showxnum>:
87801260:	e92d 4ff0 	stmdb	sp!, {r4, r5, r6, r7, r8, r9, sl, fp, lr}
87801264:	b087      	sub	sp, #28
87801266:	e9cd 1202 	strd	r1, r2, [sp, #8]
8780126a:	f89d e040 	ldrb.w	lr, [sp, #64]	@ 0x40
8780126e:	f89d 2044 	ldrb.w	r2, [sp, #68]	@ 0x44
87801272:	2b00      	cmp	r3, #0
87801274:	d042      	beq.n	878012fc <lcd_showxnum+0x9c>
87801276:	1e9c      	subs	r4, r3, #2
87801278:	2600      	movs	r6, #0
8780127a:	f64c 4bcd 	movw	fp, #52429	@ 0xcccd
8780127e:	b2e4      	uxtb	r4, r4
87801280:	ea4f 095e 	mov.w	r9, lr, lsr #1
87801284:	461f      	mov	r7, r3
87801286:	4605      	mov	r5, r0
87801288:	b253      	sxtb	r3, r2
8780128a:	f6cc 4bcc 	movt	fp, #52428	@ 0xcccc
8780128e:	f8cd e010 	str.w	lr, [sp, #16]
87801292:	f002 0a01 	and.w	sl, r2, #1
87801296:	46b0      	mov	r8, r6
87801298:	9305      	str	r3, [sp, #20]
8780129a:	2cff      	cmp	r4, #255	@ 0xff
8780129c:	d03d      	beq.n	8780131a <lcd_showxnum+0xba>
8780129e:	4623      	mov	r3, r4
878012a0:	2101      	movs	r1, #1
878012a2:	3b01      	subs	r3, #1
878012a4:	eb01 0181 	add.w	r1, r1, r1, lsl #2
878012a8:	b2db      	uxtb	r3, r3
878012aa:	0049      	lsls	r1, r1, #1
878012ac:	2bff      	cmp	r3, #255	@ 0xff
878012ae:	d1f8      	bne.n	878012a2 <lcd_showxnum+0x42>
878012b0:	9803      	ldr	r0, [sp, #12]
878012b2:	f003 f919 	bl	878044e8 <__udivsi3>
878012b6:	fbab 2300 	umull	r2, r3, fp, r0
878012ba:	fa5f f18a 	uxtb.w	r1, sl
878012be:	08db      	lsrs	r3, r3, #3
878012c0:	eb03 0383 	add.w	r3, r3, r3, lsl #2
878012c4:	eba0 0343 	sub.w	r3, r0, r3, lsl #1
878012c8:	b2da      	uxtb	r2, r3
878012ca:	f1b8 0f00 	cmp.w	r8, #0
878012ce:	d105      	bne.n	878012dc <lcd_showxnum+0x7c>
878012d0:	1e78      	subs	r0, r7, #1
878012d2:	42b0      	cmp	r0, r6
878012d4:	dd02      	ble.n	878012dc <lcd_showxnum+0x7c>
878012d6:	b1a3      	cbz	r3, 87801302 <lcd_showxnum+0xa2>
878012d8:	f04f 0801 	mov.w	r8, #1
878012dc:	3230      	adds	r2, #48	@ 0x30
878012de:	9100      	str	r1, [sp, #0]
878012e0:	9b04      	ldr	r3, [sp, #16]
878012e2:	b2d2      	uxtb	r2, r2
878012e4:	9902      	ldr	r1, [sp, #8]
878012e6:	4628      	mov	r0, r5
878012e8:	f7ff feba 	bl	87801060 <lcd_showchar>
878012ec:	3601      	adds	r6, #1
878012ee:	444d      	add	r5, r9
878012f0:	42b7      	cmp	r7, r6
878012f2:	f104 34ff 	add.w	r4, r4, #4294967295	@ 0xffffffff
878012f6:	b2ad      	uxth	r5, r5
878012f8:	b2e4      	uxtb	r4, r4
878012fa:	d1ce      	bne.n	8780129a <lcd_showxnum+0x3a>
878012fc:	b007      	add	sp, #28
878012fe:	e8bd 8ff0 	ldmia.w	sp!, {r4, r5, r6, r7, r8, r9, sl, fp, pc}
87801302:	9b05      	ldr	r3, [sp, #20]
87801304:	4628      	mov	r0, r5
87801306:	9100      	str	r1, [sp, #0]
87801308:	9902      	ldr	r1, [sp, #8]
8780130a:	2b00      	cmp	r3, #0
8780130c:	9b04      	ldr	r3, [sp, #16]
8780130e:	bfb4      	ite	lt
87801310:	2230      	movlt	r2, #48	@ 0x30
87801312:	2220      	movge	r2, #32
87801314:	f7ff fea4 	bl	87801060 <lcd_showchar>
87801318:	e7e8      	b.n	878012ec <lcd_showxnum+0x8c>
8780131a:	9803      	ldr	r0, [sp, #12]
8780131c:	e7cb      	b.n	878012b6 <lcd_showxnum+0x56>
8780131e:	bf00      	nop

87801320 <lcd_show_string>:
87801320:	e92d 4ff0 	stmdb	sp!, {r4, r5, r6, r7, r8, r9, sl, fp, lr}
87801324:	b085      	sub	sp, #20
87801326:	9f0f      	ldr	r7, [sp, #60]	@ 0x3c
87801328:	4402      	add	r2, r0
8780132a:	fa1f fb82 	uxth.w	fp, r2
8780132e:	440b      	add	r3, r1
87801330:	fa1f fa83 	uxth.w	sl, r3
87801334:	f89d 6038 	ldrb.w	r6, [sp, #56]	@ 0x38
87801338:	783a      	ldrb	r2, [r7, #0]
8780133a:	f1a2 0320 	sub.w	r3, r2, #32
8780133e:	2b5e      	cmp	r3, #94	@ 0x5e
87801340:	d81f      	bhi.n	87801382 <lcd_show_string+0x62>
87801342:	b2c3      	uxtb	r3, r0
87801344:	ea4f 0956 	mov.w	r9, r6, lsr #1
87801348:	4604      	mov	r4, r0
8780134a:	460d      	mov	r5, r1
8780134c:	f04f 0800 	mov.w	r8, #0
87801350:	9303      	str	r3, [sp, #12]
87801352:	e00b      	b.n	8780136c <lcd_show_string+0x4c>
87801354:	f8cd 8000 	str.w	r8, [sp]
87801358:	444c      	add	r4, r9
8780135a:	f7ff fe81 	bl	87801060 <lcd_showchar>
8780135e:	f817 2f01 	ldrb.w	r2, [r7, #1]!
87801362:	b2a4      	uxth	r4, r4
87801364:	f1a2 0320 	sub.w	r3, r2, #32
87801368:	2b5e      	cmp	r3, #94	@ 0x5e
8780136a:	d80a      	bhi.n	87801382 <lcd_show_string+0x62>
8780136c:	45a3      	cmp	fp, r4
8780136e:	eb06 0105 	add.w	r1, r6, r5
87801372:	bf9c      	itt	ls
87801374:	b28d      	uxthls	r5, r1
87801376:	9c03      	ldrls	r4, [sp, #12]
87801378:	4633      	mov	r3, r6
8780137a:	4555      	cmp	r5, sl
8780137c:	4629      	mov	r1, r5
8780137e:	4620      	mov	r0, r4
87801380:	d3e8      	bcc.n	87801354 <lcd_show_string+0x34>
87801382:	b005      	add	sp, #20
87801384:	e8bd 8ff0 	ldmia.w	sp!, {r4, r5, r6, r7, r8, r9, sl, fp, pc}

87801388 <lcdclk_init>:
87801388:	f44f 4c00 	mov.w	ip, #32768	@ 0x8000
8780138c:	2300      	movs	r3, #0
8780138e:	f2c0 2c0c 	movt	ip, #524	@ 0x20c
87801392:	f440 1081 	orr.w	r0, r0, #1056768	@ 0x102000
87801396:	b510      	push	{r4, lr}
87801398:	f101 3eff 	add.w	lr, r1, #4294967295	@ 0xffffffff
8780139c:	f8cc 30b0 	str.w	r3, [ip, #176]	@ 0xb0
878013a0:	f8cc 30c0 	str.w	r3, [ip, #192]	@ 0xc0
878013a4:	f44f 4380 	mov.w	r3, #16384	@ 0x4000
878013a8:	f8cc 00a0 	str.w	r0, [ip, #160]	@ 0xa0
878013ac:	f2c0 230c 	movt	r3, #524	@ 0x20c
878013b0:	f8dc 4170 	ldr.w	r4, [ip, #368]	@ 0x170
878013b4:	1e50      	subs	r0, r2, #1
878013b6:	f024 4440 	bic.w	r4, r4, #3221225472	@ 0xc0000000
878013ba:	f8cc 4170 	str.w	r4, [ip, #368]	@ 0x170
878013be:	6b9a      	ldr	r2, [r3, #56]	@ 0x38
878013c0:	f422 3260 	bic.w	r2, r2, #229376	@ 0x38000
878013c4:	639a      	str	r2, [r3, #56]	@ 0x38
878013c6:	6b9a      	ldr	r2, [r3, #56]	@ 0x38
878013c8:	f442 3280 	orr.w	r2, r2, #65536	@ 0x10000
878013cc:	639a      	str	r2, [r3, #56]	@ 0x38
878013ce:	6b9a      	ldr	r2, [r3, #56]	@ 0x38
878013d0:	f422 42e0 	bic.w	r2, r2, #28672	@ 0x7000
878013d4:	639a      	str	r2, [r3, #56]	@ 0x38
878013d6:	6b99      	ldr	r1, [r3, #56]	@ 0x38
878013d8:	ea41 310e 	orr.w	r1, r1, lr, lsl #12
878013dc:	6399      	str	r1, [r3, #56]	@ 0x38
878013de:	699a      	ldr	r2, [r3, #24]
878013e0:	f022 7260 	bic.w	r2, r2, #58720256	@ 0x3800000
878013e4:	619a      	str	r2, [r3, #24]
878013e6:	699a      	ldr	r2, [r3, #24]
878013e8:	ea42 52c0 	orr.w	r2, r2, r0, lsl #23
878013ec:	619a      	str	r2, [r3, #24]
878013ee:	6b9a      	ldr	r2, [r3, #56]	@ 0x38
878013f0:	f422 6260 	bic.w	r2, r2, #3584	@ 0xe00
878013f4:	639a      	str	r2, [r3, #56]	@ 0x38
878013f6:	6b9a      	ldr	r2, [r3, #56]	@ 0x38
878013f8:	639a      	str	r2, [r3, #56]	@ 0x38
878013fa:	bd10      	pop	{r4, pc}

878013fc <lcd_reset>:
878013fc:	f44f 4300 	mov.w	r3, #32768	@ 0x8000
87801400:	f2c0 231c 	movt	r3, #540	@ 0x21c
87801404:	681a      	ldr	r2, [r3, #0]
87801406:	f042 4200 	orr.w	r2, r2, #2147483648	@ 0x80000000
8780140a:	601a      	str	r2, [r3, #0]
8780140c:	4770      	bx	lr
8780140e:	bf00      	nop

87801410 <lcd_noreset>:
87801410:	f44f 4300 	mov.w	r3, #32768	@ 0x8000
87801414:	f2c0 231c 	movt	r3, #540	@ 0x21c
87801418:	681a      	ldr	r2, [r3, #0]
8780141a:	f022 4200 	bic.w	r2, r2, #2147483648	@ 0x80000000
8780141e:	601a      	str	r2, [r3, #0]
87801420:	4770      	bx	lr
87801422:	bf00      	nop

87801424 <lcd_enable>:
87801424:	f44f 4300 	mov.w	r3, #32768	@ 0x8000
87801428:	f2c0 231c 	movt	r3, #540	@ 0x21c
8780142c:	681a      	ldr	r2, [r3, #0]
8780142e:	f042 0201 	orr.w	r2, r2, #1
87801432:	601a      	str	r2, [r3, #0]
87801434:	4770      	bx	lr
87801436:	bf00      	nop

87801438 <lcd_read_panelid>:
87801438:	b5f0      	push	{r4, r5, r6, r7, lr}
8780143a:	2400      	movs	r4, #0
8780143c:	b085      	sub	sp, #20
8780143e:	f2c0 240e 	movt	r4, #526	@ 0x20e
87801442:	2705      	movs	r7, #5
87801444:	f241 05b0 	movw	r5, #4272	@ 0x10b0
87801448:	f44f 4080 	mov.w	r0, #16384	@ 0x4000
8780144c:	2301      	movs	r3, #1
8780144e:	f8c4 7110 	str.w	r7, [r4, #272]	@ 0x110
87801452:	aa01      	add	r2, sp, #4
87801454:	f8c4 539c 	str.w	r5, [r4, #924]	@ 0x39c
87801458:	f2c0 200a 	movt	r0, #522	@ 0x20a
8780145c:	2103      	movs	r1, #3
8780145e:	9301      	str	r3, [sp, #4]
87801460:	f88d 3008 	strb.w	r3, [sp, #8]
87801464:	2600      	movs	r6, #0
87801466:	f7ff f911 	bl	8780068c <gpio_init>
8780146a:	f44f 4080 	mov.w	r0, #16384	@ 0x4000
8780146e:	f8c4 7134 	str.w	r7, [r4, #308]	@ 0x134
87801472:	aa01      	add	r2, sp, #4
87801474:	f8c4 7154 	str.w	r7, [r4, #340]	@ 0x154
87801478:	210c      	movs	r1, #12
8780147a:	f8c4 7174 	str.w	r7, [r4, #372]	@ 0x174
8780147e:	f2c0 200a 	movt	r0, #522	@ 0x20a
87801482:	f8c4 53c0 	str.w	r5, [r4, #960]	@ 0x3c0
87801486:	f8c4 53e0 	str.w	r5, [r4, #992]	@ 0x3e0
8780148a:	f8c4 5400 	str.w	r5, [r4, #1024]	@ 0x400
8780148e:	9601      	str	r6, [sp, #4]
87801490:	f7ff f8fc 	bl	8780068c <gpio_init>
87801494:	f44f 4080 	mov.w	r0, #16384	@ 0x4000
87801498:	aa01      	add	r2, sp, #4
8780149a:	2114      	movs	r1, #20
8780149c:	f2c0 200a 	movt	r0, #522	@ 0x20a
878014a0:	f7ff f8f4 	bl	8780068c <gpio_init>
878014a4:	f44f 4080 	mov.w	r0, #16384	@ 0x4000
878014a8:	aa01      	add	r2, sp, #4
878014aa:	211c      	movs	r1, #28
878014ac:	f2c0 200a 	movt	r0, #522	@ 0x20a
878014b0:	f7ff f8ec 	bl	8780068c <gpio_init>
878014b4:	f44f 4080 	mov.w	r0, #16384	@ 0x4000
878014b8:	211c      	movs	r1, #28
878014ba:	f2c0 200a 	movt	r0, #522	@ 0x20a
878014be:	f7ff f881 	bl	878005c4 <gpio_pinread>
878014c2:	4604      	mov	r4, r0
878014c4:	f44f 4080 	mov.w	r0, #16384	@ 0x4000
878014c8:	2114      	movs	r1, #20
878014ca:	b2e4      	uxtb	r4, r4
878014cc:	f2c0 200a 	movt	r0, #522	@ 0x20a
878014d0:	f7ff f878 	bl	878005c4 <gpio_pinread>
878014d4:	4603      	mov	r3, r0
878014d6:	f44f 4080 	mov.w	r0, #16384	@ 0x4000
878014da:	431c      	orrs	r4, r3
878014dc:	210c      	movs	r1, #12
878014de:	b2e4      	uxtb	r4, r4
878014e0:	f2c0 200a 	movt	r0, #522	@ 0x20a
878014e4:	f7ff f86e 	bl	878005c4 <gpio_pinread>
878014e8:	ea44 0300 	orr.w	r3, r4, r0
878014ec:	b2db      	uxtb	r3, r3
878014ee:	42bb      	cmp	r3, r7
878014f0:	bf97      	itett	ls
878014f2:	f249 1258 	movwls	r2, #37208	@ 0x9158
878014f6:	4630      	movhi	r0, r6
878014f8:	f2c8 7280 	movtls	r2, #34688	@ 0x8780
878014fc:	f832 0013 	ldrhls.w	r0, [r2, r3, lsl #1]
87801500:	b005      	add	sp, #20
87801502:	bdf0      	pop	{r4, r5, r6, r7, pc}

87801504 <lcdgpio_init>:
87801504:	2300      	movs	r3, #0
87801506:	b530      	push	{r4, r5, lr}
87801508:	461a      	mov	r2, r3
8780150a:	21b9      	movs	r1, #185	@ 0xb9
8780150c:	f2c0 230e 	movt	r3, #526	@ 0x20e
87801510:	b085      	sub	sp, #20
87801512:	2405      	movs	r4, #5
87801514:	f241 05b0 	movw	r5, #4272	@ 0x10b0
87801518:	f44f 4040 	mov.w	r0, #49152	@ 0xc000
8780151c:	f8c3 2118 	str.w	r2, [r3, #280]	@ 0x118
87801520:	f2c0 2009 	movt	r0, #521	@ 0x209
87801524:	f8c3 211c 	str.w	r2, [r3, #284]	@ 0x11c
87801528:	f8c3 2120 	str.w	r2, [r3, #288]	@ 0x120
8780152c:	f8c3 2124 	str.w	r2, [r3, #292]	@ 0x124
87801530:	f8c3 2128 	str.w	r2, [r3, #296]	@ 0x128
87801534:	f8c3 212c 	str.w	r2, [r3, #300]	@ 0x12c
87801538:	f8c3 2130 	str.w	r2, [r3, #304]	@ 0x130
8780153c:	f8c3 2134 	str.w	r2, [r3, #308]	@ 0x134
87801540:	f8c3 2138 	str.w	r2, [r3, #312]	@ 0x138
87801544:	f8c3 213c 	str.w	r2, [r3, #316]	@ 0x13c
87801548:	f8c3 2140 	str.w	r2, [r3, #320]	@ 0x140
8780154c:	f8c3 2144 	str.w	r2, [r3, #324]	@ 0x144
87801550:	f8c3 2148 	str.w	r2, [r3, #328]	@ 0x148
87801554:	f8c3 214c 	str.w	r2, [r3, #332]	@ 0x14c
87801558:	f8c3 2150 	str.w	r2, [r3, #336]	@ 0x150
8780155c:	f8c3 2154 	str.w	r2, [r3, #340]	@ 0x154
87801560:	f8c3 2158 	str.w	r2, [r3, #344]	@ 0x158
87801564:	f8c3 215c 	str.w	r2, [r3, #348]	@ 0x15c
87801568:	f8c3 2160 	str.w	r2, [r3, #352]	@ 0x160
8780156c:	f8c3 2164 	str.w	r2, [r3, #356]	@ 0x164
87801570:	f8c3 2168 	str.w	r2, [r3, #360]	@ 0x168
87801574:	f8c3 216c 	str.w	r2, [r3, #364]	@ 0x16c
87801578:	f8c3 2170 	str.w	r2, [r3, #368]	@ 0x170
8780157c:	f8c3 2174 	str.w	r2, [r3, #372]	@ 0x174
87801580:	f8c3 2104 	str.w	r2, [r3, #260]	@ 0x104
87801584:	f8c3 2108 	str.w	r2, [r3, #264]	@ 0x108
87801588:	f8c3 210c 	str.w	r2, [r3, #268]	@ 0x10c
8780158c:	f8c3 25dc 	str.w	r2, [r3, #1500]	@ 0x5dc
87801590:	f8c3 2110 	str.w	r2, [r3, #272]	@ 0x110
87801594:	aa01      	add	r2, sp, #4
87801596:	f8c3 13a4 	str.w	r1, [r3, #932]	@ 0x3a4
8780159a:	f8c3 13a8 	str.w	r1, [r3, #936]	@ 0x3a8
8780159e:	f8c3 13ac 	str.w	r1, [r3, #940]	@ 0x3ac
878015a2:	f8c3 13b0 	str.w	r1, [r3, #944]	@ 0x3b0
878015a6:	f8c3 13b4 	str.w	r1, [r3, #948]	@ 0x3b4
878015aa:	f8c3 13b8 	str.w	r1, [r3, #952]	@ 0x3b8
878015ae:	f8c3 13bc 	str.w	r1, [r3, #956]	@ 0x3bc
878015b2:	f8c3 13c0 	str.w	r1, [r3, #960]	@ 0x3c0
878015b6:	f8c3 13c4 	str.w	r1, [r3, #964]	@ 0x3c4
878015ba:	f8c3 13c8 	str.w	r1, [r3, #968]	@ 0x3c8
878015be:	f8c3 13cc 	str.w	r1, [r3, #972]	@ 0x3cc
878015c2:	f8c3 13d0 	str.w	r1, [r3, #976]	@ 0x3d0
878015c6:	f8c3 13d4 	str.w	r1, [r3, #980]	@ 0x3d4
878015ca:	f8c3 13d8 	str.w	r1, [r3, #984]	@ 0x3d8
878015ce:	f8c3 13dc 	str.w	r1, [r3, #988]	@ 0x3dc
878015d2:	f8c3 13e0 	str.w	r1, [r3, #992]	@ 0x3e0
878015d6:	f8c3 13e4 	str.w	r1, [r3, #996]	@ 0x3e4
878015da:	f8c3 13e8 	str.w	r1, [r3, #1000]	@ 0x3e8
878015de:	f8c3 13ec 	str.w	r1, [r3, #1004]	@ 0x3ec
878015e2:	f8c3 13f0 	str.w	r1, [r3, #1008]	@ 0x3f0
878015e6:	f8c3 13f4 	str.w	r1, [r3, #1012]	@ 0x3f4
878015ea:	f8c3 13f8 	str.w	r1, [r3, #1016]	@ 0x3f8
878015ee:	f8c3 13fc 	str.w	r1, [r3, #1020]	@ 0x3fc
878015f2:	f8c3 1400 	str.w	r1, [r3, #1024]	@ 0x400
878015f6:	f8c3 1390 	str.w	r1, [r3, #912]	@ 0x390
878015fa:	f8c3 1394 	str.w	r1, [r3, #916]	@ 0x394
878015fe:	f8c3 1398 	str.w	r1, [r3, #920]	@ 0x398
87801602:	f8c3 139c 	str.w	r1, [r3, #924]	@ 0x39c
87801606:	2108      	movs	r1, #8
87801608:	67dc      	str	r4, [r3, #124]	@ 0x7c
8780160a:	2401      	movs	r4, #1
8780160c:	f8c3 5308 	str.w	r5, [r3, #776]	@ 0x308
87801610:	9401      	str	r4, [sp, #4]
87801612:	f88d 4008 	strb.w	r4, [sp, #8]
87801616:	f7ff f839 	bl	8780068c <gpio_init>
8780161a:	b005      	add	sp, #20
8780161c:	bd30      	pop	{r4, r5, pc}
8780161e:	bf00      	nop

87801620 <lcd_init>:
87801620:	b5f8      	push	{r3, r4, r5, r6, r7, lr}
87801622:	f44f 4500 	mov.w	r5, #32768	@ 0x8000
87801626:	f7ff ff07 	bl	87801438 <lcd_read_panelid>
8780162a:	4604      	mov	r4, r0
8780162c:	f644 10b0 	movw	r0, #18864	@ 0x49b0
87801630:	f2c0 251c 	movt	r5, #540	@ 0x21c
87801634:	4621      	mov	r1, r4
87801636:	f2c8 7080 	movt	r0, #34688	@ 0x8780
8780163a:	f001 fb87 	bl	87802d4c <printf>
8780163e:	f7ff ff61 	bl	87801504 <lcdgpio_init>
87801642:	682b      	ldr	r3, [r5, #0]
87801644:	200a      	movs	r0, #10
87801646:	f043 4300 	orr.w	r3, r3, #2147483648	@ 0x80000000
8780164a:	602b      	str	r3, [r5, #0]
8780164c:	f7ff fbe0 	bl	87800e10 <delay_ms>
87801650:	682b      	ldr	r3, [r5, #0]
87801652:	f244 3242 	movw	r2, #17218	@ 0x4342
87801656:	4294      	cmp	r4, r2
87801658:	f023 4300 	bic.w	r3, r3, #2147483648	@ 0x80000000
8780165c:	602b      	str	r3, [r5, #0]
8780165e:	d074      	beq.n	8780174a <lcd_init+0x12a>
87801660:	f244 3384 	movw	r3, #17284	@ 0x4384
87801664:	429c      	cmp	r4, r3
87801666:	f000 80c6 	beq.w	878017f6 <lcd_init+0x1d6>
8780166a:	f247 0384 	movw	r3, #28804	@ 0x7084
8780166e:	429c      	cmp	r4, r3
87801670:	f000 80ee 	beq.w	87801850 <lcd_init+0x230>
87801674:	f247 0316 	movw	r3, #28694	@ 0x7016
87801678:	429c      	cmp	r4, r3
8780167a:	f249 74d0 	movw	r4, #38864	@ 0x97d0
8780167e:	f000 808f 	beq.w	878017a0 <lcd_init+0x180>
87801682:	f2c8 7480 	movt	r4, #34688	@ 0x8780
87801686:	8867      	ldrh	r7, [r4, #2]
87801688:	8823      	ldrh	r3, [r4, #0]
8780168a:	f8b4 c006 	ldrh.w	ip, [r4, #6]
8780168e:	89a2      	ldrh	r2, [r4, #12]
87801690:	8965      	ldrh	r5, [r4, #10]
87801692:	8a21      	ldrh	r1, [r4, #16]
87801694:	ea47 4e03 	orr.w	lr, r7, r3, lsl #16
87801698:	8926      	ldrh	r6, [r4, #8]
8780169a:	eb03 000c 	add.w	r0, r3, ip
8780169e:	89e3      	ldrh	r3, [r4, #14]
878016a0:	4428      	add	r0, r5
878016a2:	18bd      	adds	r5, r7, r2
878016a4:	f447 2780 	orr.w	r7, r7, #262144	@ 0x40000
878016a8:	440d      	add	r5, r1
878016aa:	4430      	add	r0, r6
878016ac:	441d      	add	r5, r3
878016ae:	4466      	add	r6, ip
878016b0:	4413      	add	r3, r2
878016b2:	ea45 4582 	orr.w	r5, r5, r2, lsl #18
878016b6:	ea46 4603 	orr.w	r6, r6, r3, lsl #16
878016ba:	4b87      	ldr	r3, [pc, #540]	@ (878018d8 <lcd_init+0x2b8>)
878016bc:	2200      	movs	r2, #0
878016be:	eddf 0b7c 	vldr	d16, [pc, #496]	@ 878018b0 <lcd_init+0x290>
878016c2:	2104      	movs	r1, #4
878016c4:	61e2      	str	r2, [r4, #28]
878016c6:	7121      	strb	r1, [r4, #4]
878016c8:	f943 078f 	vst1.32	{d16}, [r3]
878016cc:	f44f 4300 	mov.w	r3, #32768	@ 0x8000
878016d0:	f2c0 231c 	movt	r3, #540	@ 0x21c
878016d4:	601a      	str	r2, [r3, #0]
878016d6:	6819      	ldr	r1, [r3, #0]
878016d8:	f441 2120 	orr.w	r1, r1, #655360	@ 0xa0000
878016dc:	f441 6172 	orr.w	r1, r1, #3872	@ 0xf20
878016e0:	6019      	str	r1, [r3, #0]
878016e2:	611a      	str	r2, [r3, #16]
878016e4:	6919      	ldr	r1, [r3, #16]
878016e6:	f441 21e0 	orr.w	r1, r1, #458752	@ 0x70000
878016ea:	6119      	str	r1, [r3, #16]
878016ec:	631a      	str	r2, [r3, #48]	@ 0x30
878016ee:	6b19      	ldr	r1, [r3, #48]	@ 0x30
878016f0:	ea41 010e 	orr.w	r1, r1, lr
878016f4:	6319      	str	r1, [r3, #48]	@ 0x30
878016f6:	671a      	str	r2, [r3, #112]	@ 0x70
878016f8:	6f1a      	ldr	r2, [r3, #112]	@ 0x70
878016fa:	ea42 020c 	orr.w	r2, r2, ip
878016fe:	f042 5289 	orr.w	r2, r2, #287309824	@ 0x11200000
87801702:	f442 1280 	orr.w	r2, r2, #1048576	@ 0x100000
87801706:	671a      	str	r2, [r3, #112]	@ 0x70
87801708:	f04f 4209 	mov.w	r2, #2298478592	@ 0x89000000
8780170c:	f8c3 0080 	str.w	r0, [r3, #128]	@ 0x80
87801710:	200a      	movs	r0, #10
87801712:	f8c3 5090 	str.w	r5, [r3, #144]	@ 0x90
87801716:	f8c3 60a0 	str.w	r6, [r3, #160]	@ 0xa0
8780171a:	f8c3 70b0 	str.w	r7, [r3, #176]	@ 0xb0
8780171e:	641a      	str	r2, [r3, #64]	@ 0x40
87801720:	651a      	str	r2, [r3, #80]	@ 0x50
87801722:	681a      	ldr	r2, [r3, #0]
87801724:	f042 0201 	orr.w	r2, r2, #1
87801728:	601a      	str	r2, [r3, #0]
8780172a:	f7ff fb71 	bl	87800e10 <delay_ms>
8780172e:	8862      	ldrh	r2, [r4, #2]
87801730:	8821      	ldrh	r1, [r4, #0]
87801732:	6963      	ldr	r3, [r4, #20]
87801734:	1852      	adds	r2, r2, r1
87801736:	d007      	beq.n	87801748 <lcd_init+0x128>
87801738:	eb03 0282 	add.w	r2, r3, r2, lsl #2
8780173c:	f06f 417f 	mvn.w	r1, #4278190080	@ 0xff000000
87801740:	f843 1b04 	str.w	r1, [r3], #4
87801744:	429a      	cmp	r2, r3
87801746:	d1fb      	bne.n	87801740 <lcd_init+0x120>
87801748:	bdf8      	pop	{r3, r4, r5, r6, r7, pc}
8780174a:	f249 74d0 	movw	r4, #38864	@ 0x97d0
8780174e:	f44f 7088 	mov.w	r0, #272	@ 0x110
87801752:	f2c8 7480 	movt	r4, #34688	@ 0x8780
87801756:	2128      	movs	r1, #40	@ 0x28
87801758:	4623      	mov	r3, r4
8780175a:	2208      	movs	r2, #8
8780175c:	f2c0 10e0 	movt	r0, #480	@ 0x1e0
87801760:	f2c0 0105 	movt	r1, #5
87801764:	eddf 0b54 	vldr	d16, [pc, #336]	@ 878018b8 <lcd_init+0x298>
87801768:	f44f 77f0 	mov.w	r7, #480	@ 0x1e0
8780176c:	f843 0b06 	str.w	r0, [r3], #6
87801770:	201b      	movs	r0, #27
87801772:	f8c4 100e 	str.w	r1, [r4, #14]
87801776:	4611      	mov	r1, r2
87801778:	2608      	movs	r6, #8
8780177a:	f943 074f 	vst1.16	{d16}, [r3]
8780177e:	f7ff fe03 	bl	87801388 <lcdclk_init>
87801782:	f44f 7ef0 	mov.w	lr, #480	@ 0x1e0
87801786:	f2c0 0704 	movt	r7, #4
8780178a:	f2c0 0628 	movt	r6, #40	@ 0x28
8780178e:	f240 250d 	movw	r5, #525	@ 0x20d
87801792:	f44f 7090 	mov.w	r0, #288	@ 0x120
87801796:	f2c0 1e10 	movt	lr, #272	@ 0x110
8780179a:	f04f 0c00 	mov.w	ip, #0
8780179e:	e78c      	b.n	878016ba <lcd_init+0x9a>
878017a0:	f2c8 7480 	movt	r4, #34688	@ 0x8780
878017a4:	f44f 7016 	mov.w	r0, #600	@ 0x258
878017a8:	218c      	movs	r1, #140	@ 0x8c
878017aa:	4623      	mov	r3, r4
878017ac:	f2c0 4000 	movt	r0, #1024	@ 0x400
878017b0:	f2c0 01a0 	movt	r1, #160	@ 0xa0
878017b4:	eddf 0b42 	vldr	d16, [pc, #264]	@ 878018c0 <lcd_init+0x2a0>
878017b8:	2205      	movs	r2, #5
878017ba:	f843 0b06 	str.w	r0, [r3], #6
878017be:	2020      	movs	r0, #32
878017c0:	f8c4 100e 	str.w	r1, [r4, #14]
878017c4:	2103      	movs	r1, #3
878017c6:	f44f 6780 	mov.w	r7, #1024	@ 0x400
878017ca:	2617      	movs	r6, #23
878017cc:	f44f 65a8 	mov.w	r5, #1344	@ 0x540
878017d0:	f943 074f 	vst1.16	{d16}, [r3]
878017d4:	f7ff fdd8 	bl	87801388 <lcdclk_init>
878017d8:	f44f 6e80 	mov.w	lr, #1024	@ 0x400
878017dc:	f2c0 0704 	movt	r7, #4
878017e0:	f2c0 06a0 	movt	r6, #160	@ 0xa0
878017e4:	f2c0 0550 	movt	r5, #80	@ 0x50
878017e8:	f240 207b 	movw	r0, #635	@ 0x27b
878017ec:	f2c0 2e58 	movt	lr, #600	@ 0x258
878017f0:	f04f 0c03 	mov.w	ip, #3
878017f4:	e761      	b.n	878016ba <lcd_init+0x9a>
878017f6:	f249 74d0 	movw	r4, #38864	@ 0x97d0
878017fa:	f44f 70f0 	mov.w	r0, #480	@ 0x1e0
878017fe:	f2c8 7480 	movt	r4, #34688	@ 0x8780
87801802:	2158      	movs	r1, #88	@ 0x58
87801804:	4623      	mov	r3, r4
87801806:	f2c0 3020 	movt	r0, #800	@ 0x320
8780180a:	f2c0 0128 	movt	r1, #40	@ 0x28
8780180e:	eddf 0b2e 	vldr	d16, [pc, #184]	@ 878018c8 <lcd_init+0x2a8>
87801812:	f843 0b06 	str.w	r0, [r3], #6
87801816:	2208      	movs	r2, #8
87801818:	202a      	movs	r0, #42	@ 0x2a
8780181a:	f8c4 100e 	str.w	r1, [r4, #14]
8780181e:	2104      	movs	r1, #4
87801820:	f44f 7748 	mov.w	r7, #800	@ 0x320
87801824:	2623      	movs	r6, #35	@ 0x23
87801826:	f44f 7574 	mov.w	r5, #976	@ 0x3d0
8780182a:	f943 074f 	vst1.16	{d16}, [r3]
8780182e:	f2c0 0704 	movt	r7, #4
87801832:	f7ff fda9 	bl	87801388 <lcdclk_init>
87801836:	f44f 7e48 	mov.w	lr, #800	@ 0x320
8780183a:	f2c0 0688 	movt	r6, #136	@ 0x88
8780183e:	f2c0 05c0 	movt	r5, #192	@ 0xc0
87801842:	f44f 7004 	mov.w	r0, #528	@ 0x210
87801846:	f2c0 1ee0 	movt	lr, #480	@ 0x1e0
8780184a:	f04f 0c03 	mov.w	ip, #3
8780184e:	e734      	b.n	878016ba <lcd_init+0x9a>
87801850:	f249 74d0 	movw	r4, #38864	@ 0x97d0
87801854:	f44f 70f0 	mov.w	r0, #480	@ 0x1e0
87801858:	f2c8 7480 	movt	r4, #34688	@ 0x8780
8780185c:	212e      	movs	r1, #46	@ 0x2e
8780185e:	4623      	mov	r3, r4
87801860:	f2c0 3020 	movt	r0, #800	@ 0x320
87801864:	f2c0 01d2 	movt	r1, #210	@ 0xd2
87801868:	eddf 0b19 	vldr	d16, [pc, #100]	@ 878018d0 <lcd_init+0x2b0>
8780186c:	f843 0b06 	str.w	r0, [r3], #6
87801870:	2207      	movs	r2, #7
87801872:	2022      	movs	r0, #34	@ 0x22
87801874:	f8c4 100e 	str.w	r1, [r4, #14]
87801878:	2103      	movs	r1, #3
8780187a:	f44f 7748 	mov.w	r7, #800	@ 0x320
8780187e:	2618      	movs	r6, #24
87801880:	f240 4521 	movw	r5, #1057	@ 0x421
87801884:	f943 074f 	vst1.16	{d16}, [r3]
87801888:	f2c0 0704 	movt	r7, #4
8780188c:	f7ff fd7c 	bl	87801388 <lcdclk_init>
87801890:	f44f 7e48 	mov.w	lr, #800	@ 0x320
87801894:	f2c0 062f 	movt	r6, #47	@ 0x2f
87801898:	f2c0 0504 	movt	r5, #4
8780189c:	f240 200e 	movw	r0, #526	@ 0x20e
878018a0:	f2c0 1ee0 	movt	lr, #480	@ 0x1e0
878018a4:	f04f 0c01 	mov.w	ip, #1
878018a8:	e707      	b.n	878016ba <lcd_init+0x9a>
878018aa:	bf00      	nop
878018ac:	f3af 8000 	nop.w
878018b0:	89000000 	stmdbhi	r0, {}	@ <UNPREDICTABLE>
878018b4:	00ffffff 	ldrshteq	pc, [pc], #255	@ <UNPREDICTABLE>
878018b8:	00080000 	andeq	r0, r8, r0
878018bc:	00000008 	andeq	r0, r0, r8
878018c0:	00140003 	andseq	r0, r4, r3
878018c4:	0014000c 	andseq	r0, r4, ip
878018c8:	00200003 	eoreq	r0, r0, r3
878018cc:	0030000d 	eorseq	r0, r0, sp
878018d0:	00170001 	andseq	r0, r7, r1
878018d4:	00010016 	andeq	r0, r1, r6, lsl r0
878018d8:	878097e4 	strhi	r9, [r0, r4, ror #15]

878018dc <lcd_drawpoint>:
878018dc:	f249 73d0 	movw	r3, #38864	@ 0x97d0
878018e0:	f2c8 7380 	movt	r3, #34688	@ 0x8780
878018e4:	f8b3 c002 	ldrh.w	ip, [r3, #2]
878018e8:	fb01 000c 	mla	r0, r1, ip, r0
878018ec:	7919      	ldrb	r1, [r3, #4]
878018ee:	695b      	ldr	r3, [r3, #20]
878018f0:	fb01 f000 	mul.w	r0, r1, r0
878018f4:	50c2      	str	r2, [r0, r3]
878018f6:	4770      	bx	lr

878018f8 <lcd_readpoint>:
878018f8:	f249 73d0 	movw	r3, #38864	@ 0x97d0
878018fc:	f2c8 7380 	movt	r3, #34688	@ 0x8780
87801900:	f8b3 c002 	ldrh.w	ip, [r3, #2]
87801904:	791a      	ldrb	r2, [r3, #4]
87801906:	695b      	ldr	r3, [r3, #20]
87801908:	fb01 000c 	mla	r0, r1, ip, r0
8780190c:	fb02 f000 	mul.w	r0, r2, r0
87801910:	58c0      	ldr	r0, [r0, r3]
87801912:	4770      	bx	lr

87801914 <lcd_clear>:
87801914:	f249 73d0 	movw	r3, #38864	@ 0x97d0
87801918:	f2c8 7380 	movt	r3, #34688	@ 0x8780
8780191c:	885a      	ldrh	r2, [r3, #2]
8780191e:	8819      	ldrh	r1, [r3, #0]
87801920:	695b      	ldr	r3, [r3, #20]
87801922:	1852      	adds	r2, r2, r1
87801924:	d005      	beq.n	87801932 <lcd_clear+0x1e>
87801926:	eb03 0282 	add.w	r2, r3, r2, lsl #2
8780192a:	f843 0b04 	str.w	r0, [r3], #4
8780192e:	4293      	cmp	r3, r2
87801930:	d1fb      	bne.n	8780192a <lcd_clear+0x16>
87801932:	4770      	bx	lr

87801934 <lcd_fill>:
87801934:	e92d 43f0 	stmdb	sp!, {r4, r5, r6, r7, r8, r9, lr}
87801938:	460d      	mov	r5, r1
8780193a:	f249 71d0 	movw	r1, #38864	@ 0x97d0
8780193e:	4699      	mov	r9, r3
87801940:	f2c8 7180 	movt	r1, #34688	@ 0x8780
87801944:	4606      	mov	r6, r0
87801946:	f8b1 8002 	ldrh.w	r8, [r1, #2]
8780194a:	880b      	ldrh	r3, [r1, #0]
8780194c:	9c07      	ldr	r4, [sp, #28]
8780194e:	4590      	cmp	r8, r2
87801950:	bf9c      	itt	ls
87801952:	f108 32ff 	addls.w	r2, r8, #4294967295	@ 0xffffffff
87801956:	b292      	uxthls	r2, r2
87801958:	454b      	cmp	r3, r9
8780195a:	bf9c      	itt	ls
8780195c:	f103 33ff 	addls.w	r3, r3, #4294967295	@ 0xffffffff
87801960:	fa1f f983 	uxthls.w	r9, r3
87801964:	45a9      	cmp	r9, r5
87801966:	d316      	bcc.n	87801996 <lcd_fill+0x62>
87801968:	7908      	ldrb	r0, [r1, #4]
8780196a:	42b2      	cmp	r2, r6
8780196c:	d30f      	bcc.n	8780198e <lcd_fill+0x5a>
8780196e:	fb05 f308 	mul.w	r3, r5, r8
87801972:	46b4      	mov	ip, r6
87801974:	eb0c 0e03 	add.w	lr, ip, r3
87801978:	f10c 0c01 	add.w	ip, ip, #1
8780197c:	fb00 fe0e 	mul.w	lr, r0, lr
87801980:	fa1f fc8c 	uxth.w	ip, ip
87801984:	694f      	ldr	r7, [r1, #20]
87801986:	4562      	cmp	r2, ip
87801988:	f84e 4007 	str.w	r4, [lr, r7]
8780198c:	d2f2      	bcs.n	87801974 <lcd_fill+0x40>
8780198e:	3501      	adds	r5, #1
87801990:	b2ad      	uxth	r5, r5
87801992:	45a9      	cmp	r9, r5
87801994:	d2e9      	bcs.n	8780196a <lcd_fill+0x36>
87801996:	e8bd 83f0 	ldmia.w	sp!, {r4, r5, r6, r7, r8, r9, pc}
8780199a:	bf00      	nop

8780199c <rtc_enable>:
8780199c:	f44f 4240 	mov.w	r2, #49152	@ 0xc000
878019a0:	f2c0 220c 	movt	r2, #524	@ 0x20c
878019a4:	6b93      	ldr	r3, [r2, #56]	@ 0x38
878019a6:	f043 0301 	orr.w	r3, r3, #1
878019aa:	6393      	str	r3, [r2, #56]	@ 0x38
878019ac:	6b93      	ldr	r3, [r2, #56]	@ 0x38
878019ae:	07db      	lsls	r3, r3, #31
878019b0:	d5fc      	bpl.n	878019ac <rtc_enable+0x10>
878019b2:	4770      	bx	lr

878019b4 <rtc_disable>:
878019b4:	f44f 4240 	mov.w	r2, #49152	@ 0xc000
878019b8:	f2c0 220c 	movt	r2, #524	@ 0x20c
878019bc:	6b93      	ldr	r3, [r2, #56]	@ 0x38
878019be:	f023 0301 	bic.w	r3, r3, #1
878019c2:	6393      	str	r3, [r2, #56]	@ 0x38
878019c4:	6b93      	ldr	r3, [r2, #56]	@ 0x38
878019c6:	07db      	lsls	r3, r3, #31
878019c8:	d4fc      	bmi.n	878019c4 <rtc_disable+0x10>
878019ca:	4770      	bx	lr

878019cc <rtc_coverdate_to_seconds>:
878019cc:	e92d 41f0 	stmdb	sp!, {r4, r5, r6, r7, r8, lr}
878019d0:	f249 1664 	movw	r6, #37220	@ 0x9164
878019d4:	7884      	ldrb	r4, [r0, #2]
878019d6:	b088      	sub	sp, #32
878019d8:	ab08      	add	r3, sp, #32
878019da:	f2c8 7680 	movt	r6, #34688	@ 0x8780
878019de:	f8b0 c000 	ldrh.w	ip, [r0]
878019e2:	4686      	mov	lr, r0
878019e4:	ad01      	add	r5, sp, #4
878019e6:	f240 77b2 	movw	r7, #1970	@ 0x7b2
878019ea:	eb03 0844 	add.w	r8, r3, r4, lsl #1
878019ee:	ce0f      	ldmia	r6!, {r0, r1, r2, r3}
878019f0:	45bc      	cmp	ip, r7
878019f2:	c50f      	stmia	r5!, {r0, r1, r2, r3}
878019f4:	e896 0007 	ldmia.w	r6, {r0, r1, r2}
878019f8:	c503      	stmia	r5!, {r0, r1}
878019fa:	802a      	strh	r2, [r5, #0]
878019fc:	f838 5c1c 	ldrh.w	r5, [r8, #-28]
87801a00:	d931      	bls.n	87801a66 <rtc_coverdate_to_seconds+0x9a>
87801a02:	463a      	mov	r2, r7
87801a04:	2100      	movs	r1, #0
87801a06:	eb02 0382 	add.w	r3, r2, r2, lsl #2
87801a0a:	f201 106d 	addw	r0, r1, #365	@ 0x16d
87801a0e:	f501 71b7 	add.w	r1, r1, #366	@ 0x16e
87801a12:	eb02 03c3 	add.w	r3, r2, r3, lsl #3
87801a16:	eba3 2383 	sub.w	r3, r3, r3, lsl #10
87801a1a:	b29f      	uxth	r7, r3
87801a1c:	031e      	lsls	r6, r3, #12
87801a1e:	ea46 1617 	orr.w	r6, r6, r7, lsr #4
87801a22:	b2b6      	uxth	r6, r6
87801a24:	2ea3      	cmp	r6, #163	@ 0xa3
87801a26:	d909      	bls.n	87801a3c <rtc_coverdate_to_seconds+0x70>
87801a28:	039b      	lsls	r3, r3, #14
87801a2a:	f012 0f03 	tst.w	r2, #3
87801a2e:	ea43 0397 	orr.w	r3, r3, r7, lsr #2
87801a32:	d134      	bne.n	87801a9e <rtc_coverdate_to_seconds+0xd2>
87801a34:	b29b      	uxth	r3, r3
87801a36:	f5b3 7f24 	cmp.w	r3, #656	@ 0x290
87801a3a:	d330      	bcc.n	87801a9e <rtc_coverdate_to_seconds+0xd2>
87801a3c:	3201      	adds	r2, #1
87801a3e:	b292      	uxth	r2, r2
87801a40:	4562      	cmp	r2, ip
87801a42:	d1e0      	bne.n	87801a06 <rtc_coverdate_to_seconds+0x3a>
87801a44:	eb02 0382 	add.w	r3, r2, r2, lsl #2
87801a48:	440d      	add	r5, r1
87801a4a:	eb02 03c3 	add.w	r3, r2, r3, lsl #3
87801a4e:	eba3 2383 	sub.w	r3, r3, r3, lsl #10
87801a52:	b298      	uxth	r0, r3
87801a54:	0319      	lsls	r1, r3, #12
87801a56:	ea41 1110 	orr.w	r1, r1, r0, lsr #4
87801a5a:	b289      	uxth	r1, r1
87801a5c:	29a3      	cmp	r1, #163	@ 0xa3
87801a5e:	d824      	bhi.n	87801aaa <rtc_coverdate_to_seconds+0xde>
87801a60:	2c02      	cmp	r4, #2
87801a62:	bf88      	it	hi
87801a64:	3501      	addhi	r5, #1
87801a66:	f89e 3005 	ldrb.w	r3, [lr, #5]
87801a6a:	f44f 6161 	mov.w	r1, #3600	@ 0xe10
87801a6e:	f89e 2004 	ldrb.w	r2, [lr, #4]
87801a72:	f44f 40a3 	mov.w	r0, #20864	@ 0x5180
87801a76:	f2c0 0001 	movt	r0, #1
87801a7a:	ebc3 1303 	rsb	r3, r3, r3, lsl #4
87801a7e:	009b      	lsls	r3, r3, #2
87801a80:	fb01 3302 	mla	r3, r1, r2, r3
87801a84:	f89e 2003 	ldrb.w	r2, [lr, #3]
87801a88:	f89e 1006 	ldrb.w	r1, [lr, #6]
87801a8c:	3a01      	subs	r2, #1
87801a8e:	440b      	add	r3, r1
87801a90:	442a      	add	r2, r5
87801a92:	fb00 3002 	mla	r0, r0, r2, r3
87801a96:	2100      	movs	r1, #0
87801a98:	b008      	add	sp, #32
87801a9a:	e8bd 81f0 	ldmia.w	sp!, {r4, r5, r6, r7, r8, pc}
87801a9e:	3201      	adds	r2, #1
87801aa0:	4601      	mov	r1, r0
87801aa2:	b292      	uxth	r2, r2
87801aa4:	4562      	cmp	r2, ip
87801aa6:	d1ae      	bne.n	87801a06 <rtc_coverdate_to_seconds+0x3a>
87801aa8:	e7cc      	b.n	87801a44 <rtc_coverdate_to_seconds+0x78>
87801aaa:	0792      	lsls	r2, r2, #30
87801aac:	d1db      	bne.n	87801a66 <rtc_coverdate_to_seconds+0x9a>
87801aae:	039b      	lsls	r3, r3, #14
87801ab0:	ea43 0390 	orr.w	r3, r3, r0, lsr #2
87801ab4:	b29b      	uxth	r3, r3
87801ab6:	f5b3 7f24 	cmp.w	r3, #656	@ 0x290
87801aba:	d3d4      	bcc.n	87801a66 <rtc_coverdate_to_seconds+0x9a>
87801abc:	e7d0      	b.n	87801a60 <rtc_coverdate_to_seconds+0x94>
87801abe:	bf00      	nop

87801ac0 <rtc_setdatatime>:
87801ac0:	b538      	push	{r3, r4, r5, lr}
87801ac2:	f44f 4440 	mov.w	r4, #49152	@ 0xc000
87801ac6:	f2c0 240c 	movt	r4, #524	@ 0x20c
87801aca:	6ba5      	ldr	r5, [r4, #56]	@ 0x38
87801acc:	6ba3      	ldr	r3, [r4, #56]	@ 0x38
87801ace:	f023 0301 	bic.w	r3, r3, #1
87801ad2:	63a3      	str	r3, [r4, #56]	@ 0x38
87801ad4:	6ba3      	ldr	r3, [r4, #56]	@ 0x38
87801ad6:	07d9      	lsls	r1, r3, #31
87801ad8:	d4fc      	bmi.n	87801ad4 <rtc_setdatatime+0x14>
87801ada:	f7ff ff77 	bl	878019cc <rtc_coverdate_to_seconds>
87801ade:	0c43      	lsrs	r3, r0, #17
87801ae0:	07ea      	lsls	r2, r5, #31
87801ae2:	ea4f 30c0 	mov.w	r0, r0, lsl #15
87801ae6:	ea43 33c1 	orr.w	r3, r3, r1, lsl #15
87801aea:	6523      	str	r3, [r4, #80]	@ 0x50
87801aec:	6560      	str	r0, [r4, #84]	@ 0x54
87801aee:	d50a      	bpl.n	87801b06 <rtc_setdatatime+0x46>
87801af0:	6ba3      	ldr	r3, [r4, #56]	@ 0x38
87801af2:	f44f 4240 	mov.w	r2, #49152	@ 0xc000
87801af6:	f2c0 220c 	movt	r2, #524	@ 0x20c
87801afa:	f043 0301 	orr.w	r3, r3, #1
87801afe:	63a3      	str	r3, [r4, #56]	@ 0x38
87801b00:	6b93      	ldr	r3, [r2, #56]	@ 0x38
87801b02:	07db      	lsls	r3, r3, #31
87801b04:	d5fc      	bpl.n	87801b00 <rtc_setdatatime+0x40>
87801b06:	bd38      	pop	{r3, r4, r5, pc}

87801b08 <rtc_init>:
87801b08:	b510      	push	{r4, lr}
87801b0a:	f44f 4440 	mov.w	r4, #49152	@ 0xc000
87801b0e:	f2c0 240c 	movt	r4, #524	@ 0x20c
87801b12:	b082      	sub	sp, #8
87801b14:	f44f 60fd 	mov.w	r0, #2024	@ 0x7e8
87801b18:	2103      	movs	r1, #3
87801b1a:	6863      	ldr	r3, [r4, #4]
87801b1c:	f240 6211 	movw	r2, #1553	@ 0x611
87801b20:	f043 4300 	orr.w	r3, r3, #2147483648	@ 0x80000000
87801b24:	f443 7380 	orr.w	r3, r3, #256	@ 0x100
87801b28:	6063      	str	r3, [r4, #4]
87801b2a:	2300      	movs	r3, #0
87801b2c:	f8ad 0000 	strh.w	r0, [sp]
87801b30:	4668      	mov	r0, sp
87801b32:	f88d 3006 	strb.w	r3, [sp, #6]
87801b36:	f88d 1002 	strb.w	r1, [sp, #2]
87801b3a:	f8ad 2004 	strh.w	r2, [sp, #4]
87801b3e:	f7ff ffbf 	bl	87801ac0 <rtc_setdatatime>
87801b42:	6ba3      	ldr	r3, [r4, #56]	@ 0x38
87801b44:	f043 0301 	orr.w	r3, r3, #1
87801b48:	63a3      	str	r3, [r4, #56]	@ 0x38
87801b4a:	6ba3      	ldr	r3, [r4, #56]	@ 0x38
87801b4c:	07db      	lsls	r3, r3, #31
87801b4e:	d5fc      	bpl.n	87801b4a <rtc_init+0x42>
87801b50:	b002      	add	sp, #8
87801b52:	bd10      	pop	{r4, pc}

87801b54 <rtc_isleapyear>:
87801b54:	eb00 0380 	add.w	r3, r0, r0, lsl #2
87801b58:	eb00 03c3 	add.w	r3, r0, r3, lsl #3
87801b5c:	eba3 2383 	sub.w	r3, r3, r3, lsl #10
87801b60:	b299      	uxth	r1, r3
87801b62:	031a      	lsls	r2, r3, #12
87801b64:	ea42 1211 	orr.w	r2, r2, r1, lsr #4
87801b68:	b292      	uxth	r2, r2
87801b6a:	2aa3      	cmp	r2, #163	@ 0xa3
87801b6c:	d90b      	bls.n	87801b86 <rtc_isleapyear+0x32>
87801b6e:	0782      	lsls	r2, r0, #30
87801b70:	d10b      	bne.n	87801b8a <rtc_isleapyear+0x36>
87801b72:	0398      	lsls	r0, r3, #14
87801b74:	ea40 0091 	orr.w	r0, r0, r1, lsr #2
87801b78:	b280      	uxth	r0, r0
87801b7a:	f5b0 7f24 	cmp.w	r0, #656	@ 0x290
87801b7e:	bf34      	ite	cc
87801b80:	2000      	movcc	r0, #0
87801b82:	2001      	movcs	r0, #1
87801b84:	4770      	bx	lr
87801b86:	2001      	movs	r0, #1
87801b88:	4770      	bx	lr
87801b8a:	2000      	movs	r0, #0
87801b8c:	4770      	bx	lr
87801b8e:	bf00      	nop

87801b90 <rtc_convertseconds_to_datetime>:
87801b90:	f244 5c07 	movw	ip, #17671	@ 0x4507
87801b94:	b570      	push	{r4, r5, r6, lr}
87801b96:	f2cc 2c2e 	movt	ip, #49710	@ 0xc22e
87801b9a:	460c      	mov	r4, r1
87801b9c:	fbac 3c00 	umull	r3, ip, ip, r0
87801ba0:	f44f 43a3 	mov.w	r3, #20864	@ 0x5180
87801ba4:	f2c0 0301 	movt	r3, #1
87801ba8:	4a44      	ldr	r2, [pc, #272]	@ (87801cbc <rtc_convertseconds_to_datetime+0x12c>)
87801baa:	b084      	sub	sp, #16
87801bac:	466d      	mov	r5, sp
87801bae:	ea4f 4c1c 	mov.w	ip, ip, lsr #16
87801bb2:	fb03 001c 	mls	r0, r3, ip, r0
87801bb6:	f24b 33c5 	movw	r3, #46021	@ 0xb3c5
87801bba:	f2c9 13a2 	movt	r3, #37282	@ 0x91a2
87801bbe:	f10c 0c01 	add.w	ip, ip, #1
87801bc2:	fba3 1300 	umull	r1, r3, r3, r0
87801bc6:	f44f 6161 	mov.w	r1, #3600	@ 0xe10
87801bca:	f5bc 7fb7 	cmp.w	ip, #366	@ 0x16e
87801bce:	ea4f 23d3 	mov.w	r3, r3, lsr #11
87801bd2:	fb01 0013 	mls	r0, r1, r3, r0
87801bd6:	7123      	strb	r3, [r4, #4]
87801bd8:	f648 0389 	movw	r3, #34953	@ 0x8889
87801bdc:	f6c8 0388 	movt	r3, #34952	@ 0x8888
87801be0:	fba3 1300 	umull	r1, r3, r3, r0
87801be4:	ea4f 1353 	mov.w	r3, r3, lsr #5
87801be8:	7163      	strb	r3, [r4, #5]
87801bea:	ebc3 1303 	rsb	r3, r3, r3, lsl #4
87801bee:	eba0 0083 	sub.w	r0, r0, r3, lsl #2
87801bf2:	71a0      	strb	r0, [r4, #6]
87801bf4:	ca0f      	ldmia	r2, {r0, r1, r2, r3}
87801bf6:	c507      	stmia	r5!, {r0, r1, r2}
87801bf8:	702b      	strb	r3, [r5, #0]
87801bfa:	bf3c      	itt	cc
87801bfc:	f240 73b2 	movwcc	r3, #1970	@ 0x7b2
87801c00:	8023      	strhcc	r3, [r4, #0]
87801c02:	d335      	bcc.n	87801c70 <rtc_convertseconds_to_datetime+0xe0>
87801c04:	f240 106d 	movw	r0, #365	@ 0x16d
87801c08:	f248 511f 	movw	r1, #34079	@ 0x851f
87801c0c:	f240 73b2 	movw	r3, #1970	@ 0x7b2
87801c10:	f2c5 11eb 	movt	r1, #20971	@ 0x51eb
87801c14:	f44f 75c8 	mov.w	r5, #400	@ 0x190
87801c18:	4606      	mov	r6, r0
87801c1a:	3301      	adds	r3, #1
87801c1c:	ebac 0c00 	sub.w	ip, ip, r0
87801c20:	b29b      	uxth	r3, r3
87801c22:	f44f 70b7 	mov.w	r0, #366	@ 0x16e
87801c26:	fba1 e203 	umull	lr, r2, r1, r3
87801c2a:	09d2      	lsrs	r2, r2, #7
87801c2c:	fb05 3212 	mls	r2, r5, r2, r3
87801c30:	b292      	uxth	r2, r2
87801c32:	b1aa      	cbz	r2, 87801c60 <rtc_convertseconds_to_datetime+0xd0>
87801c34:	eb03 0e83 	add.w	lr, r3, r3, lsl #2
87801c38:	f013 0f03 	tst.w	r3, #3
87801c3c:	f240 106d 	movw	r0, #365	@ 0x16d
87801c40:	eb03 0ece 	add.w	lr, r3, lr, lsl #3
87801c44:	d10c      	bne.n	87801c60 <rtc_convertseconds_to_datetime+0xd0>
87801c46:	ebae 2e8e 	sub.w	lr, lr, lr, lsl #10
87801c4a:	f3ce 008d 	ubfx	r0, lr, #2, #14
87801c4e:	ea40 308e 	orr.w	r0, r0, lr, lsl #14
87801c52:	b280      	uxth	r0, r0
87801c54:	f5b0 7f24 	cmp.w	r0, #656	@ 0x290
87801c58:	bf2c      	ite	cs
87801c5a:	f44f 70b7 	movcs.w	r0, #366	@ 0x16e
87801c5e:	4630      	movcc	r0, r6
87801c60:	4584      	cmp	ip, r0
87801c62:	d8da      	bhi.n	87801c1a <rtc_convertseconds_to_datetime+0x8a>
87801c64:	4619      	mov	r1, r3
87801c66:	8023      	strh	r3, [r4, #0]
87801c68:	b9b2      	cbnz	r2, 87801c98 <rtc_convertseconds_to_datetime+0x108>
87801c6a:	231d      	movs	r3, #29
87801c6c:	f88d 3002 	strb.w	r3, [sp, #2]
87801c70:	4669      	mov	r1, sp
87801c72:	2301      	movs	r3, #1
87801c74:	f811 2f01 	ldrb.w	r2, [r1, #1]!
87801c78:	4562      	cmp	r2, ip
87801c7a:	d208      	bcs.n	87801c8e <rtc_convertseconds_to_datetime+0xfe>
87801c7c:	3301      	adds	r3, #1
87801c7e:	ebac 0c02 	sub.w	ip, ip, r2
87801c82:	2b0d      	cmp	r3, #13
87801c84:	d1f6      	bne.n	87801c74 <rtc_convertseconds_to_datetime+0xe4>
87801c86:	f884 c003 	strb.w	ip, [r4, #3]
87801c8a:	b004      	add	sp, #16
87801c8c:	bd70      	pop	{r4, r5, r6, pc}
87801c8e:	70a3      	strb	r3, [r4, #2]
87801c90:	f884 c003 	strb.w	ip, [r4, #3]
87801c94:	b004      	add	sp, #16
87801c96:	bd70      	pop	{r4, r5, r6, pc}
87801c98:	079b      	lsls	r3, r3, #30
87801c9a:	d1e9      	bne.n	87801c70 <rtc_convertseconds_to_datetime+0xe0>
87801c9c:	eb01 0381 	add.w	r3, r1, r1, lsl #2
87801ca0:	eb01 01c3 	add.w	r1, r1, r3, lsl #3
87801ca4:	eba1 2181 	sub.w	r1, r1, r1, lsl #10
87801ca8:	f3c1 038d 	ubfx	r3, r1, #2, #14
87801cac:	ea43 3381 	orr.w	r3, r3, r1, lsl #14
87801cb0:	b29b      	uxth	r3, r3
87801cb2:	f5b3 7f24 	cmp.w	r3, #656	@ 0x290
87801cb6:	d3db      	bcc.n	87801c70 <rtc_convertseconds_to_datetime+0xe0>
87801cb8:	e7d7      	b.n	87801c6a <rtc_convertseconds_to_datetime+0xda>
87801cba:	bf00      	nop
87801cbc:	87809180 	strhi	r9, [r0, r0, lsl #3]

87801cc0 <rtc_getseconds>:
87801cc0:	f44f 4340 	mov.w	r3, #49152	@ 0xc000
87801cc4:	2100      	movs	r1, #0
87801cc6:	f2c0 230c 	movt	r3, #524	@ 0x20c
87801cca:	6d18      	ldr	r0, [r3, #80]	@ 0x50
87801ccc:	6d5b      	ldr	r3, [r3, #84]	@ 0x54
87801cce:	0bdb      	lsrs	r3, r3, #15
87801cd0:	ea43 4040 	orr.w	r0, r3, r0, lsl #17
87801cd4:	4770      	bx	lr
87801cd6:	bf00      	nop

87801cd8 <rtc_getdatetime>:
87801cd8:	f44f 4340 	mov.w	r3, #49152	@ 0xc000
87801cdc:	4601      	mov	r1, r0
87801cde:	f2c0 230c 	movt	r3, #524	@ 0x20c
87801ce2:	6d18      	ldr	r0, [r3, #80]	@ 0x50
87801ce4:	6d5b      	ldr	r3, [r3, #84]	@ 0x54
87801ce6:	0bdb      	lsrs	r3, r3, #15
87801ce8:	ea43 4040 	orr.w	r0, r3, r0, lsl #17
87801cec:	f7ff bf50 	b.w	87801b90 <rtc_convertseconds_to_datetime>

87801cf0 <i2c_init>:
87801cf0:	8903      	ldrh	r3, [r0, #8]
87801cf2:	2215      	movs	r2, #21
87801cf4:	f023 0380 	bic.w	r3, r3, #128	@ 0x80
87801cf8:	041b      	lsls	r3, r3, #16
87801cfa:	0c1b      	lsrs	r3, r3, #16
87801cfc:	8103      	strh	r3, [r0, #8]
87801cfe:	8082      	strh	r2, [r0, #4]
87801d00:	8903      	ldrh	r3, [r0, #8]
87801d02:	b29b      	uxth	r3, r3
87801d04:	f043 0380 	orr.w	r3, r3, #128	@ 0x80
87801d08:	8103      	strh	r3, [r0, #8]
87801d0a:	4770      	bx	lr

87801d0c <i2c_master_start>:
87801d0c:	8983      	ldrh	r3, [r0, #12]
87801d0e:	4684      	mov	ip, r0
87801d10:	f013 0020 	ands.w	r0, r3, #32
87801d14:	d10e      	bne.n	87801d34 <i2c_master_start+0x28>
87801d16:	f8bc 3008 	ldrh.w	r3, [ip, #8]
87801d1a:	0049      	lsls	r1, r1, #1
87801d1c:	2a01      	cmp	r2, #1
87801d1e:	bf08      	it	eq
87801d20:	f041 0101 	orreq.w	r1, r1, #1
87801d24:	b29b      	uxth	r3, r3
87801d26:	f043 0330 	orr.w	r3, r3, #48	@ 0x30
87801d2a:	f8ac 3008 	strh.w	r3, [ip, #8]
87801d2e:	f8ac 1010 	strh.w	r1, [ip, #16]
87801d32:	4770      	bx	lr
87801d34:	2001      	movs	r0, #1
87801d36:	4770      	bx	lr

87801d38 <i2c_master_stop>:
87801d38:	8903      	ldrh	r3, [r0, #8]
87801d3a:	4602      	mov	r2, r0
87801d3c:	f023 0320 	bic.w	r3, r3, #32
87801d40:	041b      	lsls	r3, r3, #16
87801d42:	0c1b      	lsrs	r3, r3, #16
87801d44:	8103      	strh	r3, [r0, #8]
87801d46:	8993      	ldrh	r3, [r2, #12]
87801d48:	f013 0020 	ands.w	r0, r3, #32
87801d4c:	d1fb      	bne.n	87801d46 <i2c_master_stop+0xe>
87801d4e:	4770      	bx	lr

87801d50 <i2c_master_repeat_start>:
87801d50:	4603      	mov	r3, r0
87801d52:	8980      	ldrh	r0, [r0, #12]
87801d54:	0680      	lsls	r0, r0, #26
87801d56:	d502      	bpl.n	87801d5e <i2c_master_repeat_start+0xe>
87801d58:	8918      	ldrh	r0, [r3, #8]
87801d5a:	0680      	lsls	r0, r0, #26
87801d5c:	d510      	bpl.n	87801d80 <i2c_master_repeat_start+0x30>
87801d5e:	f8b3 c008 	ldrh.w	ip, [r3, #8]
87801d62:	f1a2 0201 	sub.w	r2, r2, #1
87801d66:	fab2 f282 	clz	r2, r2
87801d6a:	2000      	movs	r0, #0
87801d6c:	0952      	lsrs	r2, r2, #5
87801d6e:	ea42 0141 	orr.w	r1, r2, r1, lsl #1
87801d72:	fa1f f28c 	uxth.w	r2, ip
87801d76:	f042 0214 	orr.w	r2, r2, #20
87801d7a:	811a      	strh	r2, [r3, #8]
87801d7c:	8219      	strh	r1, [r3, #16]
87801d7e:	4770      	bx	lr
87801d80:	2001      	movs	r0, #1
87801d82:	4770      	bx	lr

87801d84 <i2c_check_and_clear_error>:
87801d84:	06ca      	lsls	r2, r1, #27
87801d86:	4603      	mov	r3, r0
87801d88:	d405      	bmi.n	87801d96 <i2c_check_and_clear_error+0x12>
87801d8a:	f011 0f01 	tst.w	r1, #1
87801d8e:	bf14      	ite	ne
87801d90:	2003      	movne	r0, #3
87801d92:	2000      	moveq	r0, #0
87801d94:	4770      	bx	lr
87801d96:	8982      	ldrh	r2, [r0, #12]
87801d98:	2004      	movs	r0, #4
87801d9a:	f022 0210 	bic.w	r2, r2, #16
87801d9e:	0412      	lsls	r2, r2, #16
87801da0:	0c12      	lsrs	r2, r2, #16
87801da2:	819a      	strh	r2, [r3, #12]
87801da4:	891a      	ldrh	r2, [r3, #8]
87801da6:	f022 0280 	bic.w	r2, r2, #128	@ 0x80
87801daa:	0412      	lsls	r2, r2, #16
87801dac:	0c12      	lsrs	r2, r2, #16
87801dae:	811a      	strh	r2, [r3, #8]
87801db0:	4770      	bx	lr
87801db2:	bf00      	nop

87801db4 <i2c_master_write>:
87801db4:	8983      	ldrh	r3, [r0, #12]
87801db6:	061b      	lsls	r3, r3, #24
87801db8:	d5fc      	bpl.n	87801db4 <i2c_master_write>
87801dba:	8983      	ldrh	r3, [r0, #12]
87801dbc:	eb01 0c02 	add.w	ip, r1, r2
87801dc0:	f023 0302 	bic.w	r3, r3, #2
87801dc4:	041b      	lsls	r3, r3, #16
87801dc6:	0c1b      	lsrs	r3, r3, #16
87801dc8:	8183      	strh	r3, [r0, #12]
87801dca:	4561      	cmp	r1, ip
87801dcc:	d011      	beq.n	87801df2 <i2c_master_write+0x3e>
87801dce:	f811 3b01 	ldrb.w	r3, [r1], #1
87801dd2:	8203      	strh	r3, [r0, #16]
87801dd4:	8983      	ldrh	r3, [r0, #12]
87801dd6:	079a      	lsls	r2, r3, #30
87801dd8:	d5fc      	bpl.n	87801dd4 <i2c_master_write+0x20>
87801dda:	8983      	ldrh	r3, [r0, #12]
87801ddc:	f023 0302 	bic.w	r3, r3, #2
87801de0:	041b      	lsls	r3, r3, #16
87801de2:	0c1b      	lsrs	r3, r3, #16
87801de4:	8183      	strh	r3, [r0, #12]
87801de6:	8983      	ldrh	r3, [r0, #12]
87801de8:	b29a      	uxth	r2, r3
87801dea:	06db      	lsls	r3, r3, #27
87801dec:	d411      	bmi.n	87801e12 <i2c_master_write+0x5e>
87801dee:	07d2      	lsls	r2, r2, #31
87801df0:	d5eb      	bpl.n	87801dca <i2c_master_write+0x16>
87801df2:	8983      	ldrh	r3, [r0, #12]
87801df4:	f023 0302 	bic.w	r3, r3, #2
87801df8:	041b      	lsls	r3, r3, #16
87801dfa:	0c1b      	lsrs	r3, r3, #16
87801dfc:	8183      	strh	r3, [r0, #12]
87801dfe:	8903      	ldrh	r3, [r0, #8]
87801e00:	f023 0320 	bic.w	r3, r3, #32
87801e04:	041b      	lsls	r3, r3, #16
87801e06:	0c1b      	lsrs	r3, r3, #16
87801e08:	8103      	strh	r3, [r0, #8]
87801e0a:	8983      	ldrh	r3, [r0, #12]
87801e0c:	069b      	lsls	r3, r3, #26
87801e0e:	d4fc      	bmi.n	87801e0a <i2c_master_write+0x56>
87801e10:	4770      	bx	lr
87801e12:	8983      	ldrh	r3, [r0, #12]
87801e14:	f023 0310 	bic.w	r3, r3, #16
87801e18:	041b      	lsls	r3, r3, #16
87801e1a:	0c1b      	lsrs	r3, r3, #16
87801e1c:	8183      	strh	r3, [r0, #12]
87801e1e:	8903      	ldrh	r3, [r0, #8]
87801e20:	f023 0380 	bic.w	r3, r3, #128	@ 0x80
87801e24:	041b      	lsls	r3, r3, #16
87801e26:	0c1b      	lsrs	r3, r3, #16
87801e28:	8103      	strh	r3, [r0, #8]
87801e2a:	e7e2      	b.n	87801df2 <i2c_master_write+0x3e>

87801e2c <i2c_master_read>:
87801e2c:	b082      	sub	sp, #8
87801e2e:	2300      	movs	r3, #0
87801e30:	f88d 3007 	strb.w	r3, [sp, #7]
87801e34:	468c      	mov	ip, r1
87801e36:	f89d 3007 	ldrb.w	r3, [sp, #7]
87801e3a:	3301      	adds	r3, #1
87801e3c:	b2db      	uxtb	r3, r3
87801e3e:	f88d 3007 	strb.w	r3, [sp, #7]
87801e42:	8983      	ldrh	r3, [r0, #12]
87801e44:	0619      	lsls	r1, r3, #24
87801e46:	d5fc      	bpl.n	87801e42 <i2c_master_read+0x16>
87801e48:	8983      	ldrh	r3, [r0, #12]
87801e4a:	2a01      	cmp	r2, #1
87801e4c:	f023 0302 	bic.w	r3, r3, #2
87801e50:	ea4f 4303 	mov.w	r3, r3, lsl #16
87801e54:	ea4f 4313 	mov.w	r3, r3, lsr #16
87801e58:	8183      	strh	r3, [r0, #12]
87801e5a:	8903      	ldrh	r3, [r0, #8]
87801e5c:	f023 0318 	bic.w	r3, r3, #24
87801e60:	ea4f 4303 	mov.w	r3, r3, lsl #16
87801e64:	ea4f 4313 	mov.w	r3, r3, lsr #16
87801e68:	8103      	strh	r3, [r0, #8]
87801e6a:	d02c      	beq.n	87801ec6 <i2c_master_read+0x9a>
87801e6c:	8a03      	ldrh	r3, [r0, #16]
87801e6e:	1e51      	subs	r1, r2, #1
87801e70:	b2db      	uxtb	r3, r3
87801e72:	f88d 3007 	strb.w	r3, [sp, #7]
87801e76:	b322      	cbz	r2, 87801ec2 <i2c_master_read+0x96>
87801e78:	8983      	ldrh	r3, [r0, #12]
87801e7a:	079a      	lsls	r2, r3, #30
87801e7c:	d5fc      	bpl.n	87801e78 <i2c_master_read+0x4c>
87801e7e:	8983      	ldrh	r3, [r0, #12]
87801e80:	f023 0302 	bic.w	r3, r3, #2
87801e84:	041b      	lsls	r3, r3, #16
87801e86:	0c1b      	lsrs	r3, r3, #16
87801e88:	8183      	strh	r3, [r0, #12]
87801e8a:	b171      	cbz	r1, 87801eaa <i2c_master_read+0x7e>
87801e8c:	2901      	cmp	r1, #1
87801e8e:	f101 31ff 	add.w	r1, r1, #4294967295	@ 0xffffffff
87801e92:	bf01      	itttt	eq
87801e94:	8903      	ldrheq	r3, [r0, #8]
87801e96:	2100      	moveq	r1, #0
87801e98:	b29b      	uxtheq	r3, r3
87801e9a:	f043 0308 	orreq.w	r3, r3, #8
87801e9e:	bf08      	it	eq
87801ea0:	8103      	strheq	r3, [r0, #8]
87801ea2:	8a03      	ldrh	r3, [r0, #16]
87801ea4:	f80c 3b01 	strb.w	r3, [ip], #1
87801ea8:	e7e6      	b.n	87801e78 <i2c_master_read+0x4c>
87801eaa:	8903      	ldrh	r3, [r0, #8]
87801eac:	f023 0320 	bic.w	r3, r3, #32
87801eb0:	041b      	lsls	r3, r3, #16
87801eb2:	0c1b      	lsrs	r3, r3, #16
87801eb4:	8103      	strh	r3, [r0, #8]
87801eb6:	8983      	ldrh	r3, [r0, #12]
87801eb8:	069b      	lsls	r3, r3, #26
87801eba:	d4fc      	bmi.n	87801eb6 <i2c_master_read+0x8a>
87801ebc:	8a03      	ldrh	r3, [r0, #16]
87801ebe:	f88c 3000 	strb.w	r3, [ip]
87801ec2:	b002      	add	sp, #8
87801ec4:	4770      	bx	lr
87801ec6:	8903      	ldrh	r3, [r0, #8]
87801ec8:	2100      	movs	r1, #0
87801eca:	b29b      	uxth	r3, r3
87801ecc:	f043 0308 	orr.w	r3, r3, #8
87801ed0:	8103      	strh	r3, [r0, #8]
87801ed2:	8a03      	ldrh	r3, [r0, #16]
87801ed4:	b2db      	uxtb	r3, r3
87801ed6:	f88d 3007 	strb.w	r3, [sp, #7]
87801eda:	e7cd      	b.n	87801e78 <i2c_master_read+0x4c>

87801edc <i2c_master_transfer>:
87801edc:	8982      	ldrh	r2, [r0, #12]
87801ede:	4603      	mov	r3, r0
87801ee0:	b570      	push	{r4, r5, r6, lr}
87801ee2:	684c      	ldr	r4, [r1, #4]
87801ee4:	f022 0212 	bic.w	r2, r2, #18
87801ee8:	0412      	lsls	r2, r2, #16
87801eea:	0c12      	lsrs	r2, r2, #16
87801eec:	8182      	strh	r2, [r0, #12]
87801eee:	899a      	ldrh	r2, [r3, #12]
87801ef0:	0616      	lsls	r6, r2, #24
87801ef2:	d5fc      	bpl.n	87801eee <i2c_master_transfer+0x12>
87801ef4:	7b08      	ldrb	r0, [r1, #12]
87801ef6:	f1a4 0201 	sub.w	r2, r4, #1
87801efa:	fab2 f282 	clz	r2, r2
87801efe:	899d      	ldrh	r5, [r3, #12]
87801f00:	0952      	lsrs	r2, r2, #5
87801f02:	2800      	cmp	r0, #0
87801f04:	bf08      	it	eq
87801f06:	2200      	moveq	r2, #0
87801f08:	2a00      	cmp	r2, #0
87801f0a:	bf0c      	ite	eq
87801f0c:	4622      	moveq	r2, r4
87801f0e:	2200      	movne	r2, #0
87801f10:	06ad      	lsls	r5, r5, #26
87801f12:	bf48      	it	mi
87801f14:	2001      	movmi	r0, #1
87801f16:	d442      	bmi.n	87801f9e <i2c_master_transfer+0xc2>
87801f18:	780d      	ldrb	r5, [r1, #0]
87801f1a:	f1a2 0201 	sub.w	r2, r2, #1
87801f1e:	891e      	ldrh	r6, [r3, #8]
87801f20:	fab2 f282 	clz	r2, r2
87801f24:	0952      	lsrs	r2, r2, #5
87801f26:	ea42 0245 	orr.w	r2, r2, r5, lsl #1
87801f2a:	006d      	lsls	r5, r5, #1
87801f2c:	b2b6      	uxth	r6, r6
87801f2e:	f046 0630 	orr.w	r6, r6, #48	@ 0x30
87801f32:	811e      	strh	r6, [r3, #8]
87801f34:	821a      	strh	r2, [r3, #16]
87801f36:	899a      	ldrh	r2, [r3, #12]
87801f38:	0796      	lsls	r6, r2, #30
87801f3a:	d5fc      	bpl.n	87801f36 <i2c_master_transfer+0x5a>
87801f3c:	899a      	ldrh	r2, [r3, #12]
87801f3e:	b296      	uxth	r6, r2
87801f40:	06d2      	lsls	r2, r2, #27
87801f42:	d460      	bmi.n	87802006 <i2c_master_transfer+0x12a>
87801f44:	07f6      	lsls	r6, r6, #31
87801f46:	d447      	bmi.n	87801fd8 <i2c_master_transfer+0xfc>
87801f48:	b320      	cbz	r0, 87801f94 <i2c_master_transfer+0xb8>
87801f4a:	3801      	subs	r0, #1
87801f4c:	688e      	ldr	r6, [r1, #8]
87801f4e:	fa5f fe80 	uxtb.w	lr, r0
87801f52:	ea4f 0ece 	mov.w	lr, lr, lsl #3
87801f56:	899a      	ldrh	r2, [r3, #12]
87801f58:	fa26 fc0e 	lsr.w	ip, r6, lr
87801f5c:	b2c0      	uxtb	r0, r0
87801f5e:	fa1f fc8c 	uxth.w	ip, ip
87801f62:	f022 0202 	bic.w	r2, r2, #2
87801f66:	0412      	lsls	r2, r2, #16
87801f68:	0c12      	lsrs	r2, r2, #16
87801f6a:	819a      	strh	r2, [r3, #12]
87801f6c:	7308      	strb	r0, [r1, #12]
87801f6e:	f8a3 c010 	strh.w	ip, [r3, #16]
87801f72:	899a      	ldrh	r2, [r3, #12]
87801f74:	0792      	lsls	r2, r2, #30
87801f76:	d5fc      	bpl.n	87801f72 <i2c_master_transfer+0x96>
87801f78:	899a      	ldrh	r2, [r3, #12]
87801f7a:	fa1f fc82 	uxth.w	ip, r2
87801f7e:	06d2      	lsls	r2, r2, #27
87801f80:	d40e      	bmi.n	87801fa0 <i2c_master_transfer+0xc4>
87801f82:	f01c 0f01 	tst.w	ip, #1
87801f86:	d125      	bne.n	87801fd4 <i2c_master_transfer+0xf8>
87801f88:	f1ae 0e08 	sub.w	lr, lr, #8
87801f8c:	2800      	cmp	r0, #0
87801f8e:	d048      	beq.n	87802022 <i2c_master_transfer+0x146>
87801f90:	3801      	subs	r0, #1
87801f92:	e7e0      	b.n	87801f56 <i2c_master_transfer+0x7a>
87801f94:	bb5c      	cbnz	r4, 87801fee <i2c_master_transfer+0x112>
87801f96:	694a      	ldr	r2, [r1, #20]
87801f98:	2a00      	cmp	r2, #0
87801f9a:	d147      	bne.n	8780202c <i2c_master_transfer+0x150>
87801f9c:	2000      	movs	r0, #0
87801f9e:	bd70      	pop	{r4, r5, r6, pc}
87801fa0:	899a      	ldrh	r2, [r3, #12]
87801fa2:	2004      	movs	r0, #4
87801fa4:	f022 0210 	bic.w	r2, r2, #16
87801fa8:	0412      	lsls	r2, r2, #16
87801faa:	0c12      	lsrs	r2, r2, #16
87801fac:	819a      	strh	r2, [r3, #12]
87801fae:	891a      	ldrh	r2, [r3, #8]
87801fb0:	f022 0280 	bic.w	r2, r2, #128	@ 0x80
87801fb4:	0412      	lsls	r2, r2, #16
87801fb6:	0c12      	lsrs	r2, r2, #16
87801fb8:	811a      	strh	r2, [r3, #8]
87801fba:	891a      	ldrh	r2, [r3, #8]
87801fbc:	f022 0220 	bic.w	r2, r2, #32
87801fc0:	0412      	lsls	r2, r2, #16
87801fc2:	0c12      	lsrs	r2, r2, #16
87801fc4:	811a      	strh	r2, [r3, #8]
87801fc6:	899a      	ldrh	r2, [r3, #12]
87801fc8:	0691      	lsls	r1, r2, #26
87801fca:	d5e8      	bpl.n	87801f9e <i2c_master_transfer+0xc2>
87801fcc:	899a      	ldrh	r2, [r3, #12]
87801fce:	0691      	lsls	r1, r2, #26
87801fd0:	d4f9      	bmi.n	87801fc6 <i2c_master_transfer+0xea>
87801fd2:	e7e4      	b.n	87801f9e <i2c_master_transfer+0xc2>
87801fd4:	2003      	movs	r0, #3
87801fd6:	e7f0      	b.n	87801fba <i2c_master_transfer+0xde>
87801fd8:	2003      	movs	r0, #3
87801fda:	891a      	ldrh	r2, [r3, #8]
87801fdc:	f022 0220 	bic.w	r2, r2, #32
87801fe0:	0412      	lsls	r2, r2, #16
87801fe2:	0c12      	lsrs	r2, r2, #16
87801fe4:	811a      	strh	r2, [r3, #8]
87801fe6:	899a      	ldrh	r2, [r3, #12]
87801fe8:	0691      	lsls	r1, r2, #26
87801fea:	d4fc      	bmi.n	87801fe6 <i2c_master_transfer+0x10a>
87801fec:	bd70      	pop	{r4, r5, r6, pc}
87801fee:	2c01      	cmp	r4, #1
87801ff0:	d1d4      	bne.n	87801f9c <i2c_master_transfer+0xc0>
87801ff2:	694a      	ldr	r2, [r1, #20]
87801ff4:	2a00      	cmp	r2, #0
87801ff6:	d0d1      	beq.n	87801f9c <i2c_master_transfer+0xc0>
87801ff8:	690c      	ldr	r4, [r1, #16]
87801ffa:	4618      	mov	r0, r3
87801ffc:	694a      	ldr	r2, [r1, #20]
87801ffe:	4621      	mov	r1, r4
87802000:	f7ff ff14 	bl	87801e2c <i2c_master_read>
87802004:	e7ca      	b.n	87801f9c <i2c_master_transfer+0xc0>
87802006:	899a      	ldrh	r2, [r3, #12]
87802008:	2004      	movs	r0, #4
8780200a:	f022 0210 	bic.w	r2, r2, #16
8780200e:	0412      	lsls	r2, r2, #16
87802010:	0c12      	lsrs	r2, r2, #16
87802012:	819a      	strh	r2, [r3, #12]
87802014:	891a      	ldrh	r2, [r3, #8]
87802016:	f022 0280 	bic.w	r2, r2, #128	@ 0x80
8780201a:	0412      	lsls	r2, r2, #16
8780201c:	0c12      	lsrs	r2, r2, #16
8780201e:	811a      	strh	r2, [r3, #8]
87802020:	e7db      	b.n	87801fda <i2c_master_transfer+0xfe>
87802022:	2c01      	cmp	r4, #1
87802024:	d009      	beq.n	8780203a <i2c_master_transfer+0x15e>
87802026:	2c00      	cmp	r4, #0
87802028:	d0b5      	beq.n	87801f96 <i2c_master_transfer+0xba>
8780202a:	e7b7      	b.n	87801f9c <i2c_master_transfer+0xc0>
8780202c:	690c      	ldr	r4, [r1, #16]
8780202e:	4618      	mov	r0, r3
87802030:	694a      	ldr	r2, [r1, #20]
87802032:	4621      	mov	r1, r4
87802034:	f7ff febe 	bl	87801db4 <i2c_master_write>
87802038:	e7b0      	b.n	87801f9c <i2c_master_transfer+0xc0>
8780203a:	899a      	ldrh	r2, [r3, #12]
8780203c:	f022 0202 	bic.w	r2, r2, #2
87802040:	0412      	lsls	r2, r2, #16
87802042:	0c12      	lsrs	r2, r2, #16
87802044:	819a      	strh	r2, [r3, #12]
87802046:	899a      	ldrh	r2, [r3, #12]
87802048:	0692      	lsls	r2, r2, #26
8780204a:	d502      	bpl.n	87802052 <i2c_master_transfer+0x176>
8780204c:	891a      	ldrh	r2, [r3, #8]
8780204e:	0696      	lsls	r6, r2, #26
87802050:	d507      	bpl.n	87802062 <i2c_master_transfer+0x186>
87802052:	891a      	ldrh	r2, [r3, #8]
87802054:	f045 0501 	orr.w	r5, r5, #1
87802058:	b292      	uxth	r2, r2
8780205a:	f042 0214 	orr.w	r2, r2, #20
8780205e:	811a      	strh	r2, [r3, #8]
87802060:	821d      	strh	r5, [r3, #16]
87802062:	899a      	ldrh	r2, [r3, #12]
87802064:	0795      	lsls	r5, r2, #30
87802066:	d5fc      	bpl.n	87802062 <i2c_master_transfer+0x186>
87802068:	899a      	ldrh	r2, [r3, #12]
8780206a:	06d4      	lsls	r4, r2, #27
8780206c:	b290      	uxth	r0, r2
8780206e:	d40c      	bmi.n	8780208a <i2c_master_transfer+0x1ae>
87802070:	07c0      	lsls	r0, r0, #31
87802072:	d5be      	bpl.n	87801ff2 <i2c_master_transfer+0x116>
87802074:	891a      	ldrh	r2, [r3, #8]
87802076:	f022 0220 	bic.w	r2, r2, #32
8780207a:	0412      	lsls	r2, r2, #16
8780207c:	0c12      	lsrs	r2, r2, #16
8780207e:	811a      	strh	r2, [r3, #8]
87802080:	899a      	ldrh	r2, [r3, #12]
87802082:	0692      	lsls	r2, r2, #26
87802084:	d4fc      	bmi.n	87802080 <i2c_master_transfer+0x1a4>
87802086:	2006      	movs	r0, #6
87802088:	bd70      	pop	{r4, r5, r6, pc}
8780208a:	899a      	ldrh	r2, [r3, #12]
8780208c:	f022 0210 	bic.w	r2, r2, #16
87802090:	0412      	lsls	r2, r2, #16
87802092:	0c12      	lsrs	r2, r2, #16
87802094:	819a      	strh	r2, [r3, #12]
87802096:	891a      	ldrh	r2, [r3, #8]
87802098:	f022 0280 	bic.w	r2, r2, #128	@ 0x80
8780209c:	0412      	lsls	r2, r2, #16
8780209e:	0c12      	lsrs	r2, r2, #16
878020a0:	811a      	strh	r2, [r3, #8]
878020a2:	e7e7      	b.n	87802074 <i2c_master_transfer+0x198>
878020a4:	0000      	movs	r0, r0
	...

878020a8 <ap3216c_init>:
878020a8:	2300      	movs	r3, #0
878020aa:	b5f0      	push	{r4, r5, r6, r7, lr}
878020ac:	2212      	movs	r2, #18
878020ae:	2401      	movs	r4, #1
878020b0:	461d      	mov	r5, r3
878020b2:	f2c0 230e 	movt	r3, #526	@ 0x20e
878020b6:	ed2d 8b02 	vpush	{d8}
878020ba:	f2c0 251a 	movt	r5, #538	@ 0x21a
878020be:	f8c3 20b4 	str.w	r2, [r3, #180]	@ 0xb4
878020c2:	2102      	movs	r1, #2
878020c4:	f8c3 45a4 	str.w	r4, [r3, #1444]	@ 0x5a4
878020c8:	b089      	sub	sp, #36	@ 0x24
878020ca:	f8c3 20b8 	str.w	r2, [r3, #184]	@ 0xb8
878020ce:	f247 02b0 	movw	r2, #28848	@ 0x70b0
878020d2:	f8c3 15a8 	str.w	r1, [r3, #1448]	@ 0x5a8
878020d6:	4628      	mov	r0, r5
878020d8:	f8c3 2340 	str.w	r2, [r3, #832]	@ 0x340
878020dc:	261e      	movs	r6, #30
878020de:	f8c3 2344 	str.w	r2, [r3, #836]	@ 0x344
878020e2:	f10d 0707 	add.w	r7, sp, #7
878020e6:	f7ff fe03 	bl	87801cf0 <i2c_init>
878020ea:	ef80 8010 	vmov.i32	d8, #0	@ 0x00000000
878020ee:	2304      	movs	r3, #4
878020f0:	f88d 3007 	strb.w	r3, [sp, #7]
878020f4:	ab03      	add	r3, sp, #12
878020f6:	a902      	add	r1, sp, #8
878020f8:	f88d 4014 	strb.w	r4, [sp, #20]
878020fc:	f88d 6008 	strb.w	r6, [sp, #8]
87802100:	4628      	mov	r0, r5
87802102:	f903 878f 	vst1.32	{d8}, [r3]
87802106:	9706      	str	r7, [sp, #24]
87802108:	9407      	str	r4, [sp, #28]
8780210a:	f7ff fee7 	bl	87801edc <i2c_master_transfer>
8780210e:	2032      	movs	r0, #50	@ 0x32
87802110:	f7fe fe7e 	bl	87800e10 <delay_ms>
87802114:	ab03      	add	r3, sp, #12
87802116:	9706      	str	r7, [sp, #24]
87802118:	a902      	add	r1, sp, #8
8780211a:	f88d 6008 	strb.w	r6, [sp, #8]
8780211e:	4628      	mov	r0, r5
87802120:	f903 878f 	vst1.32	{d8}, [r3]
87802124:	2303      	movs	r3, #3
87802126:	f88d 4014 	strb.w	r4, [sp, #20]
8780212a:	f88d 3007 	strb.w	r3, [sp, #7]
8780212e:	9407      	str	r4, [sp, #28]
87802130:	f7ff fed4 	bl	87801edc <i2c_master_transfer>
87802134:	eddf 0b0e 	vldr	d16, [pc, #56]	@ 87802170 <ap3216c_init+0xc8>
87802138:	ab03      	add	r3, sp, #12
8780213a:	9706      	str	r7, [sp, #24]
8780213c:	a902      	add	r1, sp, #8
8780213e:	f88d 6008 	strb.w	r6, [sp, #8]
87802142:	4628      	mov	r0, r5
87802144:	f943 078f 	vst1.32	{d16}, [r3]
87802148:	2300      	movs	r3, #0
8780214a:	f88d 4014 	strb.w	r4, [sp, #20]
8780214e:	9407      	str	r4, [sp, #28]
87802150:	f88d 3007 	strb.w	r3, [sp, #7]
87802154:	f7ff fec2 	bl	87801edc <i2c_master_transfer>
87802158:	f89d 0007 	ldrb.w	r0, [sp, #7]
8780215c:	3803      	subs	r0, #3
8780215e:	bf18      	it	ne
87802160:	2001      	movne	r0, #1
87802162:	b009      	add	sp, #36	@ 0x24
87802164:	ecbd 8b02 	vpop	{d8}
87802168:	bdf0      	pop	{r4, r5, r6, r7, pc}
8780216a:	bf00      	nop
8780216c:	f3af 8000 	nop.w
87802170:	00000001 	andeq	r0, r0, r1
87802174:	00000000 	andeq	r0, r0, r0

87802178 <ap3216c_readonebyte>:
87802178:	4684      	mov	ip, r0
8780217a:	2000      	movs	r0, #0
8780217c:	b500      	push	{lr}
8780217e:	460a      	mov	r2, r1
87802180:	b089      	sub	sp, #36	@ 0x24
87802182:	4601      	mov	r1, r0
87802184:	2301      	movs	r3, #1
87802186:	f2c0 201a 	movt	r0, #538	@ 0x21a
8780218a:	f88d 1007 	strb.w	r1, [sp, #7]
8780218e:	f10d 0107 	add.w	r1, sp, #7
87802192:	9106      	str	r1, [sp, #24]
87802194:	a902      	add	r1, sp, #8
87802196:	f88d c008 	strb.w	ip, [sp, #8]
8780219a:	e9cd 3203 	strd	r3, r2, [sp, #12]
8780219e:	f88d 3014 	strb.w	r3, [sp, #20]
878021a2:	9307      	str	r3, [sp, #28]
878021a4:	f7ff fe9a 	bl	87801edc <i2c_master_transfer>
878021a8:	f89d 0007 	ldrb.w	r0, [sp, #7]
878021ac:	b009      	add	sp, #36	@ 0x24
878021ae:	f85d fb04 	ldr.w	pc, [sp], #4
878021b2:	bf00      	nop

878021b4 <ap3216c_writeonebyte>:
878021b4:	b510      	push	{r4, lr}
878021b6:	4684      	mov	ip, r0
878021b8:	b088      	sub	sp, #32
878021ba:	2000      	movs	r0, #0
878021bc:	2301      	movs	r3, #1
878021be:	460c      	mov	r4, r1
878021c0:	9003      	str	r0, [sp, #12]
878021c2:	a902      	add	r1, sp, #8
878021c4:	f88d 2007 	strb.w	r2, [sp, #7]
878021c8:	f2c0 201a 	movt	r0, #538	@ 0x21a
878021cc:	f10d 0207 	add.w	r2, sp, #7
878021d0:	f88d c008 	strb.w	ip, [sp, #8]
878021d4:	9206      	str	r2, [sp, #24]
878021d6:	9404      	str	r4, [sp, #16]
878021d8:	f88d 3014 	strb.w	r3, [sp, #20]
878021dc:	9307      	str	r3, [sp, #28]
878021de:	f7ff fe7d 	bl	87801edc <i2c_master_transfer>
878021e2:	3800      	subs	r0, #0
878021e4:	bf18      	it	ne
878021e6:	2001      	movne	r0, #1
878021e8:	b008      	add	sp, #32
878021ea:	bd10      	pop	{r4, pc}

878021ec <ap3216c_readData>:
878021ec:	e92d 4ff0 	stmdb	sp!, {r4, r5, r6, r7, r8, r9, sl, fp, lr}
878021f0:	2500      	movs	r5, #0
878021f2:	b08d      	sub	sp, #52	@ 0x34
878021f4:	4683      	mov	fp, r0
878021f6:	468a      	mov	sl, r1
878021f8:	f10d 0910 	add.w	r9, sp, #16
878021fc:	240a      	movs	r4, #10
878021fe:	f2c0 251a 	movt	r5, #538	@ 0x21a
87802202:	f10d 080f 	add.w	r8, sp, #15
87802206:	2600      	movs	r6, #0
87802208:	271e      	movs	r7, #30
8780220a:	9201      	str	r2, [sp, #4]
8780220c:	2301      	movs	r3, #1
8780220e:	a906      	add	r1, sp, #24
87802210:	4628      	mov	r0, r5
87802212:	e9cd 3407 	strd	r3, r4, [sp, #28]
87802216:	f8cd 8028 	str.w	r8, [sp, #40]	@ 0x28
8780221a:	3401      	adds	r4, #1
8780221c:	f88d 3024 	strb.w	r3, [sp, #36]	@ 0x24
87802220:	930b      	str	r3, [sp, #44]	@ 0x2c
87802222:	f88d 600f 	strb.w	r6, [sp, #15]
87802226:	f88d 7018 	strb.w	r7, [sp, #24]
8780222a:	f7ff fe57 	bl	87801edc <i2c_master_transfer>
8780222e:	f89d 300f 	ldrb.w	r3, [sp, #15]
87802232:	2c10      	cmp	r4, #16
87802234:	f809 3b01 	strb.w	r3, [r9], #1
87802238:	d1e8      	bne.n	8780220c <ap3216c_readData+0x20>
8780223a:	f89d 3010 	ldrb.w	r3, [sp, #16]
8780223e:	061a      	lsls	r2, r3, #24
87802240:	bf44      	itt	mi
87802242:	2300      	movmi	r3, #0
87802244:	f8ab 6000 	strhmi.w	r6, [fp]
87802248:	d411      	bmi.n	8780226e <ap3216c_readData+0x82>
8780224a:	f89d 2011 	ldrb.w	r2, [sp, #17]
8780224e:	f003 0303 	and.w	r3, r3, #3
87802252:	ea43 0382 	orr.w	r3, r3, r2, lsl #2
87802256:	f89d 2015 	ldrb.w	r2, [sp, #21]
8780225a:	f8ab 3000 	strh.w	r3, [fp]
8780225e:	f89d 3014 	ldrb.w	r3, [sp, #20]
87802262:	0112      	lsls	r2, r2, #4
87802264:	f003 030f 	and.w	r3, r3, #15
87802268:	f402 727c 	and.w	r2, r2, #1008	@ 0x3f0
8780226c:	4313      	orrs	r3, r2
8780226e:	f8aa 3000 	strh.w	r3, [sl]
87802272:	f8bd 2012 	ldrh.w	r2, [sp, #18]
87802276:	9b01      	ldr	r3, [sp, #4]
87802278:	801a      	strh	r2, [r3, #0]
8780227a:	b00d      	add	sp, #52	@ 0x34
8780227c:	e8bd 8ff0 	ldmia.w	sp!, {r4, r5, r6, r7, r8, r9, sl, fp, pc}

87802280 <icm20608_init>:
87802280:	2300      	movs	r3, #0
87802282:	b570      	push	{r4, r5, r6, lr}
87802284:	f241 02b0 	movw	r2, #4272	@ 0x10b0
87802288:	461c      	mov	r4, r3
8780228a:	2108      	movs	r1, #8
8780228c:	f2c0 230e 	movt	r3, #526	@ 0x20e
87802290:	2005      	movs	r0, #5
87802292:	f8c3 1098 	str.w	r1, [r3, #152]	@ 0x98
87802296:	b084      	sub	sp, #16
87802298:	f8c3 4554 	str.w	r4, [r3, #1364]	@ 0x554
8780229c:	f8c3 109c 	str.w	r1, [r3, #156]	@ 0x9c
878022a0:	2501      	movs	r5, #1
878022a2:	f8c3 455c 	str.w	r4, [r3, #1372]	@ 0x55c
878022a6:	f8c3 10a0 	str.w	r1, [r3, #160]	@ 0xa0
878022aa:	2114      	movs	r1, #20
878022ac:	f8c3 4558 	str.w	r4, [r3, #1368]	@ 0x558
878022b0:	f8c3 2324 	str.w	r2, [r3, #804]	@ 0x324
878022b4:	f8c3 2328 	str.w	r2, [r3, #808]	@ 0x328
878022b8:	f8c3 232c 	str.w	r2, [r3, #812]	@ 0x32c
878022bc:	f8c3 0094 	str.w	r0, [r3, #148]	@ 0x94
878022c0:	f44f 4040 	mov.w	r0, #49152	@ 0xc000
878022c4:	f8c3 2320 	str.w	r2, [r3, #800]	@ 0x320
878022c8:	f2c0 2009 	movt	r0, #521	@ 0x209
878022cc:	aa01      	add	r2, sp, #4
878022ce:	9501      	str	r5, [sp, #4]
878022d0:	f88d 4008 	strb.w	r4, [sp, #8]
878022d4:	f7fe f9da 	bl	8780068c <gpio_init>
878022d8:	4620      	mov	r0, r4
878022da:	f2c0 2001 	movt	r0, #513	@ 0x201
878022de:	f000 fb1d 	bl	8780291c <spi_init>
878022e2:	f44f 4040 	mov.w	r0, #49152	@ 0xc000
878022e6:	4622      	mov	r2, r4
878022e8:	2114      	movs	r1, #20
878022ea:	f2c0 2009 	movt	r0, #521	@ 0x209
878022ee:	f7fe f95d 	bl	878005ac <gpio_pinwrite>
878022f2:	4620      	mov	r0, r4
878022f4:	216b      	movs	r1, #107	@ 0x6b
878022f6:	f2c0 2001 	movt	r0, #513	@ 0x201
878022fa:	f000 fb25 	bl	87802948 <spich0_readwrite_byte>
878022fe:	4620      	mov	r0, r4
87802300:	2180      	movs	r1, #128	@ 0x80
87802302:	f2c0 2001 	movt	r0, #513	@ 0x201
87802306:	f000 fb1f 	bl	87802948 <spich0_readwrite_byte>
8780230a:	f44f 4040 	mov.w	r0, #49152	@ 0xc000
8780230e:	462a      	mov	r2, r5
87802310:	2114      	movs	r1, #20
87802312:	f2c0 2009 	movt	r0, #521	@ 0x209
87802316:	f7fe f949 	bl	878005ac <gpio_pinwrite>
8780231a:	2032      	movs	r0, #50	@ 0x32
8780231c:	f7fe fd78 	bl	87800e10 <delay_ms>
87802320:	f44f 4040 	mov.w	r0, #49152	@ 0xc000
87802324:	4622      	mov	r2, r4
87802326:	2114      	movs	r1, #20
87802328:	f2c0 2009 	movt	r0, #521	@ 0x209
8780232c:	f7fe f93e 	bl	878005ac <gpio_pinwrite>
87802330:	4620      	mov	r0, r4
87802332:	216b      	movs	r1, #107	@ 0x6b
87802334:	f2c0 2001 	movt	r0, #513	@ 0x201
87802338:	f000 fb06 	bl	87802948 <spich0_readwrite_byte>
8780233c:	4620      	mov	r0, r4
8780233e:	4629      	mov	r1, r5
87802340:	f2c0 2001 	movt	r0, #513	@ 0x201
87802344:	f000 fb00 	bl	87802948 <spich0_readwrite_byte>
87802348:	f44f 4040 	mov.w	r0, #49152	@ 0xc000
8780234c:	462a      	mov	r2, r5
8780234e:	2114      	movs	r1, #20
87802350:	f2c0 2009 	movt	r0, #521	@ 0x209
87802354:	f7fe f92a 	bl	878005ac <gpio_pinwrite>
87802358:	2032      	movs	r0, #50	@ 0x32
8780235a:	f7fe fd59 	bl	87800e10 <delay_ms>
8780235e:	f44f 4040 	mov.w	r0, #49152	@ 0xc000
87802362:	4622      	mov	r2, r4
87802364:	2114      	movs	r1, #20
87802366:	f2c0 2009 	movt	r0, #521	@ 0x209
8780236a:	f7fe f91f 	bl	878005ac <gpio_pinwrite>
8780236e:	4620      	mov	r0, r4
87802370:	21f5      	movs	r1, #245	@ 0xf5
87802372:	f2c0 2001 	movt	r0, #513	@ 0x201
87802376:	f000 fae7 	bl	87802948 <spich0_readwrite_byte>
8780237a:	4606      	mov	r6, r0
8780237c:	f44f 4040 	mov.w	r0, #49152	@ 0xc000
87802380:	462a      	mov	r2, r5
87802382:	2114      	movs	r1, #20
87802384:	f2c0 2009 	movt	r0, #521	@ 0x209
87802388:	f7fe f910 	bl	878005ac <gpio_pinwrite>
8780238c:	4631      	mov	r1, r6
8780238e:	3652      	adds	r6, #82	@ 0x52
87802390:	b2f6      	uxtb	r6, r6
87802392:	f644 10c0 	movw	r0, #18880	@ 0x49c0
87802396:	f2c8 7080 	movt	r0, #34688	@ 0x8780
8780239a:	f000 fcd7 	bl	87802d4c <printf>
8780239e:	42ae      	cmp	r6, r5
878023a0:	bf88      	it	hi
878023a2:	4628      	movhi	r0, r5
878023a4:	f200 80e1 	bhi.w	8780256a <icm20608_init+0x2ea>
878023a8:	f44f 4040 	mov.w	r0, #49152	@ 0xc000
878023ac:	4622      	mov	r2, r4
878023ae:	2114      	movs	r1, #20
878023b0:	f2c0 2009 	movt	r0, #521	@ 0x209
878023b4:	f7fe f8fa 	bl	878005ac <gpio_pinwrite>
878023b8:	4620      	mov	r0, r4
878023ba:	2119      	movs	r1, #25
878023bc:	f2c0 2001 	movt	r0, #513	@ 0x201
878023c0:	f000 fac2 	bl	87802948 <spich0_readwrite_byte>
878023c4:	4620      	mov	r0, r4
878023c6:	4621      	mov	r1, r4
878023c8:	f2c0 2001 	movt	r0, #513	@ 0x201
878023cc:	f000 fabc 	bl	87802948 <spich0_readwrite_byte>
878023d0:	f44f 4040 	mov.w	r0, #49152	@ 0xc000
878023d4:	462a      	mov	r2, r5
878023d6:	2114      	movs	r1, #20
878023d8:	f2c0 2009 	movt	r0, #521	@ 0x209
878023dc:	f7fe f8e6 	bl	878005ac <gpio_pinwrite>
878023e0:	f44f 4040 	mov.w	r0, #49152	@ 0xc000
878023e4:	4622      	mov	r2, r4
878023e6:	2114      	movs	r1, #20
878023e8:	f2c0 2009 	movt	r0, #521	@ 0x209
878023ec:	f7fe f8de 	bl	878005ac <gpio_pinwrite>
878023f0:	4620      	mov	r0, r4
878023f2:	211b      	movs	r1, #27
878023f4:	f2c0 2001 	movt	r0, #513	@ 0x201
878023f8:	f000 faa6 	bl	87802948 <spich0_readwrite_byte>
878023fc:	4620      	mov	r0, r4
878023fe:	2118      	movs	r1, #24
87802400:	f2c0 2001 	movt	r0, #513	@ 0x201
87802404:	f000 faa0 	bl	87802948 <spich0_readwrite_byte>
87802408:	f44f 4040 	mov.w	r0, #49152	@ 0xc000
8780240c:	462a      	mov	r2, r5
8780240e:	2114      	movs	r1, #20
87802410:	f2c0 2009 	movt	r0, #521	@ 0x209
87802414:	f7fe f8ca 	bl	878005ac <gpio_pinwrite>
87802418:	f44f 4040 	mov.w	r0, #49152	@ 0xc000
8780241c:	4622      	mov	r2, r4
8780241e:	2114      	movs	r1, #20
87802420:	f2c0 2009 	movt	r0, #521	@ 0x209
87802424:	f7fe f8c2 	bl	878005ac <gpio_pinwrite>
87802428:	4620      	mov	r0, r4
8780242a:	211c      	movs	r1, #28
8780242c:	f2c0 2001 	movt	r0, #513	@ 0x201
87802430:	f000 fa8a 	bl	87802948 <spich0_readwrite_byte>
87802434:	4620      	mov	r0, r4
87802436:	2118      	movs	r1, #24
87802438:	f2c0 2001 	movt	r0, #513	@ 0x201
8780243c:	f000 fa84 	bl	87802948 <spich0_readwrite_byte>
87802440:	f44f 4040 	mov.w	r0, #49152	@ 0xc000
87802444:	462a      	mov	r2, r5
87802446:	2114      	movs	r1, #20
87802448:	f2c0 2009 	movt	r0, #521	@ 0x209
8780244c:	f7fe f8ae 	bl	878005ac <gpio_pinwrite>
87802450:	f44f 4040 	mov.w	r0, #49152	@ 0xc000
87802454:	4622      	mov	r2, r4
87802456:	2114      	movs	r1, #20
87802458:	f2c0 2009 	movt	r0, #521	@ 0x209
8780245c:	f7fe f8a6 	bl	878005ac <gpio_pinwrite>
87802460:	4620      	mov	r0, r4
87802462:	211a      	movs	r1, #26
87802464:	f2c0 2001 	movt	r0, #513	@ 0x201
87802468:	f000 fa6e 	bl	87802948 <spich0_readwrite_byte>
8780246c:	4620      	mov	r0, r4
8780246e:	2104      	movs	r1, #4
87802470:	f2c0 2001 	movt	r0, #513	@ 0x201
87802474:	f000 fa68 	bl	87802948 <spich0_readwrite_byte>
87802478:	f44f 4040 	mov.w	r0, #49152	@ 0xc000
8780247c:	462a      	mov	r2, r5
8780247e:	2114      	movs	r1, #20
87802480:	f2c0 2009 	movt	r0, #521	@ 0x209
87802484:	f7fe f892 	bl	878005ac <gpio_pinwrite>
87802488:	f44f 4040 	mov.w	r0, #49152	@ 0xc000
8780248c:	4622      	mov	r2, r4
8780248e:	2114      	movs	r1, #20
87802490:	f2c0 2009 	movt	r0, #521	@ 0x209
87802494:	f7fe f88a 	bl	878005ac <gpio_pinwrite>
87802498:	4620      	mov	r0, r4
8780249a:	211d      	movs	r1, #29
8780249c:	f2c0 2001 	movt	r0, #513	@ 0x201
878024a0:	f000 fa52 	bl	87802948 <spich0_readwrite_byte>
878024a4:	4620      	mov	r0, r4
878024a6:	2104      	movs	r1, #4
878024a8:	f2c0 2001 	movt	r0, #513	@ 0x201
878024ac:	f000 fa4c 	bl	87802948 <spich0_readwrite_byte>
878024b0:	f44f 4040 	mov.w	r0, #49152	@ 0xc000
878024b4:	462a      	mov	r2, r5
878024b6:	2114      	movs	r1, #20
878024b8:	f2c0 2009 	movt	r0, #521	@ 0x209
878024bc:	f7fe f876 	bl	878005ac <gpio_pinwrite>
878024c0:	f44f 4040 	mov.w	r0, #49152	@ 0xc000
878024c4:	4622      	mov	r2, r4
878024c6:	2114      	movs	r1, #20
878024c8:	f2c0 2009 	movt	r0, #521	@ 0x209
878024cc:	f7fe f86e 	bl	878005ac <gpio_pinwrite>
878024d0:	4620      	mov	r0, r4
878024d2:	216c      	movs	r1, #108	@ 0x6c
878024d4:	f2c0 2001 	movt	r0, #513	@ 0x201
878024d8:	f000 fa36 	bl	87802948 <spich0_readwrite_byte>
878024dc:	4620      	mov	r0, r4
878024de:	4621      	mov	r1, r4
878024e0:	f2c0 2001 	movt	r0, #513	@ 0x201
878024e4:	f000 fa30 	bl	87802948 <spich0_readwrite_byte>
878024e8:	f44f 4040 	mov.w	r0, #49152	@ 0xc000
878024ec:	462a      	mov	r2, r5
878024ee:	2114      	movs	r1, #20
878024f0:	f2c0 2009 	movt	r0, #521	@ 0x209
878024f4:	f7fe f85a 	bl	878005ac <gpio_pinwrite>
878024f8:	f44f 4040 	mov.w	r0, #49152	@ 0xc000
878024fc:	4622      	mov	r2, r4
878024fe:	2114      	movs	r1, #20
87802500:	f2c0 2009 	movt	r0, #521	@ 0x209
87802504:	f7fe f852 	bl	878005ac <gpio_pinwrite>
87802508:	4620      	mov	r0, r4
8780250a:	211e      	movs	r1, #30
8780250c:	f2c0 2001 	movt	r0, #513	@ 0x201
87802510:	f000 fa1a 	bl	87802948 <spich0_readwrite_byte>
87802514:	4620      	mov	r0, r4
87802516:	4621      	mov	r1, r4
87802518:	f2c0 2001 	movt	r0, #513	@ 0x201
8780251c:	f000 fa14 	bl	87802948 <spich0_readwrite_byte>
87802520:	f44f 4040 	mov.w	r0, #49152	@ 0xc000
87802524:	462a      	mov	r2, r5
87802526:	2114      	movs	r1, #20
87802528:	f2c0 2009 	movt	r0, #521	@ 0x209
8780252c:	f7fe f83e 	bl	878005ac <gpio_pinwrite>
87802530:	f44f 4040 	mov.w	r0, #49152	@ 0xc000
87802534:	4622      	mov	r2, r4
87802536:	2114      	movs	r1, #20
87802538:	f2c0 2009 	movt	r0, #521	@ 0x209
8780253c:	f7fe f836 	bl	878005ac <gpio_pinwrite>
87802540:	4620      	mov	r0, r4
87802542:	2123      	movs	r1, #35	@ 0x23
87802544:	f2c0 2001 	movt	r0, #513	@ 0x201
87802548:	f000 f9fe 	bl	87802948 <spich0_readwrite_byte>
8780254c:	4620      	mov	r0, r4
8780254e:	4621      	mov	r1, r4
87802550:	f2c0 2001 	movt	r0, #513	@ 0x201
87802554:	f000 f9f8 	bl	87802948 <spich0_readwrite_byte>
87802558:	f44f 4040 	mov.w	r0, #49152	@ 0xc000
8780255c:	462a      	mov	r2, r5
8780255e:	f2c0 2009 	movt	r0, #521	@ 0x209
87802562:	2114      	movs	r1, #20
87802564:	f7fe f822 	bl	878005ac <gpio_pinwrite>
87802568:	4620      	mov	r0, r4
8780256a:	b004      	add	sp, #16
8780256c:	bd70      	pop	{r4, r5, r6, pc}
8780256e:	bf00      	nop

87802570 <icm20608_read_reg>:
87802570:	b538      	push	{r3, r4, r5, lr}
87802572:	f44f 4540 	mov.w	r5, #49152	@ 0xc000
87802576:	f2c0 2509 	movt	r5, #521	@ 0x209
8780257a:	4604      	mov	r4, r0
8780257c:	2200      	movs	r2, #0
8780257e:	4628      	mov	r0, r5
87802580:	2114      	movs	r1, #20
87802582:	f7fe f813 	bl	878005ac <gpio_pinwrite>
87802586:	2000      	movs	r0, #0
87802588:	f044 0180 	orr.w	r1, r4, #128	@ 0x80
8780258c:	f2c0 2001 	movt	r0, #513	@ 0x201
87802590:	f000 f9da 	bl	87802948 <spich0_readwrite_byte>
87802594:	2201      	movs	r2, #1
87802596:	4604      	mov	r4, r0
87802598:	2114      	movs	r1, #20
8780259a:	4628      	mov	r0, r5
8780259c:	f7fe f806 	bl	878005ac <gpio_pinwrite>
878025a0:	4620      	mov	r0, r4
878025a2:	bd38      	pop	{r3, r4, r5, pc}

878025a4 <icm20608_write_reg>:
878025a4:	b5f8      	push	{r3, r4, r5, r6, r7, lr}
878025a6:	f44f 4440 	mov.w	r4, #49152	@ 0xc000
878025aa:	f2c0 2409 	movt	r4, #521	@ 0x209
878025ae:	2500      	movs	r5, #0
878025b0:	2200      	movs	r2, #0
878025b2:	460e      	mov	r6, r1
878025b4:	4607      	mov	r7, r0
878025b6:	f2c0 2501 	movt	r5, #513	@ 0x201
878025ba:	4620      	mov	r0, r4
878025bc:	2114      	movs	r1, #20
878025be:	f7fd fff5 	bl	878005ac <gpio_pinwrite>
878025c2:	f007 017f 	and.w	r1, r7, #127	@ 0x7f
878025c6:	4628      	mov	r0, r5
878025c8:	f000 f9be 	bl	87802948 <spich0_readwrite_byte>
878025cc:	4631      	mov	r1, r6
878025ce:	4628      	mov	r0, r5
878025d0:	f000 f9ba 	bl	87802948 <spich0_readwrite_byte>
878025d4:	4620      	mov	r0, r4
878025d6:	2201      	movs	r2, #1
878025d8:	e8bd 40f8 	ldmia.w	sp!, {r3, r4, r5, r6, r7, lr}
878025dc:	2114      	movs	r1, #20
878025de:	f7fd bfe5 	b.w	878005ac <gpio_pinwrite>
878025e2:	bf00      	nop

878025e4 <icm20608_read_len>:
878025e4:	b570      	push	{r4, r5, r6, lr}
878025e6:	4606      	mov	r6, r0
878025e8:	f44f 4040 	mov.w	r0, #49152	@ 0xc000
878025ec:	4615      	mov	r5, r2
878025ee:	f2c0 2009 	movt	r0, #521	@ 0x209
878025f2:	460c      	mov	r4, r1
878025f4:	2200      	movs	r2, #0
878025f6:	2114      	movs	r1, #20
878025f8:	f7fd ffd8 	bl	878005ac <gpio_pinwrite>
878025fc:	2000      	movs	r0, #0
878025fe:	f046 0180 	orr.w	r1, r6, #128	@ 0x80
87802602:	f2c0 2001 	movt	r0, #513	@ 0x201
87802606:	f000 f99f 	bl	87802948 <spich0_readwrite_byte>
8780260a:	b15d      	cbz	r5, 87802624 <icm20608_read_len+0x40>
8780260c:	2600      	movs	r6, #0
8780260e:	4425      	add	r5, r4
87802610:	f2c0 2601 	movt	r6, #513	@ 0x201
87802614:	21ff      	movs	r1, #255	@ 0xff
87802616:	4630      	mov	r0, r6
87802618:	f000 f996 	bl	87802948 <spich0_readwrite_byte>
8780261c:	f804 0b01 	strb.w	r0, [r4], #1
87802620:	42ac      	cmp	r4, r5
87802622:	d1f7      	bne.n	87802614 <icm20608_read_len+0x30>
87802624:	f44f 4040 	mov.w	r0, #49152	@ 0xc000
87802628:	e8bd 4070 	ldmia.w	sp!, {r4, r5, r6, lr}
8780262c:	2201      	movs	r2, #1
8780262e:	2114      	movs	r1, #20
87802630:	f2c0 2009 	movt	r0, #521	@ 0x209
87802634:	f7fd bfba 	b.w	878005ac <gpio_pinwrite>

87802638 <icm20608_gyro_scaleget>:
87802638:	f44f 4040 	mov.w	r0, #49152	@ 0xc000
8780263c:	b510      	push	{r4, lr}
8780263e:	2200      	movs	r2, #0
87802640:	2114      	movs	r1, #20
87802642:	f2c0 2009 	movt	r0, #521	@ 0x209
87802646:	f7fd ffb1 	bl	878005ac <gpio_pinwrite>
8780264a:	2000      	movs	r0, #0
8780264c:	219b      	movs	r1, #155	@ 0x9b
8780264e:	f2c0 2001 	movt	r0, #513	@ 0x201
87802652:	f000 f979 	bl	87802948 <spich0_readwrite_byte>
87802656:	4604      	mov	r4, r0
87802658:	f44f 4040 	mov.w	r0, #49152	@ 0xc000
8780265c:	2201      	movs	r2, #1
8780265e:	2114      	movs	r1, #20
87802660:	f2c0 2009 	movt	r0, #521	@ 0x209
87802664:	f7fd ffa2 	bl	878005ac <gpio_pinwrite>
87802668:	f3c4 00c1 	ubfx	r0, r4, #3, #2
8780266c:	3801      	subs	r0, #1
8780266e:	b2c0      	uxtb	r0, r0
87802670:	2802      	cmp	r0, #2
87802672:	bf97      	itett	ls
87802674:	f249 1390 	movwls	r3, #37264	@ 0x9190
87802678:	ed9f 0a04 	vldrhi	s0, [pc, #16]	@ 8780268c <icm20608_gyro_scaleget+0x54>
8780267c:	f2c8 7380 	movtls	r3, #34688	@ 0x8780
87802680:	eb03 0380 	addls.w	r3, r3, r0, lsl #2
87802684:	bf98      	it	ls
87802686:	ed93 0a00 	vldrls	s0, [r3]
8780268a:	bd10      	pop	{r4, pc}
8780268c:	43030000 	movwmi	r0, #12288	@ 0x3000

87802690 <icm20608_accel_scaleget>:
87802690:	f44f 4040 	mov.w	r0, #49152	@ 0xc000
87802694:	b510      	push	{r4, lr}
87802696:	2200      	movs	r2, #0
87802698:	2114      	movs	r1, #20
8780269a:	f2c0 2009 	movt	r0, #521	@ 0x209
8780269e:	f7fd ff85 	bl	878005ac <gpio_pinwrite>
878026a2:	2000      	movs	r0, #0
878026a4:	219c      	movs	r1, #156	@ 0x9c
878026a6:	f2c0 2001 	movt	r0, #513	@ 0x201
878026aa:	f000 f94d 	bl	87802948 <spich0_readwrite_byte>
878026ae:	4604      	mov	r4, r0
878026b0:	f44f 4040 	mov.w	r0, #49152	@ 0xc000
878026b4:	2201      	movs	r2, #1
878026b6:	2114      	movs	r1, #20
878026b8:	f2c0 2009 	movt	r0, #521	@ 0x209
878026bc:	f7fd ff76 	bl	878005ac <gpio_pinwrite>
878026c0:	f3c4 00c1 	ubfx	r0, r4, #3, #2
878026c4:	3801      	subs	r0, #1
878026c6:	b2c0      	uxtb	r0, r0
878026c8:	2802      	cmp	r0, #2
878026ca:	bf97      	itett	ls
878026cc:	f249 1390 	movwls	r3, #37264	@ 0x9190
878026d0:	f44f 4080 	movhi.w	r0, #16384	@ 0x4000
878026d4:	f2c8 7380 	movtls	r3, #34688	@ 0x8780
878026d8:	eb03 0340 	addls.w	r3, r3, r0, lsl #1
878026dc:	bf98      	it	ls
878026de:	8998      	ldrhls	r0, [r3, #12]
878026e0:	bd10      	pop	{r4, pc}
878026e2:	bf00      	nop

878026e4 <icm20608_getdata>:
878026e4:	f44f 4040 	mov.w	r0, #49152	@ 0xc000
878026e8:	b530      	push	{r4, r5, lr}
878026ea:	2200      	movs	r2, #0
878026ec:	2114      	movs	r1, #20
878026ee:	f2c0 2009 	movt	r0, #521	@ 0x209
878026f2:	ed2d 8b02 	vpush	{d8}
878026f6:	b08d      	sub	sp, #52	@ 0x34
878026f8:	f7fd ff58 	bl	878005ac <gpio_pinwrite>
878026fc:	f10d 041f 	add.w	r4, sp, #31
87802700:	2000      	movs	r0, #0
87802702:	f10d 052d 	add.w	r5, sp, #45	@ 0x2d
87802706:	21bb      	movs	r1, #187	@ 0xbb
87802708:	f2c0 2001 	movt	r0, #513	@ 0x201
8780270c:	f000 f91c 	bl	87802948 <spich0_readwrite_byte>
87802710:	2000      	movs	r0, #0
87802712:	21ff      	movs	r1, #255	@ 0xff
87802714:	f2c0 2001 	movt	r0, #513	@ 0x201
87802718:	f000 f916 	bl	87802948 <spich0_readwrite_byte>
8780271c:	f804 0f01 	strb.w	r0, [r4, #1]!
87802720:	42a5      	cmp	r5, r4
87802722:	d1f5      	bne.n	87802710 <icm20608_getdata+0x2c>
87802724:	f44f 4040 	mov.w	r0, #49152	@ 0xc000
87802728:	2201      	movs	r2, #1
8780272a:	2114      	movs	r1, #20
8780272c:	f2c0 2009 	movt	r0, #521	@ 0x209
87802730:	f7fd ff3c 	bl	878005ac <gpio_pinwrite>
87802734:	f44f 4040 	mov.w	r0, #49152	@ 0xc000
87802738:	2200      	movs	r2, #0
8780273a:	2114      	movs	r1, #20
8780273c:	f2c0 2009 	movt	r0, #521	@ 0x209
87802740:	f7fd ff34 	bl	878005ac <gpio_pinwrite>
87802744:	2000      	movs	r0, #0
87802746:	219b      	movs	r1, #155	@ 0x9b
87802748:	f2c0 2001 	movt	r0, #513	@ 0x201
8780274c:	f000 f8fc 	bl	87802948 <spich0_readwrite_byte>
87802750:	4604      	mov	r4, r0
87802752:	f44f 4040 	mov.w	r0, #49152	@ 0xc000
87802756:	2201      	movs	r2, #1
87802758:	2114      	movs	r1, #20
8780275a:	f2c0 2009 	movt	r0, #521	@ 0x209
8780275e:	f7fd ff25 	bl	878005ac <gpio_pinwrite>
87802762:	f3c4 03c1 	ubfx	r3, r4, #3, #2
87802766:	f44f 4040 	mov.w	r0, #49152	@ 0xc000
8780276a:	3b01      	subs	r3, #1
8780276c:	2114      	movs	r1, #20
8780276e:	b2db      	uxtb	r3, r3
87802770:	f2c0 2009 	movt	r0, #521	@ 0x209
87802774:	2b02      	cmp	r3, #2
87802776:	bf97      	itett	ls
87802778:	f249 1290 	movwls	r2, #37264	@ 0x9190
8780277c:	ed9f 8a64 	vldrhi	s16, [pc, #400]	@ 87802910 <icm20608_getdata+0x22c>
87802780:	f2c8 7280 	movtls	r2, #34688	@ 0x8780
87802784:	eb02 0283 	addls.w	r2, r2, r3, lsl #2
87802788:	bf98      	it	ls
8780278a:	ed92 8a00 	vldrls	s16, [r2]
8780278e:	2200      	movs	r2, #0
87802790:	f7fd ff0c 	bl	878005ac <gpio_pinwrite>
87802794:	2000      	movs	r0, #0
87802796:	219c      	movs	r1, #156	@ 0x9c
87802798:	f2c0 2001 	movt	r0, #513	@ 0x201
8780279c:	f000 f8d4 	bl	87802948 <spich0_readwrite_byte>
878027a0:	4604      	mov	r4, r0
878027a2:	f44f 4040 	mov.w	r0, #49152	@ 0xc000
878027a6:	2201      	movs	r2, #1
878027a8:	2114      	movs	r1, #20
878027aa:	f2c0 2009 	movt	r0, #521	@ 0x209
878027ae:	f7fd fefd 	bl	878005ac <gpio_pinwrite>
878027b2:	f3c4 03c1 	ubfx	r3, r4, #3, #2
878027b6:	f8bd 1026 	ldrh.w	r1, [sp, #38]	@ 0x26
878027ba:	3b01      	subs	r3, #1
878027bc:	eef3 6a09 	vmov.f32	s13, #57	@ 0x41c80000  25.0
878027c0:	b2db      	uxtb	r3, r3
878027c2:	f8bd 4022 	ldrh.w	r4, [sp, #34]	@ 0x22
878027c6:	bac9      	revsh	r1, r1
878027c8:	f8bd 0024 	ldrh.w	r0, [sp, #36]	@ 0x24
878027cc:	2b02      	cmp	r3, #2
878027ce:	eddf 4b4c 	vldr	d20, [pc, #304]	@ 87802900 <icm20608_getdata+0x21c>
878027d2:	bf98      	it	ls
878027d4:	f249 1290 	movwls	r2, #37264	@ 0x9190
878027d8:	ee07 1a10 	vmov	s14, r1
878027dc:	bf96      	itet	ls
878027de:	f2c8 7280 	movtls	r2, #34688	@ 0x8780
878027e2:	eddf 5a4c 	vldrhi	s11, [pc, #304]	@ 87802914 <icm20608_getdata+0x230>
878027e6:	eb02 0243 	addls.w	r2, r2, r3, lsl #1
878027ea:	eeb8 7ac7 	vcvt.f32.s32	s14, s14
878027ee:	bae4      	revsh	r4, r4
878027f0:	eddf 7a49 	vldr	s15, [pc, #292]	@ 87802918 <icm20608_getdata+0x234>
878027f4:	bf98      	it	ls
878027f6:	8993      	ldrhls	r3, [r2, #12]
878027f8:	bac0      	revsh	r0, r0
878027fa:	f8bd 2020 	ldrh.w	r2, [sp, #32]
878027fe:	ee37 7a66 	vsub.f32	s14, s14, s13
87802802:	ee06 4a90 	vmov	s13, r4
87802806:	bad2      	revsh	r2, r2
87802808:	bf98      	it	ls
8780280a:	ee05 3a90 	vmovls	s11, r3
8780280e:	f8bd 3028 	ldrh.w	r3, [sp, #40]	@ 0x28
87802812:	ee06 2a10 	vmov	s12, r2
87802816:	9207      	str	r2, [sp, #28]
87802818:	bf98      	it	ls
8780281a:	eef8 5ae5 	vcvtls.f32.s32	s11, s11
8780281e:	badb      	revsh	r3, r3
87802820:	eeb8 5ac6 	vcvt.f32.s32	s10, s12
87802824:	f8bd 202a 	ldrh.w	r2, [sp, #42]	@ 0x2a
87802828:	eef7 1ac7 	vcvt.f64.f32	d17, s14
8780282c:	9304      	str	r3, [sp, #16]
8780282e:	bad2      	revsh	r2, r2
87802830:	ee85 4a25 	vdiv.f32	s8, s10, s11
87802834:	ee06 3a10 	vmov	s12, r3
87802838:	f249 73f0 	movw	r3, #38896	@ 0x97f0
8780283c:	ee05 0a10 	vmov	s10, r0
87802840:	f2c8 7380 	movt	r3, #34688	@ 0x8780
87802844:	ee07 2a10 	vmov	s14, r2
87802848:	611c      	str	r4, [r3, #16]
8780284a:	f103 041c 	add.w	r4, r3, #28
8780284e:	9205      	str	r2, [sp, #20]
87802850:	eec1 0ba4 	vdiv.f64	d16, d17, d20
87802854:	eeb8 6ac6 	vcvt.f32.s32	s12, s12
87802858:	eef8 6ae6 	vcvt.f32.s32	s13, s13
8780285c:	eeb8 5ac5 	vcvt.f32.s32	s10, s10
87802860:	f8bd 202c 	ldrh.w	r2, [sp, #44]	@ 0x2c
87802864:	eeb8 7ac7 	vcvt.f32.s32	s14, s14
87802868:	eec6 4a08 	vdiv.f32	s9, s12, s16
8780286c:	bad2      	revsh	r2, r2
8780286e:	ee86 6aa5 	vdiv.f32	s12, s13, s11
87802872:	eec5 6a25 	vdiv.f32	s13, s10, s11
87802876:	ee87 5a08 	vdiv.f32	s10, s14, s16
8780287a:	ee07 2a10 	vmov	s14, r2
8780287e:	eef3 3b09 	vmov.f64	d19, #57	@ 0x41c80000  25.0
87802882:	eeb8 7ac7 	vcvt.f32.s32	s14, s14
87802886:	eddf 2b20 	vldr	d18, [pc, #128]	@ 87802908 <icm20608_getdata+0x224>
8780288a:	ee24 4a27 	vmul.f32	s8, s8, s15
8780288e:	6158      	str	r0, [r3, #20]
87802890:	eec7 5a08 	vdiv.f32	s11, s14, s16
87802894:	6199      	str	r1, [r3, #24]
87802896:	9206      	str	r2, [sp, #24]
87802898:	eddd 4b04 	vldr	d20, [sp, #16]
8780289c:	eddd 5b06 	vldr	d21, [sp, #24]
878028a0:	ee64 4aa7 	vmul.f32	s9, s9, s15
878028a4:	ee26 6a27 	vmul.f32	s12, s12, s15
878028a8:	ee26 7aa7 	vmul.f32	s14, s13, s15
878028ac:	ee65 6a27 	vmul.f32	s13, s10, s15
878028b0:	ee70 0ba3 	vadd.f64	d16, d16, d19
878028b4:	eebd 6ac6 	vcvt.s32.f32	s12, s12
878028b8:	eebd 7ac7 	vcvt.s32.f32	s14, s14
878028bc:	f943 4adf 	vst1.64	{d20-d21}, [r3 :64]
878028c0:	ee60 0ba2 	vmul.f64	d16, d16, d18
878028c4:	ed8d 4a03 	vstr	s8, [sp, #12]
878028c8:	ee65 7aa7 	vmul.f32	s15, s11, s15
878028cc:	edcd 4a00 	vstr	s9, [sp]
878028d0:	ed83 6a0b 	vstr	s12, [r3, #44]	@ 0x2c
878028d4:	ed83 7a0c 	vstr	s14, [r3, #48]	@ 0x30
878028d8:	edcd 7a02 	vstr	s15, [sp, #8]
878028dc:	edcd 6a01 	vstr	s13, [sp, #4]
878028e0:	f96d 2adf 	vld1.64	{d18-d19}, [sp :64]
878028e4:	fffb 2762 	vcvt.s32.f32	q9, q9
878028e8:	eefd 7be0 	vcvt.s32.f64	s15, d16
878028ec:	edc3 7a0d 	vstr	s15, [r3, #52]	@ 0x34
878028f0:	f944 2a8f 	vst1.32	{d18-d19}, [r4]
878028f4:	b00d      	add	sp, #52	@ 0x34
878028f6:	ecbd 8b02 	vpop	{d8}
878028fa:	bd30      	pop	{r4, r5, pc}
878028fc:	f3af 8000 	nop.w
87802900:	cccccccd 	stclgt	12, cr12, [ip], {205}	@ 0xcd
87802904:	40746ccc 	rsbsmi	r6, r4, ip, asr #25
87802908:	00000000 	andeq	r0, r0, r0
8780290c:	40590000 	subsmi	r0, r9, r0
87802910:	43030000 	movwmi	r0, #12288	@ 0x3000
87802914:	46800000 	strmi	r0, [r0], r0
87802918:	42c80000 	sbcmi	r0, r8, #0

8780291c <spi_init>:
8780291c:	2200      	movs	r2, #0
8780291e:	f44f 5100 	mov.w	r1, #8192	@ 0x2000
87802922:	6082      	str	r2, [r0, #8]
87802924:	6883      	ldr	r3, [r0, #8]
87802926:	f443 03e0 	orr.w	r3, r3, #7340032	@ 0x700000
8780292a:	f043 0319 	orr.w	r3, r3, #25
8780292e:	6083      	str	r3, [r0, #8]
87802930:	60c2      	str	r2, [r0, #12]
87802932:	61c1      	str	r1, [r0, #28]
87802934:	6883      	ldr	r3, [r0, #8]
87802936:	f423 437f 	bic.w	r3, r3, #65280	@ 0xff00
8780293a:	6083      	str	r3, [r0, #8]
8780293c:	6883      	ldr	r3, [r0, #8]
8780293e:	f443 4310 	orr.w	r3, r3, #36864	@ 0x9000
87802942:	6083      	str	r3, [r0, #8]
87802944:	4770      	bx	lr
87802946:	bf00      	nop

87802948 <spich0_readwrite_byte>:
87802948:	6883      	ldr	r3, [r0, #8]
8780294a:	f423 2340 	bic.w	r3, r3, #786432	@ 0xc0000
8780294e:	6083      	str	r3, [r0, #8]
87802950:	6883      	ldr	r3, [r0, #8]
87802952:	6083      	str	r3, [r0, #8]
87802954:	6983      	ldr	r3, [r0, #24]
87802956:	07da      	lsls	r2, r3, #31
87802958:	d5fc      	bpl.n	87802954 <spich0_readwrite_byte+0xc>
8780295a:	6041      	str	r1, [r0, #4]
8780295c:	6983      	ldr	r3, [r0, #24]
8780295e:	071b      	lsls	r3, r3, #28
87802960:	d5fc      	bpl.n	8780295c <spich0_readwrite_byte+0x14>
87802962:	6800      	ldr	r0, [r0, #0]
87802964:	b2c0      	uxtb	r0, r0
87802966:	4770      	bx	lr

87802968 <ft5426_init>:
87802968:	2300      	movs	r3, #0
8780296a:	b5f0      	push	{r4, r5, r6, r7, lr}
8780296c:	f2c0 230e 	movt	r3, #526	@ 0x20e
87802970:	2112      	movs	r1, #18
87802972:	2702      	movs	r7, #2
87802974:	f247 02b0 	movw	r2, #28848	@ 0x70b0
87802978:	f44f 4540 	mov.w	r5, #49152	@ 0xc000
8780297c:	f8c3 10bc 	str.w	r1, [r3, #188]	@ 0xbc
87802980:	b08f      	sub	sp, #60	@ 0x3c
87802982:	f8c3 75ac 	str.w	r7, [r3, #1452]	@ 0x5ac
87802986:	2605      	movs	r6, #5
87802988:	f8c3 10c0 	str.w	r1, [r3, #192]	@ 0xc0
8780298c:	f2c0 2509 	movt	r5, #521	@ 0x209
87802990:	f8c3 75b0 	str.w	r7, [r3, #1456]	@ 0x5b0
87802994:	f8c3 2348 	str.w	r2, [r3, #840]	@ 0x348
87802998:	2401      	movs	r4, #1
8780299a:	f8c3 234c 	str.w	r2, [r3, #844]	@ 0x34c
8780299e:	f24f 0280 	movw	r2, #61568	@ 0xf080
878029a2:	f8c3 6080 	str.w	r6, [r3, #128]	@ 0x80
878029a6:	2109      	movs	r1, #9
878029a8:	f8c3 230c 	str.w	r2, [r3, #780]	@ 0x30c
878029ac:	4628      	mov	r0, r5
878029ae:	aa02      	add	r2, sp, #8
878029b0:	9402      	str	r4, [sp, #8]
878029b2:	9604      	str	r6, [sp, #16]
878029b4:	f7fd fe6a 	bl	8780068c <gpio_init>
878029b8:	ee9f 3f10 	mrc	15, 4, r3, cr15, cr0, {0}
878029bc:	f36f 030f 	bfc	r3, #0, #16
878029c0:	2204      	movs	r2, #4
878029c2:	f503 5380 	add.w	r3, r3, #4096	@ 0x1000
878029c6:	f642 4129 	movw	r1, #11305	@ 0x2c29
878029ca:	f8c3 210c 	str.w	r2, [r3, #268]	@ 0x10c
878029ce:	f2c8 7180 	movt	r1, #34688	@ 0x8780
878029d2:	2200      	movs	r2, #0
878029d4:	2062      	movs	r0, #98	@ 0x62
878029d6:	f7fd fe93 	bl	87800700 <system_register_irqhandler>
878029da:	4628      	mov	r0, r5
878029dc:	2109      	movs	r1, #9
878029de:	f7fd fdf7 	bl	878005d0 <gpio_enable>
878029e2:	f44f 4540 	mov.w	r5, #49152	@ 0xc000
878029e6:	2300      	movs	r3, #0
878029e8:	f2c0 2329 	movt	r3, #553	@ 0x229
878029ec:	f2c0 250a 	movt	r5, #522	@ 0x20a
878029f0:	f241 02b0 	movw	r2, #4272	@ 0x10b0
878029f4:	62de      	str	r6, [r3, #44]	@ 0x2c
878029f6:	4628      	mov	r0, r5
878029f8:	671a      	str	r2, [r3, #112]	@ 0x70
878029fa:	2109      	movs	r1, #9
878029fc:	aa05      	add	r2, sp, #20
878029fe:	9405      	str	r4, [sp, #20]
87802a00:	2638      	movs	r6, #56	@ 0x38
87802a02:	f88d 4018 	strb.w	r4, [sp, #24]
87802a06:	f7fd fe41 	bl	8780068c <gpio_init>
87802a0a:	2200      	movs	r2, #0
87802a0c:	2109      	movs	r1, #9
87802a0e:	4628      	mov	r0, r5
87802a10:	f7fd fdcc 	bl	878005ac <gpio_pinwrite>
87802a14:	2032      	movs	r0, #50	@ 0x32
87802a16:	f7fe f9fb 	bl	87800e10 <delay_ms>
87802a1a:	4622      	mov	r2, r4
87802a1c:	2109      	movs	r1, #9
87802a1e:	4628      	mov	r0, r5
87802a20:	f44f 4580 	mov.w	r5, #16384	@ 0x4000
87802a24:	f7fd fdc2 	bl	878005ac <gpio_pinwrite>
87802a28:	f2c0 251a 	movt	r5, #538	@ 0x21a
87802a2c:	2032      	movs	r0, #50	@ 0x32
87802a2e:	f7fe f9ef 	bl	87800e10 <delay_ms>
87802a32:	4628      	mov	r0, r5
87802a34:	f7ff f95c 	bl	87801cf0 <i2c_init>
87802a38:	eddf 0b23 	vldr	d16, [pc, #140]	@ 87802ac8 <ft5426_init+0x160>
87802a3c:	ab09      	add	r3, sp, #36	@ 0x24
87802a3e:	a908      	add	r1, sp, #32
87802a40:	f88d 6020 	strb.w	r6, [sp, #32]
87802a44:	f88d 402c 	strb.w	r4, [sp, #44]	@ 0x2c
87802a48:	4628      	mov	r0, r5
87802a4a:	f943 078f 	vst1.32	{d16}, [r3]
87802a4e:	ab01      	add	r3, sp, #4
87802a50:	930c      	str	r3, [sp, #48]	@ 0x30
87802a52:	970d      	str	r7, [sp, #52]	@ 0x34
87802a54:	f10d 0703 	add.w	r7, sp, #3
87802a58:	f7ff fa40 	bl	87801edc <i2c_master_transfer>
87802a5c:	f8bd 1004 	ldrh.w	r1, [sp, #4]
87802a60:	f644 10d4 	movw	r0, #18900	@ 0x49d4
87802a64:	f2c8 7080 	movt	r0, #34688	@ 0x8780
87802a68:	ba49      	rev16	r1, r1
87802a6a:	b289      	uxth	r1, r1
87802a6c:	f000 f96e 	bl	87802d4c <printf>
87802a70:	efc0 0010 	vmov.i32	d16, #0	@ 0x00000000
87802a74:	ab09      	add	r3, sp, #36	@ 0x24
87802a76:	a908      	add	r1, sp, #32
87802a78:	f88d 6020 	strb.w	r6, [sp, #32]
87802a7c:	f88d 402c 	strb.w	r4, [sp, #44]	@ 0x2c
87802a80:	4628      	mov	r0, r5
87802a82:	f943 078f 	vst1.32	{d16}, [r3]
87802a86:	2300      	movs	r3, #0
87802a88:	f88d 3003 	strb.w	r3, [sp, #3]
87802a8c:	970c      	str	r7, [sp, #48]	@ 0x30
87802a8e:	940d      	str	r4, [sp, #52]	@ 0x34
87802a90:	f7ff fa24 	bl	87801edc <i2c_master_transfer>
87802a94:	ab09      	add	r3, sp, #36	@ 0x24
87802a96:	eddf 0b0e 	vldr	d16, [pc, #56]	@ 87802ad0 <ft5426_init+0x168>
87802a9a:	970c      	str	r7, [sp, #48]	@ 0x30
87802a9c:	a908      	add	r1, sp, #32
87802a9e:	f88d 6020 	strb.w	r6, [sp, #32]
87802aa2:	4628      	mov	r0, r5
87802aa4:	f943 078f 	vst1.32	{d16}, [r3]
87802aa8:	f88d 4003 	strb.w	r4, [sp, #3]
87802aac:	f88d 402c 	strb.w	r4, [sp, #44]	@ 0x2c
87802ab0:	940d      	str	r4, [sp, #52]	@ 0x34
87802ab2:	f7ff fa13 	bl	87801edc <i2c_master_transfer>
87802ab6:	f649 0328 	movw	r3, #38952	@ 0x9828
87802aba:	f2c8 7380 	movt	r3, #34688	@ 0x8780
87802abe:	701c      	strb	r4, [r3, #0]
87802ac0:	b00f      	add	sp, #60	@ 0x3c
87802ac2:	bdf0      	pop	{r4, r5, r6, r7, pc}
87802ac4:	f3af 8000 	nop.w
87802ac8:	00000001 	andeq	r0, r0, r1
87802acc:	000000a1 	andeq	r0, r0, r1, lsr #1
87802ad0:	00000000 	andeq	r0, r0, r0
87802ad4:	000000a4 	andeq	r0, r0, r4, lsr #1

87802ad8 <ft5426_write_byte>:
87802ad8:	b510      	push	{r4, lr}
87802ada:	4684      	mov	ip, r0
87802adc:	b088      	sub	sp, #32
87802ade:	460c      	mov	r4, r1
87802ae0:	f44f 4080 	mov.w	r0, #16384	@ 0x4000
87802ae4:	2100      	movs	r1, #0
87802ae6:	2301      	movs	r3, #1
87802ae8:	9103      	str	r1, [sp, #12]
87802aea:	f88d 2007 	strb.w	r2, [sp, #7]
87802aee:	a902      	add	r1, sp, #8
87802af0:	f10d 0207 	add.w	r2, sp, #7
87802af4:	f2c0 201a 	movt	r0, #538	@ 0x21a
87802af8:	9206      	str	r2, [sp, #24]
87802afa:	f88d c008 	strb.w	ip, [sp, #8]
87802afe:	9404      	str	r4, [sp, #16]
87802b00:	f88d 3014 	strb.w	r3, [sp, #20]
87802b04:	9307      	str	r3, [sp, #28]
87802b06:	f7ff f9e9 	bl	87801edc <i2c_master_transfer>
87802b0a:	3800      	subs	r0, #0
87802b0c:	bf18      	it	ne
87802b0e:	2001      	movne	r0, #1
87802b10:	b008      	add	sp, #32
87802b12:	bd10      	pop	{r4, pc}

87802b14 <ft5426_read_byte>:
87802b14:	b500      	push	{lr}
87802b16:	460a      	mov	r2, r1
87802b18:	b089      	sub	sp, #36	@ 0x24
87802b1a:	2100      	movs	r1, #0
87802b1c:	4684      	mov	ip, r0
87802b1e:	f44f 4080 	mov.w	r0, #16384	@ 0x4000
87802b22:	f88d 1007 	strb.w	r1, [sp, #7]
87802b26:	f10d 0107 	add.w	r1, sp, #7
87802b2a:	2301      	movs	r3, #1
87802b2c:	9106      	str	r1, [sp, #24]
87802b2e:	f2c0 201a 	movt	r0, #538	@ 0x21a
87802b32:	a902      	add	r1, sp, #8
87802b34:	f88d c008 	strb.w	ip, [sp, #8]
87802b38:	e9cd 3203 	strd	r3, r2, [sp, #12]
87802b3c:	f88d 3014 	strb.w	r3, [sp, #20]
87802b40:	9307      	str	r3, [sp, #28]
87802b42:	f7ff f9cb 	bl	87801edc <i2c_master_transfer>
87802b46:	f89d 0007 	ldrb.w	r0, [sp, #7]
87802b4a:	b009      	add	sp, #36	@ 0x24
87802b4c:	f85d fb04 	ldr.w	pc, [sp], #4

87802b50 <ft5426_read_len>:
87802b50:	b510      	push	{r4, lr}
87802b52:	4684      	mov	ip, r0
87802b54:	b086      	sub	sp, #24
87802b56:	f44f 4080 	mov.w	r0, #16384	@ 0x4000
87802b5a:	2401      	movs	r4, #1
87802b5c:	f2c0 201a 	movt	r0, #538	@ 0x21a
87802b60:	9102      	str	r1, [sp, #8]
87802b62:	4669      	mov	r1, sp
87802b64:	9304      	str	r3, [sp, #16]
87802b66:	f88d c000 	strb.w	ip, [sp]
87802b6a:	9401      	str	r4, [sp, #4]
87802b6c:	f88d 400c 	strb.w	r4, [sp, #12]
87802b70:	9205      	str	r2, [sp, #20]
87802b72:	f7ff f9b3 	bl	87801edc <i2c_master_transfer>
87802b76:	b006      	add	sp, #24
87802b78:	bd10      	pop	{r4, pc}
87802b7a:	bf00      	nop

87802b7c <ft5426_touch_tpcoord>:
87802b7c:	b570      	push	{r4, r5, r6, lr}
87802b7e:	2300      	movs	r3, #0
87802b80:	b08e      	sub	sp, #56	@ 0x38
87802b82:	eddf 0b25 	vldr	d16, [pc, #148]	@ 87802c18 <ft5426_touch_tpcoord+0x9c>
87802b86:	ac06      	add	r4, sp, #24
87802b88:	f44f 4080 	mov.w	r0, #16384	@ 0x4000
87802b8c:	f88d 3000 	strb.w	r3, [sp]
87802b90:	ab07      	add	r3, sp, #28
87802b92:	2501      	movs	r5, #1
87802b94:	2638      	movs	r6, #56	@ 0x38
87802b96:	f943 078f 	vst1.32	{d16}, [r3]
87802b9a:	4621      	mov	r1, r4
87802b9c:	f2c0 201a 	movt	r0, #538	@ 0x21a
87802ba0:	f8cd d028 	str.w	sp, [sp, #40]	@ 0x28
87802ba4:	f88d 5024 	strb.w	r5, [sp, #36]	@ 0x24
87802ba8:	950b      	str	r5, [sp, #44]	@ 0x2c
87802baa:	f88d 6018 	strb.w	r6, [sp, #24]
87802bae:	f7ff f995 	bl	87801edc <i2c_master_transfer>
87802bb2:	f89d 3000 	ldrb.w	r3, [sp]
87802bb6:	f44f 4080 	mov.w	r0, #16384	@ 0x4000
87802bba:	f88d 500c 	strb.w	r5, [sp, #12]
87802bbe:	f649 0528 	movw	r5, #38952	@ 0x9828
87802bc2:	f2c8 7580 	movt	r5, #34688	@ 0x8780
87802bc6:	9404      	str	r4, [sp, #16]
87802bc8:	706b      	strb	r3, [r5, #1]
87802bca:	231e      	movs	r3, #30
87802bcc:	9305      	str	r3, [sp, #20]
87802bce:	ab01      	add	r3, sp, #4
87802bd0:	eddf 0b13 	vldr	d16, [pc, #76]	@ 87802c20 <ft5426_touch_tpcoord+0xa4>
87802bd4:	4669      	mov	r1, sp
87802bd6:	f88d 6000 	strb.w	r6, [sp]
87802bda:	f2c0 201a 	movt	r0, #538	@ 0x21a
87802bde:	f943 078f 	vst1.32	{d16}, [r3]
87802be2:	f7ff f97b 	bl	87801edc <i2c_master_transfer>
87802be6:	4628      	mov	r0, r5
87802be8:	4621      	mov	r1, r4
87802bea:	ad33      	add	r5, sp, #204	@ 0xcc
87802bec:	780c      	ldrb	r4, [r1, #0]
87802bee:	3106      	adds	r1, #6
87802bf0:	f811 2c05 	ldrb.w	r2, [r1, #-5]
87802bf4:	f831 3c04 	ldrh.w	r3, [r1, #-4]
87802bf8:	42a9      	cmp	r1, r5
87802bfa:	ea42 2204 	orr.w	r2, r2, r4, lsl #8
87802bfe:	ba5b      	rev16	r3, r3
87802c00:	f3c3 030b 	ubfx	r3, r3, #0, #12
87802c04:	f3c2 020b 	ubfx	r2, r2, #0, #12
87802c08:	8182      	strh	r2, [r0, #12]
87802c0a:	f820 3f02 	strh.w	r3, [r0, #2]!
87802c0e:	d1ed      	bne.n	87802bec <ft5426_touch_tpcoord+0x70>
87802c10:	b00e      	add	sp, #56	@ 0x38
87802c12:	bd70      	pop	{r4, r5, r6, pc}
87802c14:	f3af 8000 	nop.w
87802c18:	00000001 	andeq	r0, r0, r1
87802c1c:	00000002 	andeq	r0, r0, r2
87802c20:	00000001 	andeq	r0, r0, r1
87802c24:	00000003 	andeq	r0, r0, r3

87802c28 <gpio1_09_IRQHandler>:
87802c28:	b508      	push	{r3, lr}
87802c2a:	f649 0328 	movw	r3, #38952	@ 0x9828
87802c2e:	f2c8 7380 	movt	r3, #34688	@ 0x8780
87802c32:	781b      	ldrb	r3, [r3, #0]
87802c34:	2b01      	cmp	r3, #1
87802c36:	d008      	beq.n	87802c4a <gpio1_09_IRQHandler+0x22>
87802c38:	f44f 4040 	mov.w	r0, #49152	@ 0xc000
87802c3c:	e8bd 4008 	ldmia.w	sp!, {r3, lr}
87802c40:	2109      	movs	r1, #9
87802c42:	f2c0 2009 	movt	r0, #521	@ 0x209
87802c46:	f7fd bcd1 	b.w	878005ec <gpio_clearIntFlags>
87802c4a:	f7ff ff97 	bl	87802b7c <ft5426_touch_tpcoord>
87802c4e:	e7f3      	b.n	87802c38 <gpio1_09_IRQHandler+0x10>

87802c50 <__div64_32>:
87802c50:	e92d 47f0 	stmdb	sp!, {r4, r5, r6, r7, r8, r9, sl, lr}
87802c54:	f04f 0a00 	mov.w	sl, #0
87802c58:	6847      	ldr	r7, [r0, #4]
87802c5a:	4680      	mov	r8, r0
87802c5c:	4689      	mov	r9, r1
87802c5e:	460c      	mov	r4, r1
87802c60:	6806      	ldr	r6, [r0, #0]
87802c62:	4655      	mov	r5, sl
87802c64:	42b9      	cmp	r1, r7
87802c66:	bf84      	itt	hi
87802c68:	4650      	movhi	r0, sl
87802c6a:	46d4      	movhi	ip, sl
87802c6c:	d806      	bhi.n	87802c7c <__div64_32+0x2c>
87802c6e:	4638      	mov	r0, r7
87802c70:	f001 fc3a 	bl	878044e8 <__udivsi3>
87802c74:	fb00 7719 	mls	r7, r0, r9, r7
87802c78:	4684      	mov	ip, r0
87802c7a:	4650      	mov	r0, sl
87802c7c:	45b1      	cmp	r9, r6
87802c7e:	f04f 0301 	mov.w	r3, #1
87802c82:	eb7a 0a07 	sbcs.w	sl, sl, r7
87802c86:	f04f 0e00 	mov.w	lr, #0
87802c8a:	bf34      	ite	cc
87802c8c:	2101      	movcc	r1, #1
87802c8e:	2100      	movcs	r1, #0
87802c90:	f1b9 0f00 	cmp.w	r9, #0
87802c94:	bf0c      	ite	eq
87802c96:	2100      	moveq	r1, #0
87802c98:	f001 0101 	andne.w	r1, r1, #1
87802c9c:	b391      	cbz	r1, 87802d04 <__div64_32+0xb4>
87802c9e:	1924      	adds	r4, r4, r4
87802ca0:	416d      	adcs	r5, r5
87802ca2:	18db      	adds	r3, r3, r3
87802ca4:	eb4e 010e 	adc.w	r1, lr, lr
87802ca8:	2c01      	cmp	r4, #1
87802caa:	f175 0200 	sbcs.w	r2, r5, #0
87802cae:	bfac      	ite	ge
87802cb0:	2201      	movge	r2, #1
87802cb2:	2200      	movlt	r2, #0
87802cb4:	42b4      	cmp	r4, r6
87802cb6:	f002 0201 	and.w	r2, r2, #1
87802cba:	eb75 0e07 	sbcs.w	lr, r5, r7
87802cbe:	468e      	mov	lr, r1
87802cc0:	bf28      	it	cs
87802cc2:	2200      	movcs	r2, #0
87802cc4:	2a00      	cmp	r2, #0
87802cc6:	d1ea      	bne.n	87802c9e <__div64_32+0x4e>
87802cc8:	42a6      	cmp	r6, r4
87802cca:	ea4f 0153 	mov.w	r1, r3, lsr #1
87802cce:	eb77 0905 	sbcs.w	r9, r7, r5
87802cd2:	ea4f 0254 	mov.w	r2, r4, lsr #1
87802cd6:	d306      	bcc.n	87802ce6 <__div64_32+0x96>
87802cd8:	1b36      	subs	r6, r6, r4
87802cda:	eb67 0705 	sbc.w	r7, r7, r5
87802cde:	181b      	adds	r3, r3, r0
87802ce0:	eb4e 0c0c 	adc.w	ip, lr, ip
87802ce4:	4618      	mov	r0, r3
87802ce6:	ea41 73ce 	orr.w	r3, r1, lr, lsl #31
87802cea:	ea4f 0e5e 	mov.w	lr, lr, lsr #1
87802cee:	ea42 74c5 	orr.w	r4, r2, r5, lsl #31
87802cf2:	086d      	lsrs	r5, r5, #1
87802cf4:	ea53 020e 	orrs.w	r2, r3, lr
87802cf8:	d1e6      	bne.n	87802cc8 <__div64_32+0x78>
87802cfa:	e9c8 0c00 	strd	r0, ip, [r8]
87802cfe:	4630      	mov	r0, r6
87802d00:	e8bd 87f0 	ldmia.w	sp!, {r4, r5, r6, r7, r8, r9, sl, pc}
87802d04:	468e      	mov	lr, r1
87802d06:	2301      	movs	r3, #1
87802d08:	e7de      	b.n	87802cc8 <__div64_32+0x78>
87802d0a:	bf00      	nop

87802d0c <__muldi3>:
87802d0c:	4684      	mov	ip, r0
87802d0e:	b570      	push	{r4, r5, r6, lr}
87802d10:	ea4f 4410 	mov.w	r4, r0, lsr #16
87802d14:	ea4f 4e12 	mov.w	lr, r2, lsr #16
87802d18:	ea20 4504 	bic.w	r5, r0, r4, lsl #16
87802d1c:	ea22 460e 	bic.w	r6, r2, lr, lsl #16
87802d20:	fb05 f006 	mul.w	r0, r5, r6
87802d24:	fb04 f606 	mul.w	r6, r4, r6
87802d28:	fb0e f505 	mul.w	r5, lr, r5
87802d2c:	fb04 fe0e 	mul.w	lr, r4, lr
87802d30:	1975      	adds	r5, r6, r5
87802d32:	bf28      	it	cs
87802d34:	f50e 3e80 	addcs.w	lr, lr, #65536	@ 0x10000
87802d38:	eb10 4005 	adds.w	r0, r0, r5, lsl #16
87802d3c:	eb4e 4e15 	adc.w	lr, lr, r5, lsr #16
87802d40:	fb03 e30c 	mla	r3, r3, ip, lr
87802d44:	fb02 3101 	mla	r1, r2, r1, r3
87802d48:	bd70      	pop	{r4, r5, r6, pc}
87802d4a:	bf00      	nop

87802d4c <printf>:
87802d4c:	b40f      	push	{r0, r1, r2, r3}
87802d4e:	f649 0040 	movw	r0, #38976	@ 0x9840
87802d52:	b5f8      	push	{r3, r4, r5, r6, r7, lr}
87802d54:	f649 0540 	movw	r5, #38976	@ 0x9840
87802d58:	aa06      	add	r2, sp, #24
87802d5a:	f2c8 7080 	movt	r0, #34688	@ 0x8780
87802d5e:	f2c8 7580 	movt	r5, #34688	@ 0x8780
87802d62:	2400      	movs	r4, #0
87802d64:	f852 1b04 	ldr.w	r1, [r2], #4
87802d68:	462e      	mov	r6, r5
87802d6a:	f001 f933 	bl	87803fd4 <vsprintf>
87802d6e:	4607      	mov	r7, r0
87802d70:	e004      	b.n	87802d7c <printf+0x30>
87802d72:	3401      	adds	r4, #1
87802d74:	f815 0b01 	ldrb.w	r0, [r5], #1
87802d78:	f7fd fff0 	bl	87800d5c <put_char>
87802d7c:	4630      	mov	r0, r6
87802d7e:	f000 f8fb 	bl	87802f78 <strlen>
87802d82:	42a0      	cmp	r0, r4
87802d84:	d8f5      	bhi.n	87802d72 <printf+0x26>
87802d86:	4638      	mov	r0, r7
87802d88:	e8bd 40f8 	ldmia.w	sp!, {r3, r4, r5, r6, r7, lr}
87802d8c:	b004      	add	sp, #16
87802d8e:	4770      	bx	lr

87802d90 <scanf>:
87802d90:	b40f      	push	{r0, r1, r2, r3}
87802d92:	b570      	push	{r4, r5, r6, lr}
87802d94:	2500      	movs	r5, #0
87802d96:	4e10      	ldr	r6, [pc, #64]	@ (87802dd8 <scanf+0x48>)
87802d98:	e002      	b.n	87802da0 <scanf+0x10>
87802d9a:	3501      	adds	r5, #1
87802d9c:	f806 4b01 	strb.w	r4, [r6], #1
87802da0:	f7fd fff6 	bl	87800d90 <get_char>
87802da4:	4604      	mov	r4, r0
87802da6:	f7fd ffd9 	bl	87800d5c <put_char>
87802daa:	2c0a      	cmp	r4, #10
87802dac:	bf18      	it	ne
87802dae:	2c0d      	cmpne	r4, #13
87802db0:	d1f3      	bne.n	87802d9a <scanf+0xa>
87802db2:	f649 0040 	movw	r0, #38976	@ 0x9840
87802db6:	aa04      	add	r2, sp, #16
87802db8:	f2c8 7080 	movt	r0, #34688	@ 0x8780
87802dbc:	2300      	movs	r3, #0
87802dbe:	4405      	add	r5, r0
87802dc0:	f852 1b04 	ldr.w	r1, [r2], #4
87802dc4:	f500 6080 	add.w	r0, r0, #1024	@ 0x400
87802dc8:	f885 3400 	strb.w	r3, [r5, #1024]	@ 0x400
87802dcc:	f001 f916 	bl	87803ffc <vsscanf>
87802dd0:	e8bd 4070 	ldmia.w	sp!, {r4, r5, r6, lr}
87802dd4:	b004      	add	sp, #16
87802dd6:	4770      	bx	lr
87802dd8:	87809c40 	strhi	r9, [r0, r0, asr #24]

87802ddc <strnicmp>:
87802ddc:	b32a      	cbz	r2, 87802e2a <strnicmp+0x4e>
87802dde:	f249 1cc8 	movw	ip, #37320	@ 0x91c8
87802de2:	b5f0      	push	{r4, r5, r6, r7, lr}
87802de4:	3801      	subs	r0, #1
87802de6:	188f      	adds	r7, r1, r2
87802de8:	f2c8 7c80 	movt	ip, #34688	@ 0x8780
87802dec:	e005      	b.n	87802dfa <strnicmp+0x1e>
87802dee:	b2f3      	uxtb	r3, r6
87802df0:	b9cc      	cbnz	r4, 87802e26 <strnicmp+0x4a>
87802df2:	429a      	cmp	r2, r3
87802df4:	d121      	bne.n	87802e3a <strnicmp+0x5e>
87802df6:	428f      	cmp	r7, r1
87802df8:	d01d      	beq.n	87802e36 <strnicmp+0x5a>
87802dfa:	f810 3f01 	ldrb.w	r3, [r0, #1]!
87802dfe:	f811 2b01 	ldrb.w	r2, [r1], #1
87802e02:	b1a3      	cbz	r3, 87802e2e <strnicmp+0x52>
87802e04:	b1aa      	cbz	r2, 87802e32 <strnicmp+0x56>
87802e06:	4293      	cmp	r3, r2
87802e08:	d0f5      	beq.n	87802df6 <strnicmp+0x1a>
87802e0a:	f81c e003 	ldrb.w	lr, [ip, r3]
87802e0e:	f102 0520 	add.w	r5, r2, #32
87802e12:	f81c 4002 	ldrb.w	r4, [ip, r2]
87802e16:	f103 0620 	add.w	r6, r3, #32
87802e1a:	f01e 0f01 	tst.w	lr, #1
87802e1e:	f004 0401 	and.w	r4, r4, #1
87802e22:	d1e4      	bne.n	87802dee <strnicmp+0x12>
87802e24:	b14c      	cbz	r4, 87802e3a <strnicmp+0x5e>
87802e26:	b2ea      	uxtb	r2, r5
87802e28:	e7e3      	b.n	87802df2 <strnicmp+0x16>
87802e2a:	4610      	mov	r0, r2
87802e2c:	4770      	bx	lr
87802e2e:	4250      	negs	r0, r2
87802e30:	bdf0      	pop	{r4, r5, r6, r7, pc}
87802e32:	4618      	mov	r0, r3
87802e34:	bdf0      	pop	{r4, r5, r6, r7, pc}
87802e36:	2000      	movs	r0, #0
87802e38:	bdf0      	pop	{r4, r5, r6, r7, pc}
87802e3a:	1a98      	subs	r0, r3, r2
87802e3c:	bdf0      	pop	{r4, r5, r6, r7, pc}
87802e3e:	bf00      	nop

87802e40 <strcpy>:
87802e40:	1e42      	subs	r2, r0, #1
87802e42:	f811 3b01 	ldrb.w	r3, [r1], #1
87802e46:	f802 3f01 	strb.w	r3, [r2, #1]!
87802e4a:	2b00      	cmp	r3, #0
87802e4c:	d1f9      	bne.n	87802e42 <strcpy+0x2>
87802e4e:	4770      	bx	lr

87802e50 <strncpy>:
87802e50:	f100 3cff 	add.w	ip, r0, #4294967295	@ 0xffffffff
87802e54:	440a      	add	r2, r1
87802e56:	e004      	b.n	87802e62 <strncpy+0x12>
87802e58:	f811 3b01 	ldrb.w	r3, [r1], #1
87802e5c:	f80c 3f01 	strb.w	r3, [ip, #1]!
87802e60:	b10b      	cbz	r3, 87802e66 <strncpy+0x16>
87802e62:	4291      	cmp	r1, r2
87802e64:	d1f8      	bne.n	87802e58 <strncpy+0x8>
87802e66:	4770      	bx	lr

87802e68 <strcat>:
87802e68:	7803      	ldrb	r3, [r0, #0]
87802e6a:	b163      	cbz	r3, 87802e86 <strcat+0x1e>
87802e6c:	4603      	mov	r3, r0
87802e6e:	f813 2f01 	ldrb.w	r2, [r3, #1]!
87802e72:	2a00      	cmp	r2, #0
87802e74:	d1fb      	bne.n	87802e6e <strcat+0x6>
87802e76:	3b01      	subs	r3, #1
87802e78:	f811 2b01 	ldrb.w	r2, [r1], #1
87802e7c:	f803 2f01 	strb.w	r2, [r3, #1]!
87802e80:	2a00      	cmp	r2, #0
87802e82:	d1f9      	bne.n	87802e78 <strcat+0x10>
87802e84:	4770      	bx	lr
87802e86:	4603      	mov	r3, r0
87802e88:	e7f5      	b.n	87802e76 <strcat+0xe>
87802e8a:	bf00      	nop

87802e8c <strncat>:
87802e8c:	b902      	cbnz	r2, 87802e90 <strncat+0x4>
87802e8e:	4770      	bx	lr
87802e90:	7803      	ldrb	r3, [r0, #0]
87802e92:	b1cb      	cbz	r3, 87802ec8 <strncat+0x3c>
87802e94:	4603      	mov	r3, r0
87802e96:	b410      	push	{r4}
87802e98:	f813 4f01 	ldrb.w	r4, [r3, #1]!
87802e9c:	2c00      	cmp	r4, #0
87802e9e:	d1fb      	bne.n	87802e98 <strncat+0xc>
87802ea0:	3901      	subs	r1, #1
87802ea2:	eb03 0c02 	add.w	ip, r3, r2
87802ea6:	e001      	b.n	87802eac <strncat+0x20>
87802ea8:	4563      	cmp	r3, ip
87802eaa:	d008      	beq.n	87802ebe <strncat+0x32>
87802eac:	f811 2f01 	ldrb.w	r2, [r1, #1]!
87802eb0:	f803 2b01 	strb.w	r2, [r3], #1
87802eb4:	2a00      	cmp	r2, #0
87802eb6:	d1f7      	bne.n	87802ea8 <strncat+0x1c>
87802eb8:	f85d 4b04 	ldr.w	r4, [sp], #4
87802ebc:	4770      	bx	lr
87802ebe:	2200      	movs	r2, #0
87802ec0:	701a      	strb	r2, [r3, #0]
87802ec2:	f85d 4b04 	ldr.w	r4, [sp], #4
87802ec6:	4770      	bx	lr
87802ec8:	4603      	mov	r3, r0
87802eca:	3901      	subs	r1, #1
87802ecc:	eb00 0c02 	add.w	ip, r0, r2
87802ed0:	e001      	b.n	87802ed6 <strncat+0x4a>
87802ed2:	4563      	cmp	r3, ip
87802ed4:	d006      	beq.n	87802ee4 <strncat+0x58>
87802ed6:	f811 2f01 	ldrb.w	r2, [r1, #1]!
87802eda:	f803 2b01 	strb.w	r2, [r3], #1
87802ede:	2a00      	cmp	r2, #0
87802ee0:	d1f7      	bne.n	87802ed2 <strncat+0x46>
87802ee2:	4770      	bx	lr
87802ee4:	2200      	movs	r2, #0
87802ee6:	701a      	strb	r2, [r3, #0]
87802ee8:	4770      	bx	lr
87802eea:	bf00      	nop

87802eec <strcmp>:
87802eec:	1e42      	subs	r2, r0, #1
87802eee:	e000      	b.n	87802ef2 <strcmp+0x6>
87802ef0:	b143      	cbz	r3, 87802f04 <strcmp+0x18>
87802ef2:	f812 3f01 	ldrb.w	r3, [r2, #1]!
87802ef6:	f811 0b01 	ldrb.w	r0, [r1], #1
87802efa:	1a18      	subs	r0, r3, r0
87802efc:	b240      	sxtb	r0, r0
87802efe:	2800      	cmp	r0, #0
87802f00:	d0f6      	beq.n	87802ef0 <strcmp+0x4>
87802f02:	4770      	bx	lr
87802f04:	4618      	mov	r0, r3
87802f06:	4770      	bx	lr

87802f08 <strncmp>:
87802f08:	b192      	cbz	r2, 87802f30 <strncmp+0x28>
87802f0a:	f100 3cff 	add.w	ip, r0, #4294967295	@ 0xffffffff
87802f0e:	440a      	add	r2, r1
87802f10:	e002      	b.n	87802f18 <strncmp+0x10>
87802f12:	b153      	cbz	r3, 87802f2a <strncmp+0x22>
87802f14:	428a      	cmp	r2, r1
87802f16:	d00a      	beq.n	87802f2e <strncmp+0x26>
87802f18:	f81c 3f01 	ldrb.w	r3, [ip, #1]!
87802f1c:	f811 0b01 	ldrb.w	r0, [r1], #1
87802f20:	1a18      	subs	r0, r3, r0
87802f22:	b240      	sxtb	r0, r0
87802f24:	2800      	cmp	r0, #0
87802f26:	d0f4      	beq.n	87802f12 <strncmp+0xa>
87802f28:	4770      	bx	lr
87802f2a:	4618      	mov	r0, r3
87802f2c:	4770      	bx	lr
87802f2e:	4770      	bx	lr
87802f30:	4610      	mov	r0, r2
87802f32:	4770      	bx	lr

87802f34 <strchr>:
87802f34:	7803      	ldrb	r3, [r0, #0]
87802f36:	b2c9      	uxtb	r1, r1
87802f38:	428b      	cmp	r3, r1
87802f3a:	d006      	beq.n	87802f4a <strchr+0x16>
87802f3c:	b123      	cbz	r3, 87802f48 <strchr+0x14>
87802f3e:	f810 3f01 	ldrb.w	r3, [r0, #1]!
87802f42:	428b      	cmp	r3, r1
87802f44:	d1fa      	bne.n	87802f3c <strchr+0x8>
87802f46:	4770      	bx	lr
87802f48:	4618      	mov	r0, r3
87802f4a:	4770      	bx	lr

87802f4c <strrchr>:
87802f4c:	7803      	ldrb	r3, [r0, #0]
87802f4e:	4684      	mov	ip, r0
87802f50:	b183      	cbz	r3, 87802f74 <strrchr+0x28>
87802f52:	4603      	mov	r3, r0
87802f54:	f813 2f01 	ldrb.w	r2, [r3, #1]!
87802f58:	2a00      	cmp	r2, #0
87802f5a:	d1fb      	bne.n	87802f54 <strrchr+0x8>
87802f5c:	b2c9      	uxtb	r1, r1
87802f5e:	e001      	b.n	87802f64 <strrchr+0x18>
87802f60:	459c      	cmp	ip, r3
87802f62:	d805      	bhi.n	87802f70 <strrchr+0x24>
87802f64:	4618      	mov	r0, r3
87802f66:	f813 2901 	ldrb.w	r2, [r3], #-1
87802f6a:	428a      	cmp	r2, r1
87802f6c:	d1f8      	bne.n	87802f60 <strrchr+0x14>
87802f6e:	4770      	bx	lr
87802f70:	2000      	movs	r0, #0
87802f72:	4770      	bx	lr
87802f74:	4603      	mov	r3, r0
87802f76:	e7f1      	b.n	87802f5c <strrchr+0x10>

87802f78 <strlen>:
87802f78:	7803      	ldrb	r3, [r0, #0]
87802f7a:	b133      	cbz	r3, 87802f8a <strlen+0x12>
87802f7c:	4603      	mov	r3, r0
87802f7e:	f813 2f01 	ldrb.w	r2, [r3, #1]!
87802f82:	2a00      	cmp	r2, #0
87802f84:	d1fb      	bne.n	87802f7e <strlen+0x6>
87802f86:	1a18      	subs	r0, r3, r0
87802f88:	4770      	bx	lr
87802f8a:	4618      	mov	r0, r3
87802f8c:	4770      	bx	lr
87802f8e:	bf00      	nop

87802f90 <strnlen>:
87802f90:	4603      	mov	r3, r0
87802f92:	eb00 0c01 	add.w	ip, r0, r1
87802f96:	b911      	cbnz	r1, 87802f9e <strnlen+0xe>
87802f98:	e00a      	b.n	87802fb0 <strnlen+0x20>
87802f9a:	4563      	cmp	r3, ip
87802f9c:	d006      	beq.n	87802fac <strnlen+0x1c>
87802f9e:	461a      	mov	r2, r3
87802fa0:	3301      	adds	r3, #1
87802fa2:	7811      	ldrb	r1, [r2, #0]
87802fa4:	2900      	cmp	r1, #0
87802fa6:	d1f8      	bne.n	87802f9a <strnlen+0xa>
87802fa8:	1a10      	subs	r0, r2, r0
87802faa:	4770      	bx	lr
87802fac:	1a18      	subs	r0, r3, r0
87802fae:	4770      	bx	lr
87802fb0:	4608      	mov	r0, r1
87802fb2:	4770      	bx	lr

87802fb4 <strspn>:
87802fb4:	b510      	push	{r4, lr}
87802fb6:	468e      	mov	lr, r1
87802fb8:	7801      	ldrb	r1, [r0, #0]
87802fba:	b1a1      	cbz	r1, 87802fe6 <strspn+0x32>
87802fbc:	f89e 4000 	ldrb.w	r4, [lr]
87802fc0:	b17c      	cbz	r4, 87802fe2 <strspn+0x2e>
87802fc2:	4684      	mov	ip, r0
87802fc4:	2000      	movs	r0, #0
87802fc6:	4672      	mov	r2, lr
87802fc8:	4623      	mov	r3, r4
87802fca:	e002      	b.n	87802fd2 <strspn+0x1e>
87802fcc:	f812 3f01 	ldrb.w	r3, [r2, #1]!
87802fd0:	b133      	cbz	r3, 87802fe0 <strspn+0x2c>
87802fd2:	4299      	cmp	r1, r3
87802fd4:	d1fa      	bne.n	87802fcc <strspn+0x18>
87802fd6:	f81c 1f01 	ldrb.w	r1, [ip, #1]!
87802fda:	3001      	adds	r0, #1
87802fdc:	2900      	cmp	r1, #0
87802fde:	d1f2      	bne.n	87802fc6 <strspn+0x12>
87802fe0:	bd10      	pop	{r4, pc}
87802fe2:	4620      	mov	r0, r4
87802fe4:	bd10      	pop	{r4, pc}
87802fe6:	4608      	mov	r0, r1
87802fe8:	bd10      	pop	{r4, pc}
87802fea:	bf00      	nop

87802fec <strpbrk>:
87802fec:	b430      	push	{r4, r5}
87802fee:	7804      	ldrb	r4, [r0, #0]
87802ff0:	b17c      	cbz	r4, 87803012 <strpbrk+0x26>
87802ff2:	780d      	ldrb	r5, [r1, #0]
87802ff4:	b185      	cbz	r5, 87803018 <strpbrk+0x2c>
87802ff6:	460a      	mov	r2, r1
87802ff8:	462b      	mov	r3, r5
87802ffa:	e002      	b.n	87803002 <strpbrk+0x16>
87802ffc:	f812 3f01 	ldrb.w	r3, [r2, #1]!
87803000:	b11b      	cbz	r3, 8780300a <strpbrk+0x1e>
87803002:	42a3      	cmp	r3, r4
87803004:	d1fa      	bne.n	87802ffc <strpbrk+0x10>
87803006:	bc30      	pop	{r4, r5}
87803008:	4770      	bx	lr
8780300a:	f810 4f01 	ldrb.w	r4, [r0, #1]!
8780300e:	2c00      	cmp	r4, #0
87803010:	d1f1      	bne.n	87802ff6 <strpbrk+0xa>
87803012:	4620      	mov	r0, r4
87803014:	bc30      	pop	{r4, r5}
87803016:	4770      	bx	lr
87803018:	f810 4f01 	ldrb.w	r4, [r0, #1]!
8780301c:	2c00      	cmp	r4, #0
8780301e:	d1fb      	bne.n	87803018 <strpbrk+0x2c>
87803020:	e7f7      	b.n	87803012 <strpbrk+0x26>
87803022:	bf00      	nop

87803024 <strtok>:
87803024:	b5f0      	push	{r4, r5, r6, r7, lr}
87803026:	f24a 0740 	movw	r7, #41024	@ 0xa040
8780302a:	460c      	mov	r4, r1
8780302c:	f2c8 7780 	movt	r7, #34688	@ 0x8780
87803030:	b388      	cbz	r0, 87803096 <strtok+0x72>
87803032:	7801      	ldrb	r1, [r0, #0]
87803034:	2900      	cmp	r1, #0
87803036:	d038      	beq.n	878030aa <strtok+0x86>
87803038:	7825      	ldrb	r5, [r4, #0]
8780303a:	46ac      	mov	ip, r5
8780303c:	b185      	cbz	r5, 87803060 <strtok+0x3c>
8780303e:	4686      	mov	lr, r0
87803040:	f04f 0c00 	mov.w	ip, #0
87803044:	4622      	mov	r2, r4
87803046:	462b      	mov	r3, r5
87803048:	e002      	b.n	87803050 <strtok+0x2c>
8780304a:	f812 3f01 	ldrb.w	r3, [r2, #1]!
8780304e:	b13b      	cbz	r3, 87803060 <strtok+0x3c>
87803050:	4299      	cmp	r1, r3
87803052:	d1fa      	bne.n	8780304a <strtok+0x26>
87803054:	f81e 1f01 	ldrb.w	r1, [lr, #1]!
87803058:	f10c 0c01 	add.w	ip, ip, #1
8780305c:	2900      	cmp	r1, #0
8780305e:	d1f1      	bne.n	87803044 <strtok+0x20>
87803060:	f810 100c 	ldrb.w	r1, [r0, ip]
87803064:	4460      	add	r0, ip
87803066:	b301      	cbz	r1, 878030aa <strtok+0x86>
87803068:	4606      	mov	r6, r0
8780306a:	b1cd      	cbz	r5, 878030a0 <strtok+0x7c>
8780306c:	4622      	mov	r2, r4
8780306e:	462b      	mov	r3, r5
87803070:	e002      	b.n	87803078 <strtok+0x54>
87803072:	f812 3f01 	ldrb.w	r3, [r2, #1]!
87803076:	b143      	cbz	r3, 8780308a <strtok+0x66>
87803078:	4299      	cmp	r1, r3
8780307a:	d1fa      	bne.n	87803072 <strtok+0x4e>
8780307c:	7833      	ldrb	r3, [r6, #0]
8780307e:	b113      	cbz	r3, 87803086 <strtok+0x62>
87803080:	2300      	movs	r3, #0
87803082:	f806 3b01 	strb.w	r3, [r6], #1
87803086:	603e      	str	r6, [r7, #0]
87803088:	bdf0      	pop	{r4, r5, r6, r7, pc}
8780308a:	f816 1f01 	ldrb.w	r1, [r6, #1]!
8780308e:	2900      	cmp	r1, #0
87803090:	d1ec      	bne.n	8780306c <strtok+0x48>
87803092:	460e      	mov	r6, r1
87803094:	e7f7      	b.n	87803086 <strtok+0x62>
87803096:	6838      	ldr	r0, [r7, #0]
87803098:	2800      	cmp	r0, #0
8780309a:	d1ca      	bne.n	87803032 <strtok+0xe>
8780309c:	2000      	movs	r0, #0
8780309e:	bdf0      	pop	{r4, r5, r6, r7, pc}
878030a0:	f816 1f01 	ldrb.w	r1, [r6, #1]!
878030a4:	2900      	cmp	r1, #0
878030a6:	d1fb      	bne.n	878030a0 <strtok+0x7c>
878030a8:	e7f3      	b.n	87803092 <strtok+0x6e>
878030aa:	2300      	movs	r3, #0
878030ac:	2000      	movs	r0, #0
878030ae:	603b      	str	r3, [r7, #0]
878030b0:	e7f5      	b.n	8780309e <strtok+0x7a>
878030b2:	bf00      	nop

878030b4 <strsep>:
878030b4:	b530      	push	{r4, r5, lr}
878030b6:	4686      	mov	lr, r0
878030b8:	6800      	ldr	r0, [r0, #0]
878030ba:	b190      	cbz	r0, 878030e2 <strsep+0x2e>
878030bc:	7804      	ldrb	r4, [r0, #0]
878030be:	b174      	cbz	r4, 878030de <strsep+0x2a>
878030c0:	780d      	ldrb	r5, [r1, #0]
878030c2:	4684      	mov	ip, r0
878030c4:	b19d      	cbz	r5, 878030ee <strsep+0x3a>
878030c6:	460a      	mov	r2, r1
878030c8:	462b      	mov	r3, r5
878030ca:	e002      	b.n	878030d2 <strsep+0x1e>
878030cc:	f812 3f01 	ldrb.w	r3, [r2, #1]!
878030d0:	b143      	cbz	r3, 878030e4 <strsep+0x30>
878030d2:	42a3      	cmp	r3, r4
878030d4:	d1fa      	bne.n	878030cc <strsep+0x18>
878030d6:	4664      	mov	r4, ip
878030d8:	2200      	movs	r2, #0
878030da:	f804 2b01 	strb.w	r2, [r4], #1
878030de:	f8ce 4000 	str.w	r4, [lr]
878030e2:	bd30      	pop	{r4, r5, pc}
878030e4:	f81c 4f01 	ldrb.w	r4, [ip, #1]!
878030e8:	2c00      	cmp	r4, #0
878030ea:	d1ec      	bne.n	878030c6 <strsep+0x12>
878030ec:	e7f7      	b.n	878030de <strsep+0x2a>
878030ee:	f81c 4f01 	ldrb.w	r4, [ip, #1]!
878030f2:	2c00      	cmp	r4, #0
878030f4:	d1fb      	bne.n	878030ee <strsep+0x3a>
878030f6:	e7f2      	b.n	878030de <strsep+0x2a>

878030f8 <memset>:
878030f8:	b132      	cbz	r2, 87803108 <memset+0x10>
878030fa:	b2c9      	uxtb	r1, r1
878030fc:	4402      	add	r2, r0
878030fe:	4603      	mov	r3, r0
87803100:	f803 1b01 	strb.w	r1, [r3], #1
87803104:	429a      	cmp	r2, r3
87803106:	d1fb      	bne.n	87803100 <memset+0x8>
87803108:	4770      	bx	lr
8780310a:	bf00      	nop

8780310c <bcopy>:
8780310c:	b13a      	cbz	r2, 8780311e <bcopy+0x12>
8780310e:	3901      	subs	r1, #1
87803110:	4402      	add	r2, r0
87803112:	f810 3b01 	ldrb.w	r3, [r0], #1
87803116:	4290      	cmp	r0, r2
87803118:	f801 3f01 	strb.w	r3, [r1, #1]!
8780311c:	d1f9      	bne.n	87803112 <bcopy+0x6>
8780311e:	4770      	bx	lr

87803120 <memcpy>:
87803120:	b13a      	cbz	r2, 87803132 <memcpy+0x12>
87803122:	1e43      	subs	r3, r0, #1
87803124:	440a      	add	r2, r1
87803126:	f811 cb01 	ldrb.w	ip, [r1], #1
8780312a:	4291      	cmp	r1, r2
8780312c:	f803 cf01 	strb.w	ip, [r3, #1]!
87803130:	d1f9      	bne.n	87803126 <memcpy+0x6>
87803132:	4770      	bx	lr

87803134 <memmove>:
87803134:	4288      	cmp	r0, r1
87803136:	d809      	bhi.n	8780314c <memmove+0x18>
87803138:	b19a      	cbz	r2, 87803162 <memmove+0x2e>
8780313a:	1e43      	subs	r3, r0, #1
8780313c:	440a      	add	r2, r1
8780313e:	f811 cb01 	ldrb.w	ip, [r1], #1
87803142:	4291      	cmp	r1, r2
87803144:	f803 cf01 	strb.w	ip, [r3, #1]!
87803148:	d1f9      	bne.n	8780313e <memmove+0xa>
8780314a:	4770      	bx	lr
8780314c:	eb00 0c02 	add.w	ip, r0, r2
87803150:	188b      	adds	r3, r1, r2
87803152:	b132      	cbz	r2, 87803162 <memmove+0x2e>
87803154:	4662      	mov	r2, ip
87803156:	f813 cd01 	ldrb.w	ip, [r3, #-1]!
8780315a:	4299      	cmp	r1, r3
8780315c:	f802 cd01 	strb.w	ip, [r2, #-1]!
87803160:	d1f9      	bne.n	87803156 <memmove+0x22>
87803162:	4770      	bx	lr

87803164 <memcmp>:
87803164:	b17a      	cbz	r2, 87803186 <memcmp+0x22>
87803166:	3a01      	subs	r2, #1
87803168:	1e43      	subs	r3, r0, #1
8780316a:	3901      	subs	r1, #1
8780316c:	eb00 0c02 	add.w	ip, r0, r2
87803170:	e001      	b.n	87803176 <memcmp+0x12>
87803172:	4563      	cmp	r3, ip
87803174:	d006      	beq.n	87803184 <memcmp+0x20>
87803176:	f813 0f01 	ldrb.w	r0, [r3, #1]!
8780317a:	f811 2f01 	ldrb.w	r2, [r1, #1]!
8780317e:	1a80      	subs	r0, r0, r2
87803180:	d0f7      	beq.n	87803172 <memcmp+0xe>
87803182:	4770      	bx	lr
87803184:	4770      	bx	lr
87803186:	4610      	mov	r0, r2
87803188:	e7fb      	b.n	87803182 <memcmp+0x1e>
8780318a:	bf00      	nop

8780318c <memscan>:
8780318c:	b14a      	cbz	r2, 878031a2 <memscan+0x16>
8780318e:	4603      	mov	r3, r0
87803190:	4402      	add	r2, r0
87803192:	e001      	b.n	87803198 <memscan+0xc>
87803194:	4293      	cmp	r3, r2
87803196:	d005      	beq.n	878031a4 <memscan+0x18>
87803198:	4618      	mov	r0, r3
8780319a:	f813 cb01 	ldrb.w	ip, [r3], #1
8780319e:	458c      	cmp	ip, r1
878031a0:	d1f8      	bne.n	87803194 <memscan+0x8>
878031a2:	4770      	bx	lr
878031a4:	4618      	mov	r0, r3
878031a6:	4770      	bx	lr

878031a8 <strstr>:
878031a8:	780b      	ldrb	r3, [r1, #0]
878031aa:	b34b      	cbz	r3, 87803200 <strstr+0x58>
878031ac:	460b      	mov	r3, r1
878031ae:	b5f0      	push	{r4, r5, r6, r7, lr}
878031b0:	f813 2f01 	ldrb.w	r2, [r3, #1]!
878031b4:	2a00      	cmp	r2, #0
878031b6:	d1fb      	bne.n	878031b0 <strstr+0x8>
878031b8:	1a5e      	subs	r6, r3, r1
878031ba:	d020      	beq.n	878031fe <strstr+0x56>
878031bc:	7803      	ldrb	r3, [r0, #0]
878031be:	b12b      	cbz	r3, 878031cc <strstr+0x24>
878031c0:	4603      	mov	r3, r0
878031c2:	f813 2f01 	ldrb.w	r2, [r3, #1]!
878031c6:	2a00      	cmp	r2, #0
878031c8:	d1fb      	bne.n	878031c2 <strstr+0x1a>
878031ca:	1a1b      	subs	r3, r3, r0
878031cc:	42b3      	cmp	r3, r6
878031ce:	db15      	blt.n	878031fc <strstr+0x54>
878031d0:	1984      	adds	r4, r0, r6
878031d2:	1e4f      	subs	r7, r1, #1
878031d4:	18c5      	adds	r5, r0, r3
878031d6:	1e43      	subs	r3, r0, #1
878031d8:	463a      	mov	r2, r7
878031da:	e002      	b.n	878031e2 <strstr+0x3a>
878031dc:	f1be 0f01 	cmp.w	lr, #1
878031e0:	d00d      	beq.n	878031fe <strstr+0x56>
878031e2:	f813 cf01 	ldrb.w	ip, [r3, #1]!
878031e6:	f812 1f01 	ldrb.w	r1, [r2, #1]!
878031ea:	eba4 0e03 	sub.w	lr, r4, r3
878031ee:	458c      	cmp	ip, r1
878031f0:	d0f4      	beq.n	878031dc <strstr+0x34>
878031f2:	3001      	adds	r0, #1
878031f4:	3401      	adds	r4, #1
878031f6:	1a2b      	subs	r3, r5, r0
878031f8:	429e      	cmp	r6, r3
878031fa:	ddec      	ble.n	878031d6 <strstr+0x2e>
878031fc:	2000      	movs	r0, #0
878031fe:	bdf0      	pop	{r4, r5, r6, r7, pc}
87803200:	4770      	bx	lr
87803202:	bf00      	nop

87803204 <memchr>:
87803204:	b2c9      	uxtb	r1, r1
87803206:	4402      	add	r2, r0
87803208:	e004      	b.n	87803214 <memchr+0x10>
8780320a:	f813 cb01 	ldrb.w	ip, [r3], #1
8780320e:	458c      	cmp	ip, r1
87803210:	d004      	beq.n	8780321c <memchr+0x18>
87803212:	4618      	mov	r0, r3
87803214:	4290      	cmp	r0, r2
87803216:	4603      	mov	r3, r0
87803218:	d1f7      	bne.n	8780320a <memchr+0x6>
8780321a:	2000      	movs	r0, #0
8780321c:	4770      	bx	lr
8780321e:	bf00      	nop

87803220 <number>:
87803220:	e92d 4ff0 	stmdb	sp!, {r4, r5, r6, r7, r8, r9, sl, fp, lr}
87803224:	b0a5      	sub	sp, #148	@ 0x94
87803226:	9e31      	ldr	r6, [sp, #196]	@ 0xc4
87803228:	4604      	mov	r4, r0
8780322a:	460d      	mov	r5, r1
8780322c:	982e      	ldr	r0, [sp, #184]	@ 0xb8
8780322e:	f3c6 1140 	ubfx	r1, r6, #5, #1
87803232:	f006 0b20 	and.w	fp, r6, #32
87803236:	280a      	cmp	r0, #10
87803238:	bf0c      	ite	eq
8780323a:	f04f 0e00 	moveq.w	lr, #0
8780323e:	f001 0e01 	andne.w	lr, r1, #1
87803242:	f016 0110 	ands.w	r1, r6, #16
87803246:	9101      	str	r1, [sp, #4]
87803248:	bf16      	itet	ne
8780324a:	f026 0601 	bicne.w	r6, r6, #1
8780324e:	f006 0111 	andeq.w	r1, r6, #17
87803252:	2110      	movne	r1, #16
87803254:	9102      	str	r1, [sp, #8]
87803256:	f016 0102 	ands.w	r1, r6, #2
8780325a:	f000 809c 	beq.w	87803396 <number+0x176>
8780325e:	2b00      	cmp	r3, #0
87803260:	f2c0 80a9 	blt.w	878033b6 <number+0x196>
87803264:	0771      	lsls	r1, r6, #29
87803266:	f100 80f6 	bmi.w	87803456 <number+0x236>
8780326a:	f016 0108 	ands.w	r1, r6, #8
8780326e:	f000 8092 	beq.w	87803396 <number+0x176>
87803272:	992f      	ldr	r1, [sp, #188]	@ 0xbc
87803274:	3901      	subs	r1, #1
87803276:	912f      	str	r1, [sp, #188]	@ 0xbc
87803278:	2120      	movs	r1, #32
8780327a:	9103      	str	r1, [sp, #12]
8780327c:	f1be 0f00 	cmp.w	lr, #0
87803280:	f040 808e 	bne.w	878033a0 <number+0x180>
87803284:	ea52 0103 	orrs.w	r1, r2, r3
87803288:	f040 80d8 	bne.w	8780343c <number+0x21c>
8780328c:	f04f 0c00 	mov.w	ip, #0
87803290:	2101      	movs	r1, #1
87803292:	2330      	movs	r3, #48	@ 0x30
87803294:	f88d 302c 	strb.w	r3, [sp, #44]	@ 0x2c
87803298:	9b30      	ldr	r3, [sp, #192]	@ 0xc0
8780329a:	9a2f      	ldr	r2, [sp, #188]	@ 0xbc
8780329c:	428b      	cmp	r3, r1
8780329e:	bfb8      	it	lt
878032a0:	460b      	movlt	r3, r1
878032a2:	1ad0      	subs	r0, r2, r3
878032a4:	9a02      	ldr	r2, [sp, #8]
878032a6:	b982      	cbnz	r2, 878032ca <number+0xaa>
878032a8:	2800      	cmp	r0, #0
878032aa:	bfd8      	it	le
878032ac:	f100 30ff 	addle.w	r0, r0, #4294967295	@ 0xffffffff
878032b0:	dd0b      	ble.n	878032ca <number+0xaa>
878032b2:	4420      	add	r0, r4
878032b4:	2220      	movs	r2, #32
878032b6:	42a5      	cmp	r5, r4
878032b8:	f104 0401 	add.w	r4, r4, #1
878032bc:	bf88      	it	hi
878032be:	f804 2c01 	strbhi.w	r2, [r4, #-1]
878032c2:	4284      	cmp	r4, r0
878032c4:	d1f7      	bne.n	878032b6 <number+0x96>
878032c6:	f04f 30ff 	mov.w	r0, #4294967295	@ 0xffffffff
878032ca:	9a03      	ldr	r2, [sp, #12]
878032cc:	b12a      	cbz	r2, 878032da <number+0xba>
878032ce:	42ac      	cmp	r4, r5
878032d0:	f104 0401 	add.w	r4, r4, #1
878032d4:	bf38      	it	cc
878032d6:	f804 2c01 	strbcc.w	r2, [r4, #-1]
878032da:	f1be 0f00 	cmp.w	lr, #0
878032de:	d011      	beq.n	87803304 <number+0xe4>
878032e0:	9f2e      	ldr	r7, [sp, #184]	@ 0xb8
878032e2:	42ac      	cmp	r4, r5
878032e4:	bf3c      	itt	cc
878032e6:	2230      	movcc	r2, #48	@ 0x30
878032e8:	7022      	strbcc	r2, [r4, #0]
878032ea:	1c62      	adds	r2, r4, #1
878032ec:	2f10      	cmp	r7, #16
878032ee:	bf18      	it	ne
878032f0:	4614      	movne	r4, r2
878032f2:	d107      	bne.n	87803304 <number+0xe4>
878032f4:	4295      	cmp	r5, r2
878032f6:	f104 0402 	add.w	r4, r4, #2
878032fa:	bf84      	itt	hi
878032fc:	f04b 0258 	orrhi.w	r2, fp, #88	@ 0x58
87803300:	f804 2c01 	strbhi.w	r2, [r4, #-1]
87803304:	9a01      	ldr	r2, [sp, #4]
87803306:	b992      	cbnz	r2, 8780332e <number+0x10e>
87803308:	f016 0f01 	tst.w	r6, #1
8780330c:	bf0c      	ite	eq
8780330e:	2220      	moveq	r2, #32
87803310:	2230      	movne	r2, #48	@ 0x30
87803312:	1e46      	subs	r6, r0, #1
87803314:	f100 81a2 	bmi.w	8780365c <number+0x43c>
87803318:	4420      	add	r0, r4
8780331a:	42a5      	cmp	r5, r4
8780331c:	f104 0401 	add.w	r4, r4, #1
87803320:	bf88      	it	hi
87803322:	f804 2c01 	strbhi.w	r2, [r4, #-1]
87803326:	4284      	cmp	r4, r0
87803328:	d1f7      	bne.n	8780331a <number+0xfa>
8780332a:	f04f 30ff 	mov.w	r0, #4294967295	@ 0xffffffff
8780332e:	4299      	cmp	r1, r3
87803330:	bfbe      	ittt	lt
87803332:	1a5b      	sublt	r3, r3, r1
87803334:	2230      	movlt	r2, #48	@ 0x30
87803336:	191b      	addlt	r3, r3, r4
87803338:	f280 809e 	bge.w	87803478 <number+0x258>
8780333c:	42a5      	cmp	r5, r4
8780333e:	f104 0401 	add.w	r4, r4, #1
87803342:	bf88      	it	hi
87803344:	f804 2c01 	strbhi.w	r2, [r4, #-1]
87803348:	429c      	cmp	r4, r3
8780334a:	d1f7      	bne.n	8780333c <number+0x11c>
8780334c:	f1bc 0f00 	cmp.w	ip, #0
87803350:	f2c0 8097 	blt.w	87803482 <number+0x262>
87803354:	aa0b      	add	r2, sp, #44	@ 0x2c
87803356:	4462      	add	r2, ip
87803358:	f10c 0c01 	add.w	ip, ip, #1
8780335c:	449c      	add	ip, r3
8780335e:	429d      	cmp	r5, r3
87803360:	f103 0301 	add.w	r3, r3, #1
87803364:	bf88      	it	hi
87803366:	7811      	ldrbhi	r1, [r2, #0]
87803368:	f102 32ff 	add.w	r2, r2, #4294967295	@ 0xffffffff
8780336c:	bf88      	it	hi
8780336e:	f803 1c01 	strbhi.w	r1, [r3, #-1]
87803372:	4563      	cmp	r3, ip
87803374:	d1f3      	bne.n	8780335e <number+0x13e>
87803376:	2800      	cmp	r0, #0
87803378:	f340 8087 	ble.w	8780348a <number+0x26a>
8780337c:	4460      	add	r0, ip
8780337e:	2320      	movs	r3, #32
87803380:	4565      	cmp	r5, ip
87803382:	f10c 0c01 	add.w	ip, ip, #1
87803386:	bf88      	it	hi
87803388:	f80c 3c01 	strbhi.w	r3, [ip, #-1]
8780338c:	4584      	cmp	ip, r0
8780338e:	d1f7      	bne.n	87803380 <number+0x160>
87803390:	b025      	add	sp, #148	@ 0x94
87803392:	e8bd 8ff0 	ldmia.w	sp!, {r4, r5, r6, r7, r8, r9, sl, fp, pc}
87803396:	9103      	str	r1, [sp, #12]
87803398:	f1be 0f00 	cmp.w	lr, #0
8780339c:	f43f af72 	beq.w	87803284 <number+0x64>
878033a0:	992e      	ldr	r1, [sp, #184]	@ 0xb8
878033a2:	2910      	cmp	r1, #16
878033a4:	992f      	ldr	r1, [sp, #188]	@ 0xbc
878033a6:	d060      	beq.n	8780346a <number+0x24a>
878033a8:	3901      	subs	r1, #1
878033aa:	912f      	str	r1, [sp, #188]	@ 0xbc
878033ac:	ea52 0103 	orrs.w	r1, r2, r3
878033b0:	f43f af6c 	beq.w	8780328c <number+0x6c>
878033b4:	e00e      	b.n	878033d4 <number+0x1b4>
878033b6:	4252      	negs	r2, r2
878033b8:	eb63 0343 	sbc.w	r3, r3, r3, lsl #1
878033bc:	f1be 0f00 	cmp.w	lr, #0
878033c0:	d037      	beq.n	87803432 <number+0x212>
878033c2:	992e      	ldr	r1, [sp, #184]	@ 0xb8
878033c4:	2910      	cmp	r1, #16
878033c6:	992f      	ldr	r1, [sp, #188]	@ 0xbc
878033c8:	f000 814a 	beq.w	87803660 <number+0x440>
878033cc:	3902      	subs	r1, #2
878033ce:	912f      	str	r1, [sp, #188]	@ 0xbc
878033d0:	212d      	movs	r1, #45	@ 0x2d
878033d2:	9103      	str	r1, [sp, #12]
878033d4:	992e      	ldr	r1, [sp, #184]	@ 0xb8
878033d6:	2003      	movs	r0, #3
878033d8:	f101 39ff 	add.w	r9, r1, #4294967295	@ 0xffffffff
878033dc:	f249 18a8 	movw	r8, #37288	@ 0x91a8
878033e0:	af0b      	add	r7, sp, #44	@ 0x2c
878033e2:	f2c8 7880 	movt	r8, #34688	@ 0x8780
878033e6:	2100      	movs	r1, #0
878033e8:	f1c0 0a20 	rsb	sl, r0, #32
878033ec:	e9cd e404 	strd	lr, r4, [sp, #16]
878033f0:	b2d4      	uxtb	r4, r2
878033f2:	f1b0 0e20 	subs.w	lr, r0, #32
878033f6:	fa22 f200 	lsr.w	r2, r2, r0
878033fa:	fa43 fe0e 	asr.w	lr, r3, lr
878033fe:	ea04 0409 	and.w	r4, r4, r9
87803402:	468c      	mov	ip, r1
87803404:	f818 4004 	ldrb.w	r4, [r8, r4]
87803408:	f101 0101 	add.w	r1, r1, #1
8780340c:	ea4b 0404 	orr.w	r4, fp, r4
87803410:	f807 4b01 	strb.w	r4, [r7], #1
87803414:	fa03 f40a 	lsl.w	r4, r3, sl
87803418:	fa43 f300 	asr.w	r3, r3, r0
8780341c:	ea42 0204 	orr.w	r2, r2, r4
87803420:	bf58      	it	pl
87803422:	ea42 020e 	orrpl.w	r2, r2, lr
87803426:	ea52 0403 	orrs.w	r4, r2, r3
8780342a:	d1e1      	bne.n	878033f0 <number+0x1d0>
8780342c:	e9dd e404 	ldrd	lr, r4, [sp, #16]
87803430:	e732      	b.n	87803298 <number+0x78>
87803432:	992f      	ldr	r1, [sp, #188]	@ 0xbc
87803434:	3901      	subs	r1, #1
87803436:	912f      	str	r1, [sp, #188]	@ 0xbc
87803438:	212d      	movs	r1, #45	@ 0x2d
8780343a:	9103      	str	r1, [sp, #12]
8780343c:	992e      	ldr	r1, [sp, #184]	@ 0xb8
8780343e:	290a      	cmp	r1, #10
87803440:	d027      	beq.n	87803492 <number+0x272>
87803442:	2910      	cmp	r1, #16
87803444:	bf1c      	itt	ne
87803446:	f101 39ff 	addne.w	r9, r1, #4294967295	@ 0xffffffff
8780344a:	2003      	movne	r0, #3
8780344c:	d1c6      	bne.n	878033dc <number+0x1bc>
8780344e:	f04f 090f 	mov.w	r9, #15
87803452:	2004      	movs	r0, #4
87803454:	e7c2      	b.n	878033dc <number+0x1bc>
87803456:	992f      	ldr	r1, [sp, #188]	@ 0xbc
87803458:	3901      	subs	r1, #1
8780345a:	912f      	str	r1, [sp, #188]	@ 0xbc
8780345c:	212b      	movs	r1, #43	@ 0x2b
8780345e:	9103      	str	r1, [sp, #12]
87803460:	f1be 0f00 	cmp.w	lr, #0
87803464:	f43f af0e 	beq.w	87803284 <number+0x64>
87803468:	e79a      	b.n	878033a0 <number+0x180>
8780346a:	3902      	subs	r1, #2
8780346c:	912f      	str	r1, [sp, #188]	@ 0xbc
8780346e:	ea52 0103 	orrs.w	r1, r2, r3
87803472:	f43f af0b 	beq.w	8780328c <number+0x6c>
87803476:	e7ea      	b.n	8780344e <number+0x22e>
87803478:	f1bc 0f00 	cmp.w	ip, #0
8780347c:	4623      	mov	r3, r4
8780347e:	f6bf af69 	bge.w	87803354 <number+0x134>
87803482:	2800      	cmp	r0, #0
87803484:	469c      	mov	ip, r3
87803486:	f73f af79 	bgt.w	8780337c <number+0x15c>
8780348a:	4660      	mov	r0, ip
8780348c:	b025      	add	sp, #148	@ 0x94
8780348e:	e8bd 8ff0 	ldmia.w	sp!, {r4, r5, r6, r7, r8, r9, sl, fp, pc}
87803492:	f248 609f 	movw	r0, #34463	@ 0x869f
87803496:	2100      	movs	r1, #0
87803498:	f2c0 0001 	movt	r0, #1
8780349c:	e9cd 2308 	strd	r2, r3, [sp, #32]
878034a0:	4290      	cmp	r0, r2
878034a2:	4607      	mov	r7, r0
878034a4:	4199      	sbcs	r1, r3
878034a6:	f080 80e3 	bcs.w	87803670 <number+0x450>
878034aa:	f248 61a0 	movw	r1, #34464	@ 0x86a0
878034ae:	f645 20c5 	movw	r0, #23237	@ 0x5ac5
878034b2:	f2c0 0101 	movt	r1, #1
878034b6:	f6c0 207c 	movt	r0, #2684	@ 0xa7c
878034ba:	e9cd be04 	strd	fp, lr, [sp, #16]
878034be:	f10d 0831 	add.w	r8, sp, #49	@ 0x31
878034c2:	46ba      	mov	sl, r7
878034c4:	468b      	mov	fp, r1
878034c6:	4681      	mov	r9, r0
878034c8:	e9cd 4506 	strd	r4, r5, [sp, #24]
878034cc:	e05f      	b.n	8780358e <number+0x36e>
878034ce:	fba9 0101 	umull	r0, r1, r9, r1
878034d2:	9309      	str	r3, [sp, #36]	@ 0x24
878034d4:	09c8      	lsrs	r0, r1, #7
878034d6:	fb0b 2010 	mls	r0, fp, r0, r2
878034da:	09ca      	lsrs	r2, r1, #7
878034dc:	9208      	str	r2, [sp, #32]
878034de:	ea4f 3c10 	mov.w	ip, r0, lsr #12
878034e2:	f3c0 2703 	ubfx	r7, r0, #8, #4
878034e6:	f3c0 1103 	ubfx	r1, r0, #4, #4
878034ea:	19cc      	adds	r4, r1, r7
878034ec:	f000 000f 	and.w	r0, r0, #15
878034f0:	4464      	add	r4, ip
878034f2:	25cd      	movs	r5, #205	@ 0xcd
878034f4:	eb04 0444 	add.w	r4, r4, r4, lsl #1
878034f8:	4592      	cmp	sl, r2
878034fa:	eb00 0044 	add.w	r0, r0, r4, lsl #1
878034fe:	eb0c 04cc 	add.w	r4, ip, ip, lsl #3
87803502:	fb05 fe00 	mul.w	lr, r5, r0
87803506:	440c      	add	r4, r1
87803508:	eb07 0187 	add.w	r1, r7, r7, lsl #2
8780350c:	440c      	add	r4, r1
8780350e:	ea4f 2ede 	mov.w	lr, lr, lsr #11
87803512:	4474      	add	r4, lr
87803514:	eb0e 0e8e 	add.w	lr, lr, lr, lsl #2
87803518:	fb05 f104 	mul.w	r1, r5, r4
8780351c:	eba0 004e 	sub.w	r0, r0, lr, lsl #1
87803520:	f100 0030 	add.w	r0, r0, #48	@ 0x30
87803524:	ea4f 21d1 	mov.w	r1, r1, lsr #11
87803528:	f808 0c05 	strb.w	r0, [r8, #-5]
8780352c:	eb01 0747 	add.w	r7, r1, r7, lsl #1
87803530:	eb01 0181 	add.w	r1, r1, r1, lsl #2
87803534:	eba4 0441 	sub.w	r4, r4, r1, lsl #1
87803538:	eb07 0147 	add.w	r1, r7, r7, lsl #1
8780353c:	eb07 0181 	add.w	r1, r7, r1, lsl #2
87803540:	f104 0430 	add.w	r4, r4, #48	@ 0x30
87803544:	f808 4c04 	strb.w	r4, [r8, #-4]
87803548:	f04f 0400 	mov.w	r4, #0
8780354c:	ea4f 11d1 	mov.w	r1, r1, lsr #7
87803550:	419c      	sbcs	r4, r3
87803552:	eb01 0c8c 	add.w	ip, r1, ip, lsl #2
87803556:	eb01 0181 	add.w	r1, r1, r1, lsl #2
8780355a:	fb05 f50c 	mul.w	r5, r5, ip
8780355e:	eba7 0141 	sub.w	r1, r7, r1, lsl #1
87803562:	f101 0130 	add.w	r1, r1, #48	@ 0x30
87803566:	f808 1c03 	strb.w	r1, [r8, #-3]
8780356a:	4641      	mov	r1, r8
8780356c:	ea4f 25d5 	mov.w	r5, r5, lsr #11
87803570:	f108 0805 	add.w	r8, r8, #5
87803574:	eb05 0085 	add.w	r0, r5, r5, lsl #2
87803578:	f105 0530 	add.w	r5, r5, #48	@ 0x30
8780357c:	f808 5c06 	strb.w	r5, [r8, #-6]
87803580:	ebac 0040 	sub.w	r0, ip, r0, lsl #1
87803584:	f100 0030 	add.w	r0, r0, #48	@ 0x30
87803588:	f808 0c07 	strb.w	r0, [r8, #-7]
8780358c:	d209      	bcs.n	878035a2 <number+0x382>
8780358e:	0951      	lsrs	r1, r2, #5
87803590:	2b00      	cmp	r3, #0
87803592:	d09c      	beq.n	878034ce <number+0x2ae>
87803594:	4659      	mov	r1, fp
87803596:	a808      	add	r0, sp, #32
87803598:	f7ff fb5a 	bl	87802c50 <__div64_32>
8780359c:	e9dd 2308 	ldrd	r2, r3, [sp, #32]
878035a0:	e79d      	b.n	878034de <number+0x2be>
878035a2:	e9dd be04 	ldrd	fp, lr, [sp, #16]
878035a6:	f10d 0a2c 	add.w	sl, sp, #44	@ 0x2c
878035aa:	e9dd 4506 	ldrd	r4, r5, [sp, #24]
878035ae:	f3c2 1703 	ubfx	r7, r2, #4, #4
878035b2:	ea4f 3812 	mov.w	r8, r2, lsr #12
878035b6:	f3c2 2003 	ubfx	r0, r2, #8, #4
878035ba:	eb07 0c00 	add.w	ip, r7, r0
878035be:	f002 020f 	and.w	r2, r2, #15
878035c2:	44c4      	add	ip, r8
878035c4:	f04f 09cd 	mov.w	r9, #205	@ 0xcd
878035c8:	eb0c 0c4c 	add.w	ip, ip, ip, lsl #1
878035cc:	eb02 034c 	add.w	r3, r2, ip, lsl #1
878035d0:	eb08 0cc8 	add.w	ip, r8, r8, lsl #3
878035d4:	eb00 0280 	add.w	r2, r0, r0, lsl #2
878035d8:	44bc      	add	ip, r7
878035da:	fb09 f703 	mul.w	r7, r9, r3
878035de:	4462      	add	r2, ip
878035e0:	0aff      	lsrs	r7, r7, #11
878035e2:	eb07 0c87 	add.w	ip, r7, r7, lsl #2
878035e6:	18ba      	adds	r2, r7, r2
878035e8:	eba3 034c 	sub.w	r3, r3, ip, lsl #1
878035ec:	f103 0330 	add.w	r3, r3, #48	@ 0x30
878035f0:	700b      	strb	r3, [r1, #0]
878035f2:	bf08      	it	eq
878035f4:	3101      	addeq	r1, #1
878035f6:	d02c      	beq.n	87803652 <number+0x432>
878035f8:	fb09 f302 	mul.w	r3, r9, r2
878035fc:	0adb      	lsrs	r3, r3, #11
878035fe:	eb03 0040 	add.w	r0, r3, r0, lsl #1
87803602:	eb03 0383 	add.w	r3, r3, r3, lsl #2
87803606:	eba2 0243 	sub.w	r2, r2, r3, lsl #1
8780360a:	f102 0330 	add.w	r3, r2, #48	@ 0x30
8780360e:	704b      	strb	r3, [r1, #1]
87803610:	ea58 0300 	orrs.w	r3, r8, r0
87803614:	bf08      	it	eq
87803616:	3102      	addeq	r1, #2
87803618:	d01b      	beq.n	87803652 <number+0x432>
8780361a:	eb00 0340 	add.w	r3, r0, r0, lsl #1
8780361e:	eb00 0383 	add.w	r3, r0, r3, lsl #2
87803622:	09db      	lsrs	r3, r3, #7
87803624:	eb03 0283 	add.w	r2, r3, r3, lsl #2
87803628:	eb13 0388 	adds.w	r3, r3, r8, lsl #2
8780362c:	eba0 0042 	sub.w	r0, r0, r2, lsl #1
87803630:	f100 0230 	add.w	r2, r0, #48	@ 0x30
87803634:	708a      	strb	r2, [r1, #2]
87803636:	bf08      	it	eq
87803638:	3103      	addeq	r1, #3
8780363a:	d00a      	beq.n	87803652 <number+0x432>
8780363c:	fb09 f203 	mul.w	r2, r9, r3
87803640:	0ad2      	lsrs	r2, r2, #11
87803642:	eb02 0082 	add.w	r0, r2, r2, lsl #2
87803646:	eba3 0340 	sub.w	r3, r3, r0, lsl #1
8780364a:	3330      	adds	r3, #48	@ 0x30
8780364c:	70cb      	strb	r3, [r1, #3]
8780364e:	b99a      	cbnz	r2, 87803678 <number+0x458>
87803650:	3104      	adds	r1, #4
87803652:	eba1 010a 	sub.w	r1, r1, sl
87803656:	f101 3cff 	add.w	ip, r1, #4294967295	@ 0xffffffff
8780365a:	e61d      	b.n	87803298 <number+0x78>
8780365c:	4630      	mov	r0, r6
8780365e:	e666      	b.n	8780332e <number+0x10e>
87803660:	3903      	subs	r1, #3
87803662:	f04f 090f 	mov.w	r9, #15
87803666:	912f      	str	r1, [sp, #188]	@ 0xbc
87803668:	212d      	movs	r1, #45	@ 0x2d
8780366a:	2004      	movs	r0, #4
8780366c:	9103      	str	r1, [sp, #12]
8780366e:	e6b5      	b.n	878033dc <number+0x1bc>
87803670:	f10d 0a2c 	add.w	sl, sp, #44	@ 0x2c
87803674:	4651      	mov	r1, sl
87803676:	e79a      	b.n	878035ae <number+0x38e>
87803678:	3230      	adds	r2, #48	@ 0x30
8780367a:	3105      	adds	r1, #5
8780367c:	f801 2c01 	strb.w	r2, [r1, #-1]
87803680:	e7e7      	b.n	87803652 <number+0x432>
87803682:	bf00      	nop

87803684 <simple_strtoul>:
87803684:	b570      	push	{r4, r5, r6, lr}
87803686:	4604      	mov	r4, r0
87803688:	f890 c000 	ldrb.w	ip, [r0]
8780368c:	bb62      	cbnz	r2, 878036e8 <simple_strtoul+0x64>
8780368e:	f1bc 0f30 	cmp.w	ip, #48	@ 0x30
87803692:	d051      	beq.n	87803738 <simple_strtoul+0xb4>
87803694:	f249 15c8 	movw	r5, #37320	@ 0x91c8
87803698:	4663      	mov	r3, ip
8780369a:	f2c8 7580 	movt	r5, #34688	@ 0x8780
8780369e:	220a      	movs	r2, #10
878036a0:	f815 e00c 	ldrb.w	lr, [r5, ip]
878036a4:	f00e 0044 	and.w	r0, lr, #68	@ 0x44
878036a8:	b1d8      	cbz	r0, 878036e2 <simple_strtoul+0x5e>
878036aa:	2000      	movs	r0, #0
878036ac:	e009      	b.n	878036c2 <simple_strtoul+0x3e>
878036ae:	f814 cf01 	ldrb.w	ip, [r4, #1]!
878036b2:	fb00 3002 	mla	r0, r0, r2, r3
878036b6:	f815 e00c 	ldrb.w	lr, [r5, ip]
878036ba:	4663      	mov	r3, ip
878036bc:	f01e 0f44 	tst.w	lr, #68	@ 0x44
878036c0:	d00f      	beq.n	878036e2 <simple_strtoul+0x5e>
878036c2:	f01e 0f04 	tst.w	lr, #4
878036c6:	f1a3 0330 	sub.w	r3, r3, #48	@ 0x30
878036ca:	d108      	bne.n	878036de <simple_strtoul+0x5a>
878036cc:	f1ac 0320 	sub.w	r3, ip, #32
878036d0:	f01e 0f02 	tst.w	lr, #2
878036d4:	bf18      	it	ne
878036d6:	fa5f fc83 	uxtbne.w	ip, r3
878036da:	f1ac 0337 	sub.w	r3, ip, #55	@ 0x37
878036de:	429a      	cmp	r2, r3
878036e0:	d8e5      	bhi.n	878036ae <simple_strtoul+0x2a>
878036e2:	b101      	cbz	r1, 878036e6 <simple_strtoul+0x62>
878036e4:	600c      	str	r4, [r1, #0]
878036e6:	bd70      	pop	{r4, r5, r6, pc}
878036e8:	2a10      	cmp	r2, #16
878036ea:	d009      	beq.n	87803700 <simple_strtoul+0x7c>
878036ec:	f249 15c8 	movw	r5, #37320	@ 0x91c8
878036f0:	4663      	mov	r3, ip
878036f2:	f2c8 7580 	movt	r5, #34688	@ 0x8780
878036f6:	f815 e00c 	ldrb.w	lr, [r5, ip]
878036fa:	f00e 0044 	and.w	r0, lr, #68	@ 0x44
878036fe:	e7d3      	b.n	878036a8 <simple_strtoul+0x24>
87803700:	f1bc 0f30 	cmp.w	ip, #48	@ 0x30
87803704:	d1f2      	bne.n	878036ec <simple_strtoul+0x68>
87803706:	7843      	ldrb	r3, [r0, #1]
87803708:	f249 15c8 	movw	r5, #37320	@ 0x91c8
8780370c:	f2c8 7580 	movt	r5, #34688	@ 0x8780
87803710:	5ce8      	ldrb	r0, [r5, r3]
87803712:	0780      	lsls	r0, r0, #30
87803714:	bf44      	itt	mi
87803716:	3b20      	submi	r3, #32
87803718:	b2db      	uxtbmi	r3, r3
8780371a:	2b58      	cmp	r3, #88	@ 0x58
8780371c:	bf0d      	iteet	eq
8780371e:	f894 c002 	ldrbeq.w	ip, [r4, #2]
87803722:	2330      	movne	r3, #48	@ 0x30
87803724:	f895 e030 	ldrbne.w	lr, [r5, #48]	@ 0x30
87803728:	3402      	addeq	r4, #2
8780372a:	bf04      	itt	eq
8780372c:	f815 e00c 	ldrbeq.w	lr, [r5, ip]
87803730:	4663      	moveq	r3, ip
87803732:	f00e 0044 	and.w	r0, lr, #68	@ 0x44
87803736:	e7b7      	b.n	878036a8 <simple_strtoul+0x24>
87803738:	f890 c001 	ldrb.w	ip, [r0, #1]
8780373c:	f249 15c8 	movw	r5, #37320	@ 0x91c8
87803740:	f2c8 7580 	movt	r5, #34688	@ 0x8780
87803744:	3001      	adds	r0, #1
87803746:	f815 e00c 	ldrb.w	lr, [r5, ip]
8780374a:	4663      	mov	r3, ip
8780374c:	f01e 0f02 	tst.w	lr, #2
87803750:	bf16      	itet	ne
87803752:	f1ac 0220 	subne.w	r2, ip, #32
87803756:	4662      	moveq	r2, ip
87803758:	b2d2      	uxtbne	r2, r2
8780375a:	2a58      	cmp	r2, #88	@ 0x58
8780375c:	d004      	beq.n	87803768 <simple_strtoul+0xe4>
8780375e:	4604      	mov	r4, r0
87803760:	2208      	movs	r2, #8
87803762:	f00e 0044 	and.w	r0, lr, #68	@ 0x44
87803766:	e79f      	b.n	878036a8 <simple_strtoul+0x24>
87803768:	78a6      	ldrb	r6, [r4, #2]
8780376a:	5daa      	ldrb	r2, [r5, r6]
8780376c:	f012 0f44 	tst.w	r2, #68	@ 0x44
87803770:	d0f5      	beq.n	8780375e <simple_strtoul+0xda>
87803772:	4696      	mov	lr, r2
87803774:	4633      	mov	r3, r6
87803776:	3402      	adds	r4, #2
87803778:	46b4      	mov	ip, r6
8780377a:	2210      	movs	r2, #16
8780377c:	e795      	b.n	878036aa <simple_strtoul+0x26>
8780377e:	bf00      	nop

87803780 <simple_strtol>:
87803780:	f890 c000 	ldrb.w	ip, [r0]
87803784:	f1bc 0f2d 	cmp.w	ip, #45	@ 0x2d
87803788:	d001      	beq.n	8780378e <simple_strtol+0xe>
8780378a:	f7ff bf7b 	b.w	87803684 <simple_strtoul>
8780378e:	b508      	push	{r3, lr}
87803790:	3001      	adds	r0, #1
87803792:	f7ff ff77 	bl	87803684 <simple_strtoul>
87803796:	4240      	negs	r0, r0
87803798:	bd08      	pop	{r3, pc}
8780379a:	bf00      	nop

8780379c <simple_strtoull>:
8780379c:	e92d 47f0 	stmdb	sp!, {r4, r5, r6, r7, r8, r9, sl, lr}
878037a0:	4605      	mov	r5, r0
878037a2:	f890 a000 	ldrb.w	sl, [r0]
878037a6:	4688      	mov	r8, r1
878037a8:	2a00      	cmp	r2, #0
878037aa:	d142      	bne.n	87803832 <simple_strtoull+0x96>
878037ac:	f1ba 0f30 	cmp.w	sl, #48	@ 0x30
878037b0:	d067      	beq.n	87803882 <simple_strtoull+0xe6>
878037b2:	f249 16c8 	movw	r6, #37320	@ 0x91c8
878037b6:	4653      	mov	r3, sl
878037b8:	f2c8 7680 	movt	r6, #34688	@ 0x8780
878037bc:	220a      	movs	r2, #10
878037be:	f816 e00a 	ldrb.w	lr, [r6, sl]
878037c2:	f00e 0044 	and.w	r0, lr, #68	@ 0x44
878037c6:	2800      	cmp	r0, #0
878037c8:	d07e      	beq.n	878038c8 <simple_strtoull+0x12c>
878037ca:	2700      	movs	r7, #0
878037cc:	4638      	mov	r0, r7
878037ce:	4639      	mov	r1, r7
878037d0:	e00c      	b.n	878037ec <simple_strtoull+0x50>
878037d2:	f815 af01 	ldrb.w	sl, [r5, #1]!
878037d6:	eb1e 000c 	adds.w	r0, lr, ip
878037da:	444b      	add	r3, r9
878037dc:	eb43 0104 	adc.w	r1, r3, r4
878037e0:	f816 e00a 	ldrb.w	lr, [r6, sl]
878037e4:	4653      	mov	r3, sl
878037e6:	f01e 0f44 	tst.w	lr, #68	@ 0x44
878037ea:	d01b      	beq.n	87803824 <simple_strtoull+0x88>
878037ec:	f01e 0f04 	tst.w	lr, #4
878037f0:	f1a3 0c30 	sub.w	ip, r3, #48	@ 0x30
878037f4:	d10a      	bne.n	8780380c <simple_strtoull+0x70>
878037f6:	f1aa 0a20 	sub.w	sl, sl, #32
878037fa:	f01e 0f02 	tst.w	lr, #2
878037fe:	fa5f fa8a 	uxtb.w	sl, sl
87803802:	f1a3 0c37 	sub.w	ip, r3, #55	@ 0x37
87803806:	bf18      	it	ne
87803808:	f1aa 0c37 	subne.w	ip, sl, #55	@ 0x37
8780380c:	fb00 f307 	mul.w	r3, r0, r7
87803810:	ea4f 74ec 	mov.w	r4, ip, asr #31
87803814:	4594      	cmp	ip, r2
87803816:	f174 0a00 	sbcs.w	sl, r4, #0
8780381a:	fba0 e902 	umull	lr, r9, r0, r2
8780381e:	fb02 3301 	mla	r3, r2, r1, r3
87803822:	d3d6      	bcc.n	878037d2 <simple_strtoull+0x36>
87803824:	f1b8 0f00 	cmp.w	r8, #0
87803828:	d001      	beq.n	8780382e <simple_strtoull+0x92>
8780382a:	f8c8 5000 	str.w	r5, [r8]
8780382e:	e8bd 87f0 	ldmia.w	sp!, {r4, r5, r6, r7, r8, r9, sl, pc}
87803832:	2a10      	cmp	r2, #16
87803834:	d009      	beq.n	8780384a <simple_strtoull+0xae>
87803836:	f249 16c8 	movw	r6, #37320	@ 0x91c8
8780383a:	4653      	mov	r3, sl
8780383c:	f2c8 7680 	movt	r6, #34688	@ 0x8780
87803840:	f816 e00a 	ldrb.w	lr, [r6, sl]
87803844:	f00e 0044 	and.w	r0, lr, #68	@ 0x44
87803848:	e7bd      	b.n	878037c6 <simple_strtoull+0x2a>
8780384a:	f1ba 0f30 	cmp.w	sl, #48	@ 0x30
8780384e:	d1f2      	bne.n	87803836 <simple_strtoull+0x9a>
87803850:	7843      	ldrb	r3, [r0, #1]
87803852:	f249 16c8 	movw	r6, #37320	@ 0x91c8
87803856:	f2c8 7680 	movt	r6, #34688	@ 0x8780
8780385a:	5cf1      	ldrb	r1, [r6, r3]
8780385c:	0789      	lsls	r1, r1, #30
8780385e:	bf44      	itt	mi
87803860:	3b20      	submi	r3, #32
87803862:	b2db      	uxtbmi	r3, r3
87803864:	2b58      	cmp	r3, #88	@ 0x58
87803866:	bf0d      	iteet	eq
87803868:	f890 a002 	ldrbeq.w	sl, [r0, #2]
8780386c:	2330      	movne	r3, #48	@ 0x30
8780386e:	f896 e030 	ldrbne.w	lr, [r6, #48]	@ 0x30
87803872:	3502      	addeq	r5, #2
87803874:	bf04      	itt	eq
87803876:	f816 e00a 	ldrbeq.w	lr, [r6, sl]
8780387a:	4653      	moveq	r3, sl
8780387c:	f00e 0044 	and.w	r0, lr, #68	@ 0x44
87803880:	e7a1      	b.n	878037c6 <simple_strtoull+0x2a>
87803882:	f890 a001 	ldrb.w	sl, [r0, #1]
87803886:	f249 16c8 	movw	r6, #37320	@ 0x91c8
8780388a:	f2c8 7680 	movt	r6, #34688	@ 0x8780
8780388e:	1c41      	adds	r1, r0, #1
87803890:	f816 e00a 	ldrb.w	lr, [r6, sl]
87803894:	4653      	mov	r3, sl
87803896:	f01e 0f02 	tst.w	lr, #2
8780389a:	bf16      	itet	ne
8780389c:	f1aa 0220 	subne.w	r2, sl, #32
878038a0:	4652      	moveq	r2, sl
878038a2:	b2d2      	uxtbne	r2, r2
878038a4:	2a58      	cmp	r2, #88	@ 0x58
878038a6:	d004      	beq.n	878038b2 <simple_strtoull+0x116>
878038a8:	460d      	mov	r5, r1
878038aa:	f00e 0044 	and.w	r0, lr, #68	@ 0x44
878038ae:	2208      	movs	r2, #8
878038b0:	e789      	b.n	878037c6 <simple_strtoull+0x2a>
878038b2:	7880      	ldrb	r0, [r0, #2]
878038b4:	5c32      	ldrb	r2, [r6, r0]
878038b6:	f012 0f44 	tst.w	r2, #68	@ 0x44
878038ba:	d0f5      	beq.n	878038a8 <simple_strtoull+0x10c>
878038bc:	4696      	mov	lr, r2
878038be:	4603      	mov	r3, r0
878038c0:	3502      	adds	r5, #2
878038c2:	4682      	mov	sl, r0
878038c4:	2210      	movs	r2, #16
878038c6:	e780      	b.n	878037ca <simple_strtoull+0x2e>
878038c8:	4601      	mov	r1, r0
878038ca:	e7ab      	b.n	87803824 <simple_strtoull+0x88>

878038cc <simple_strtoll>:
878038cc:	f890 c000 	ldrb.w	ip, [r0]
878038d0:	f1bc 0f2d 	cmp.w	ip, #45	@ 0x2d
878038d4:	d001      	beq.n	878038da <simple_strtoll+0xe>
878038d6:	f7ff bf61 	b.w	8780379c <simple_strtoull>
878038da:	b508      	push	{r3, lr}
878038dc:	3001      	adds	r0, #1
878038de:	f7ff ff5d 	bl	8780379c <simple_strtoull>
878038e2:	4240      	negs	r0, r0
878038e4:	eb61 0141 	sbc.w	r1, r1, r1, lsl #1
878038e8:	bd08      	pop	{r3, pc}
878038ea:	bf00      	nop

878038ec <vsnprintf>:
878038ec:	e92d 4ff0 	stmdb	sp!, {r4, r5, r6, r7, r8, r9, sl, fp, lr}
878038f0:	f1b1 0b00 	subs.w	fp, r1, #0
878038f4:	b087      	sub	sp, #28
878038f6:	f2c0 82d5 	blt.w	87803ea4 <vsnprintf+0x5b8>
878038fa:	f10b 37ff 	add.w	r7, fp, #4294967295	@ 0xffffffff
878038fe:	4698      	mov	r8, r3
87803900:	4407      	add	r7, r0
87803902:	1e43      	subs	r3, r0, #1
87803904:	429f      	cmp	r7, r3
87803906:	4682      	mov	sl, r0
87803908:	7810      	ldrb	r0, [r2, #0]
8780390a:	d31f      	bcc.n	8780394c <vsnprintf+0x60>
8780390c:	2800      	cmp	r0, #0
8780390e:	f000 82fc 	beq.w	87803f0a <vsnprintf+0x61e>
87803912:	f249 19c8 	movw	r9, #37320	@ 0x91c8
87803916:	4656      	mov	r6, sl
87803918:	f2c8 7980 	movt	r9, #34688	@ 0x8780
8780391c:	2825      	cmp	r0, #37	@ 0x25
8780391e:	d01d      	beq.n	8780395c <vsnprintf+0x70>
87803920:	42b7      	cmp	r7, r6
87803922:	f102 0201 	add.w	r2, r2, #1
87803926:	bf28      	it	cs
87803928:	7030      	strbcs	r0, [r6, #0]
8780392a:	3601      	adds	r6, #1
8780392c:	7810      	ldrb	r0, [r2, #0]
8780392e:	2800      	cmp	r0, #0
87803930:	d1f4      	bne.n	8780391c <vsnprintf+0x30>
87803932:	eba6 000a 	sub.w	r0, r6, sl
87803936:	42b7      	cmp	r7, r6
87803938:	f080 81d9 	bcs.w	87803cee <vsnprintf+0x402>
8780393c:	f1bb 0f00 	cmp.w	fp, #0
87803940:	d001      	beq.n	87803946 <vsnprintf+0x5a>
87803942:	2300      	movs	r3, #0
87803944:	703b      	strb	r3, [r7, #0]
87803946:	b007      	add	sp, #28
87803948:	e8bd 8ff0 	ldmia.w	sp!, {r4, r5, r6, r7, r8, r9, sl, fp, pc}
8780394c:	f1ca 0b00 	rsb	fp, sl, #0
87803950:	2800      	cmp	r0, #0
87803952:	f000 81cb 	beq.w	87803cec <vsnprintf+0x400>
87803956:	f04f 37ff 	mov.w	r7, #4294967295	@ 0xffffffff
8780395a:	e7da      	b.n	87803912 <vsnprintf+0x26>
8780395c:	2300      	movs	r3, #0
8780395e:	7850      	ldrb	r0, [r2, #1]
87803960:	1c55      	adds	r5, r2, #1
87803962:	f1a0 0120 	sub.w	r1, r0, #32
87803966:	2910      	cmp	r1, #16
87803968:	d80a      	bhi.n	87803980 <vsnprintf+0x94>
8780396a:	e8df f001 	tbb	[pc, r1]
8780396e:	94090998 	strls	r0, [r9], #-2456	@ 0xfffff668
87803972:	09090909 	stmdbeq	r9, {r0, r3, r8, fp}
87803976:	90090909 	andls	r0, r9, r9, lsl #18
8780397a:	09098c09 	stmdbeq	r9, {r0, r3, sl, fp, pc}
8780397e:	f8190088 			@ <UNDEFINED> instruction: 0xf8190088
87803982:	4000      	ands	r0, r0
87803984:	4601      	mov	r1, r0
87803986:	0764      	lsls	r4, r4, #29
87803988:	f100 81a2 	bmi.w	87803cd0 <vsnprintf+0x3e4>
8780398c:	282a      	cmp	r0, #42	@ 0x2a
8780398e:	bf18      	it	ne
87803990:	f04f 34ff 	movne.w	r4, #4294967295	@ 0xffffffff
87803994:	d108      	bne.n	878039a8 <vsnprintf+0xbc>
87803996:	f858 4b04 	ldr.w	r4, [r8], #4
8780399a:	1c95      	adds	r5, r2, #2
8780399c:	7890      	ldrb	r0, [r2, #2]
8780399e:	2c00      	cmp	r4, #0
878039a0:	bfbc      	itt	lt
878039a2:	4264      	neglt	r4, r4
878039a4:	f043 0310 	orrlt.w	r3, r3, #16
878039a8:	282e      	cmp	r0, #46	@ 0x2e
878039aa:	bf18      	it	ne
878039ac:	f04f 31ff 	movne.w	r1, #4294967295	@ 0xffffffff
878039b0:	f000 8160 	beq.w	87803c74 <vsnprintf+0x388>
878039b4:	287a      	cmp	r0, #122	@ 0x7a
878039b6:	f200 8175 	bhi.w	87803ca4 <vsnprintf+0x3b8>
878039ba:	2867      	cmp	r0, #103	@ 0x67
878039bc:	d873      	bhi.n	87803aa6 <vsnprintf+0x1ba>
878039be:	284c      	cmp	r0, #76	@ 0x4c
878039c0:	f000 80e1 	beq.w	87803b86 <vsnprintf+0x29a>
878039c4:	285a      	cmp	r0, #90	@ 0x5a
878039c6:	f000 80de 	beq.w	87803b86 <vsnprintf+0x29a>
878039ca:	3825      	subs	r0, #37	@ 0x25
878039cc:	2853      	cmp	r0, #83	@ 0x53
878039ce:	f200 8169 	bhi.w	87803ca4 <vsnprintf+0x3b8>
878039d2:	e8df f010 	tbh	[pc, r0, lsl #1]
878039d6:	016701cf 	smulbteq	r7, pc, r1	@ <UNPREDICTABLE>
878039da:	01670167 	cmneq	r7, r7, ror #2
878039de:	01670167 	cmneq	r7, r7, ror #2
878039e2:	01670167 	cmneq	r7, r7, ror #2
878039e6:	01670167 	cmneq	r7, r7, ror #2
878039ea:	01670167 	cmneq	r7, r7, ror #2
878039ee:	01670167 	cmneq	r7, r7, ror #2
878039f2:	01670167 	cmneq	r7, r7, ror #2
878039f6:	01670167 	cmneq	r7, r7, ror #2
878039fa:	01670167 	cmneq	r7, r7, ror #2
878039fe:	01670167 	cmneq	r7, r7, ror #2
87803a02:	01670167 	cmneq	r7, r7, ror #2
87803a06:	01670167 	cmneq	r7, r7, ror #2
87803a0a:	01670167 	cmneq	r7, r7, ror #2
87803a0e:	01670167 	cmneq	r7, r7, ror #2
87803a12:	01670167 	cmneq	r7, r7, ror #2
87803a16:	01670167 	cmneq	r7, r7, ror #2
87803a1a:	01670167 	cmneq	r7, r7, ror #2
87803a1e:	01670167 	cmneq	r7, r7, ror #2
87803a22:	01670167 	cmneq	r7, r7, ror #2
87803a26:	01670167 	cmneq	r7, r7, ror #2
87803a2a:	01670167 	cmneq	r7, r7, ror #2
87803a2e:	01670167 	cmneq	r7, r7, ror #2
87803a32:	01670167 	cmneq	r7, r7, ror #2
87803a36:	01670167 	cmneq	r7, r7, ror #2
87803a3a:	027b0167 	rsbseq	r0, fp, #-1073741799	@ 0xc0000019
87803a3e:	01670167 	cmneq	r7, r7, ror #2
87803a42:	01670167 	cmneq	r7, r7, ror #2
87803a46:	01670167 	cmneq	r7, r7, ror #2
87803a4a:	01670167 	cmneq	r7, r7, ror #2
87803a4e:	01670167 	cmneq	r7, r7, ror #2
87803a52:	022c01ac 	eoreq	r0, ip, #172, 2	@ 0x2b
87803a56:	01670167 	cmneq	r7, r7, ror #2
87803a5a:	01670167 	cmneq	r7, r7, ror #2
87803a5e:	0167022c 	cmneq	r7, ip, lsr #4
87803a62:	01670167 	cmneq	r7, r7, ror #2
87803a66:	02800167 	addeq	r0, r0, #-1073741799	@ 0xc0000019
87803a6a:	021d0261 	andseq	r0, sp, #268435462	@ 0x10000006
87803a6e:	01670167 	cmneq	r7, r7, ror #2
87803a72:	016701df 	ldrdeq	r0, [r7, #-31]!	@ 0xffffffe1
87803a76:	0167022e 	cmneq	r7, lr, lsr #4
87803a7a:	02780167 	rsbseq	r0, r8, #-1073741799	@ 0xc0000019
87803a7e:	f043 0301 	orr.w	r3, r3, #1
87803a82:	462a      	mov	r2, r5
87803a84:	e76b      	b.n	8780395e <vsnprintf+0x72>
87803a86:	f043 0310 	orr.w	r3, r3, #16
87803a8a:	462a      	mov	r2, r5
87803a8c:	e767      	b.n	8780395e <vsnprintf+0x72>
87803a8e:	f043 0304 	orr.w	r3, r3, #4
87803a92:	462a      	mov	r2, r5
87803a94:	e763      	b.n	8780395e <vsnprintf+0x72>
87803a96:	f043 0320 	orr.w	r3, r3, #32
87803a9a:	462a      	mov	r2, r5
87803a9c:	e75f      	b.n	8780395e <vsnprintf+0x72>
87803a9e:	f043 0308 	orr.w	r3, r3, #8
87803aa2:	462a      	mov	r2, r5
87803aa4:	e75b      	b.n	8780395e <vsnprintf+0x72>
87803aa6:	f1a0 0c68 	sub.w	ip, r0, #104	@ 0x68
87803aaa:	2211      	movs	r2, #17
87803aac:	fa5f fc8c 	uxtb.w	ip, ip
87803ab0:	f2c0 0204 	movt	r2, #4
87803ab4:	fa22 f20c 	lsr.w	r2, r2, ip
87803ab8:	07d2      	lsls	r2, r2, #31
87803aba:	d586      	bpl.n	878039ca <vsnprintf+0xde>
87803abc:	286c      	cmp	r0, #108	@ 0x6c
87803abe:	f105 0e01 	add.w	lr, r5, #1
87803ac2:	f040 81f3 	bne.w	87803eac <vsnprintf+0x5c0>
87803ac6:	786a      	ldrb	r2, [r5, #1]
87803ac8:	2a6c      	cmp	r2, #108	@ 0x6c
87803aca:	bf04      	itt	eq
87803acc:	3502      	addeq	r5, #2
87803ace:	204c      	moveq	r0, #76	@ 0x4c
87803ad0:	d05a      	beq.n	87803b88 <vsnprintf+0x29c>
87803ad2:	3a25      	subs	r2, #37	@ 0x25
87803ad4:	2a53      	cmp	r2, #83	@ 0x53
87803ad6:	f200 8127 	bhi.w	87803d28 <vsnprintf+0x43c>
87803ada:	e8df f012 	tbh	[pc, r2, lsl #1]
87803ade:	0125014a 			@ <UNDEFINED> instruction: 0x0125014a
87803ae2:	01250125 			@ <UNDEFINED> instruction: 0x01250125
87803ae6:	01250125 			@ <UNDEFINED> instruction: 0x01250125
87803aea:	01250125 			@ <UNDEFINED> instruction: 0x01250125
87803aee:	01250125 			@ <UNDEFINED> instruction: 0x01250125
87803af2:	01250125 			@ <UNDEFINED> instruction: 0x01250125
87803af6:	01250125 			@ <UNDEFINED> instruction: 0x01250125
87803afa:	01250125 			@ <UNDEFINED> instruction: 0x01250125
87803afe:	01250125 			@ <UNDEFINED> instruction: 0x01250125
87803b02:	01250125 			@ <UNDEFINED> instruction: 0x01250125
87803b06:	01250125 			@ <UNDEFINED> instruction: 0x01250125
87803b0a:	01250125 			@ <UNDEFINED> instruction: 0x01250125
87803b0e:	01250125 			@ <UNDEFINED> instruction: 0x01250125
87803b12:	01250125 			@ <UNDEFINED> instruction: 0x01250125
87803b16:	01250125 			@ <UNDEFINED> instruction: 0x01250125
87803b1a:	01250125 			@ <UNDEFINED> instruction: 0x01250125
87803b1e:	01250125 			@ <UNDEFINED> instruction: 0x01250125
87803b22:	01250125 			@ <UNDEFINED> instruction: 0x01250125
87803b26:	01250125 			@ <UNDEFINED> instruction: 0x01250125
87803b2a:	01250125 			@ <UNDEFINED> instruction: 0x01250125
87803b2e:	01250125 			@ <UNDEFINED> instruction: 0x01250125
87803b32:	01250125 			@ <UNDEFINED> instruction: 0x01250125
87803b36:	01250125 			@ <UNDEFINED> instruction: 0x01250125
87803b3a:	01250125 			@ <UNDEFINED> instruction: 0x01250125
87803b3e:	01250125 			@ <UNDEFINED> instruction: 0x01250125
87803b42:	02100125 	andseq	r0, r0, #1073741833	@ 0x40000009
87803b46:	01250125 			@ <UNDEFINED> instruction: 0x01250125
87803b4a:	01250125 			@ <UNDEFINED> instruction: 0x01250125
87803b4e:	01250125 			@ <UNDEFINED> instruction: 0x01250125
87803b52:	01250125 			@ <UNDEFINED> instruction: 0x01250125
87803b56:	01250125 			@ <UNDEFINED> instruction: 0x01250125
87803b5a:	01c90127 	biceq	r0, r9, r7, lsr #2
87803b5e:	01250125 			@ <UNDEFINED> instruction: 0x01250125
87803b62:	01250125 			@ <UNDEFINED> instruction: 0x01250125
87803b66:	012501c9 	smlawteq	r5, r9, r1, r0
87803b6a:	01250125 			@ <UNDEFINED> instruction: 0x01250125
87803b6e:	01d20125 	bicseq	r0, r2, r5, lsr #2
87803b72:	01980208 	orrseq	r0, r8, r8, lsl #4
87803b76:	01250125 			@ <UNDEFINED> instruction: 0x01250125
87803b7a:	0125015a 			@ <UNDEFINED> instruction: 0x0125015a
87803b7e:	012501cb 	smlawteq	r5, fp, r1, r0
87803b82:	020c0125 	andeq	r0, ip, #1073741833	@ 0x40000009
87803b86:	3501      	adds	r5, #1
87803b88:	782a      	ldrb	r2, [r5, #0]
87803b8a:	3a25      	subs	r2, #37	@ 0x25
87803b8c:	2a53      	cmp	r2, #83	@ 0x53
87803b8e:	f200 8089 	bhi.w	87803ca4 <vsnprintf+0x3b8>
87803b92:	e8df f012 	tbh	[pc, r2, lsl #1]
87803b96:	008700ef 	addeq	r0, r7, pc, ror #1
87803b9a:	00870087 	addeq	r0, r7, r7, lsl #1
87803b9e:	00870087 	addeq	r0, r7, r7, lsl #1
87803ba2:	00870087 	addeq	r0, r7, r7, lsl #1
87803ba6:	00870087 	addeq	r0, r7, r7, lsl #1
87803baa:	00870087 	addeq	r0, r7, r7, lsl #1
87803bae:	00870087 	addeq	r0, r7, r7, lsl #1
87803bb2:	00870087 	addeq	r0, r7, r7, lsl #1
87803bb6:	00870087 	addeq	r0, r7, r7, lsl #1
87803bba:	00870087 	addeq	r0, r7, r7, lsl #1
87803bbe:	00870087 	addeq	r0, r7, r7, lsl #1
87803bc2:	00870087 	addeq	r0, r7, r7, lsl #1
87803bc6:	00870087 	addeq	r0, r7, r7, lsl #1
87803bca:	00870087 	addeq	r0, r7, r7, lsl #1
87803bce:	00870087 	addeq	r0, r7, r7, lsl #1
87803bd2:	00870087 	addeq	r0, r7, r7, lsl #1
87803bd6:	00870087 	addeq	r0, r7, r7, lsl #1
87803bda:	00870087 	addeq	r0, r7, r7, lsl #1
87803bde:	00870087 	addeq	r0, r7, r7, lsl #1
87803be2:	00870087 	addeq	r0, r7, r7, lsl #1
87803be6:	00870087 	addeq	r0, r7, r7, lsl #1
87803bea:	00870087 	addeq	r0, r7, r7, lsl #1
87803bee:	00870087 	addeq	r0, r7, r7, lsl #1
87803bf2:	00870087 	addeq	r0, r7, r7, lsl #1
87803bf6:	00870087 	addeq	r0, r7, r7, lsl #1
87803bfa:	01590087 	cmpeq	r9, r7, lsl #1
87803bfe:	00870087 	addeq	r0, r7, r7, lsl #1
87803c02:	00870087 	addeq	r0, r7, r7, lsl #1
87803c06:	00870087 	addeq	r0, r7, r7, lsl #1
87803c0a:	00870087 	addeq	r0, r7, r7, lsl #1
87803c0e:	00870087 	addeq	r0, r7, r7, lsl #1
87803c12:	005400cc 	subseq	r0, r4, ip, asr #1
87803c16:	00870087 	addeq	r0, r7, r7, lsl #1
87803c1a:	00870087 	addeq	r0, r7, r7, lsl #1
87803c1e:	00870054 	addeq	r0, r7, r4, asr r0
87803c22:	00870087 	addeq	r0, r7, r7, lsl #1
87803c26:	01650087 	smulbbeq	r5, r7, r0
87803c2a:	013d01a9 	teqeq	sp, r9, lsr #3
87803c2e:	00870087 	addeq	r0, r7, r7, lsl #1
87803c32:	008700ff 	strdeq	r0, [r7], pc	@ <UNPREDICTABLE>
87803c36:	00870056 	addeq	r0, r7, r6, asr r0
87803c3a:	01a60087 			@ <UNDEFINED> instruction: 0x01a60087
87803c3e:	f043 0302 	orr.w	r3, r3, #2
87803c42:	2868      	cmp	r0, #104	@ 0x68
87803c44:	f000 8136 	beq.w	87803eb4 <vsnprintf+0x5c8>
87803c48:	f04f 0c0a 	mov.w	ip, #10
87803c4c:	dd54      	ble.n	87803cf8 <vsnprintf+0x40c>
87803c4e:	f858 2b04 	ldr.w	r2, [r8], #4
87803c52:	2000      	movs	r0, #0
87803c54:	e9cd 1302 	strd	r1, r3, [sp, #8]
87803c58:	4603      	mov	r3, r0
87803c5a:	4630      	mov	r0, r6
87803c5c:	e9cd c400 	strd	ip, r4, [sp]
87803c60:	4639      	mov	r1, r7
87803c62:	f7ff fadd 	bl	87803220 <number>
87803c66:	4606      	mov	r6, r0
87803c68:	7868      	ldrb	r0, [r5, #1]
87803c6a:	1c6a      	adds	r2, r5, #1
87803c6c:	2800      	cmp	r0, #0
87803c6e:	f47f ae55 	bne.w	8780391c <vsnprintf+0x30>
87803c72:	e65e      	b.n	87803932 <vsnprintf+0x46>
87803c74:	f895 e001 	ldrb.w	lr, [r5, #1]
87803c78:	f105 0c01 	add.w	ip, r5, #1
87803c7c:	f819 200e 	ldrb.w	r2, [r9, lr]
87803c80:	4670      	mov	r0, lr
87803c82:	f012 0204 	ands.w	r2, r2, #4
87803c86:	d13e      	bne.n	87803d06 <vsnprintf+0x41a>
87803c88:	282a      	cmp	r0, #42	@ 0x2a
87803c8a:	bf0b      	itete	eq
87803c8c:	f858 1b04 	ldreq.w	r1, [r8], #4
87803c90:	4665      	movne	r5, ip
87803c92:	78a8      	ldrbeq	r0, [r5, #2]
87803c94:	4611      	movne	r1, r2
87803c96:	bf04      	itt	eq
87803c98:	3502      	addeq	r5, #2
87803c9a:	ea21 71e1 	biceq.w	r1, r1, r1, asr #31
87803c9e:	287a      	cmp	r0, #122	@ 0x7a
87803ca0:	f67f ae8b 	bls.w	878039ba <vsnprintf+0xce>
87803ca4:	42b7      	cmp	r7, r6
87803ca6:	f106 0201 	add.w	r2, r6, #1
87803caa:	bf24      	itt	cs
87803cac:	2325      	movcs	r3, #37	@ 0x25
87803cae:	7033      	strbcs	r3, [r6, #0]
87803cb0:	782b      	ldrb	r3, [r5, #0]
87803cb2:	2b00      	cmp	r3, #0
87803cb4:	f000 80fc 	beq.w	87803eb0 <vsnprintf+0x5c4>
87803cb8:	4297      	cmp	r7, r2
87803cba:	f106 0602 	add.w	r6, r6, #2
87803cbe:	bf28      	it	cs
87803cc0:	f806 3c01 	strbcs.w	r3, [r6, #-1]
87803cc4:	1c6a      	adds	r2, r5, #1
87803cc6:	7868      	ldrb	r0, [r5, #1]
87803cc8:	2800      	cmp	r0, #0
87803cca:	f47f ae27 	bne.w	8780391c <vsnprintf+0x30>
87803cce:	e630      	b.n	87803932 <vsnprintf+0x46>
87803cd0:	2400      	movs	r4, #0
87803cd2:	eb04 0484 	add.w	r4, r4, r4, lsl #2
87803cd6:	eb01 0444 	add.w	r4, r1, r4, lsl #1
87803cda:	f815 1f01 	ldrb.w	r1, [r5, #1]!
87803cde:	3c30      	subs	r4, #48	@ 0x30
87803ce0:	f819 2001 	ldrb.w	r2, [r9, r1]
87803ce4:	4608      	mov	r0, r1
87803ce6:	0752      	lsls	r2, r2, #29
87803ce8:	d4f3      	bmi.n	87803cd2 <vsnprintf+0x3e6>
87803cea:	e65d      	b.n	878039a8 <vsnprintf+0xbc>
87803cec:	4656      	mov	r6, sl
87803cee:	2300      	movs	r3, #0
87803cf0:	7033      	strb	r3, [r6, #0]
87803cf2:	b007      	add	sp, #28
87803cf4:	e8bd 8ff0 	ldmia.w	sp!, {r4, r5, r6, r7, r8, r9, sl, fp, pc}
87803cf8:	284c      	cmp	r0, #76	@ 0x4c
87803cfa:	d1a8      	bne.n	87803c4e <vsnprintf+0x362>
87803cfc:	f8d8 0004 	ldr.w	r0, [r8, #4]
87803d00:	f858 2b08 	ldr.w	r2, [r8], #8
87803d04:	e7a6      	b.n	87803c54 <vsnprintf+0x368>
87803d06:	2200      	movs	r2, #0
87803d08:	f81c 0f01 	ldrb.w	r0, [ip, #1]!
87803d0c:	eb02 0282 	add.w	r2, r2, r2, lsl #2
87803d10:	eb0e 0242 	add.w	r2, lr, r2, lsl #1
87803d14:	f819 1000 	ldrb.w	r1, [r9, r0]
87803d18:	4686      	mov	lr, r0
87803d1a:	3a30      	subs	r2, #48	@ 0x30
87803d1c:	0749      	lsls	r1, r1, #29
87803d1e:	d4f3      	bmi.n	87803d08 <vsnprintf+0x41c>
87803d20:	ea22 71e2 	bic.w	r1, r2, r2, asr #31
87803d24:	4665      	mov	r5, ip
87803d26:	e645      	b.n	878039b4 <vsnprintf+0xc8>
87803d28:	4675      	mov	r5, lr
87803d2a:	e7bb      	b.n	87803ca4 <vsnprintf+0x3b8>
87803d2c:	4675      	mov	r5, lr
87803d2e:	06d9      	lsls	r1, r3, #27
87803d30:	f108 0c04 	add.w	ip, r8, #4
87803d34:	f105 0201 	add.w	r2, r5, #1
87803d38:	f140 80fb 	bpl.w	87803f32 <vsnprintf+0x646>
87803d3c:	42be      	cmp	r6, r7
87803d3e:	bf9c      	itt	ls
87803d40:	f8d8 3000 	ldrls.w	r3, [r8]
87803d44:	7033      	strbls	r3, [r6, #0]
87803d46:	2c01      	cmp	r4, #1
87803d48:	f106 0301 	add.w	r3, r6, #1
87803d4c:	bfc4      	itt	gt
87803d4e:	2120      	movgt	r1, #32
87803d50:	1936      	addgt	r6, r6, r4
87803d52:	f340 8106 	ble.w	87803f62 <vsnprintf+0x676>
87803d56:	42bb      	cmp	r3, r7
87803d58:	f103 0301 	add.w	r3, r3, #1
87803d5c:	bf98      	it	ls
87803d5e:	f803 1c01 	strbls.w	r1, [r3, #-1]
87803d62:	429e      	cmp	r6, r3
87803d64:	d1f7      	bne.n	87803d56 <vsnprintf+0x46a>
87803d66:	7868      	ldrb	r0, [r5, #1]
87803d68:	46e0      	mov	r8, ip
87803d6a:	2800      	cmp	r0, #0
87803d6c:	f47f add6 	bne.w	8780391c <vsnprintf+0x30>
87803d70:	e5df      	b.n	87803932 <vsnprintf+0x46>
87803d72:	4675      	mov	r5, lr
87803d74:	42b7      	cmp	r7, r6
87803d76:	f105 0201 	add.w	r2, r5, #1
87803d7a:	bf28      	it	cs
87803d7c:	2325      	movcs	r3, #37	@ 0x25
87803d7e:	f106 0601 	add.w	r6, r6, #1
87803d82:	bf28      	it	cs
87803d84:	f806 3c01 	strbcs.w	r3, [r6, #-1]
87803d88:	7868      	ldrb	r0, [r5, #1]
87803d8a:	2800      	cmp	r0, #0
87803d8c:	f47f adc6 	bne.w	8780391c <vsnprintf+0x30>
87803d90:	e5cf      	b.n	87803932 <vsnprintf+0x46>
87803d92:	4675      	mov	r5, lr
87803d94:	f858 2b04 	ldr.w	r2, [r8], #4
87803d98:	f644 10f0 	movw	r0, #18928	@ 0x49f0
87803d9c:	f2c8 7080 	movt	r0, #34688	@ 0x8780
87803da0:	9305      	str	r3, [sp, #20]
87803da2:	f5b2 6f80 	cmp.w	r2, #1024	@ 0x400
87803da6:	bf38      	it	cc
87803da8:	4602      	movcc	r2, r0
87803daa:	4610      	mov	r0, r2
87803dac:	9204      	str	r2, [sp, #16]
87803dae:	f7ff f8ef 	bl	87802f90 <strnlen>
87803db2:	9b05      	ldr	r3, [sp, #20]
87803db4:	9a04      	ldr	r2, [sp, #16]
87803db6:	f013 0f10 	tst.w	r3, #16
87803dba:	f000 80a8 	beq.w	87803f0e <vsnprintf+0x622>
87803dbe:	2800      	cmp	r0, #0
87803dc0:	f340 80c6 	ble.w	87803f50 <vsnprintf+0x664>
87803dc4:	1833      	adds	r3, r6, r0
87803dc6:	42b7      	cmp	r7, r6
87803dc8:	f106 0601 	add.w	r6, r6, #1
87803dcc:	bf28      	it	cs
87803dce:	7811      	ldrbcs	r1, [r2, #0]
87803dd0:	f102 0201 	add.w	r2, r2, #1
87803dd4:	bf28      	it	cs
87803dd6:	f806 1c01 	strbcs.w	r1, [r6, #-1]
87803dda:	429e      	cmp	r6, r3
87803ddc:	d1f3      	bne.n	87803dc6 <vsnprintf+0x4da>
87803dde:	4284      	cmp	r4, r0
87803de0:	f105 0201 	add.w	r2, r5, #1
87803de4:	bfdc      	itt	le
87803de6:	7868      	ldrble	r0, [r5, #1]
87803de8:	461e      	movle	r6, r3
87803dea:	f77f ada0 	ble.w	8780392e <vsnprintf+0x42>
87803dee:	1a20      	subs	r0, r4, r0
87803df0:	2120      	movs	r1, #32
87803df2:	181e      	adds	r6, r3, r0
87803df4:	429f      	cmp	r7, r3
87803df6:	f103 0301 	add.w	r3, r3, #1
87803dfa:	bf28      	it	cs
87803dfc:	f803 1c01 	strbcs.w	r1, [r3, #-1]
87803e00:	42b3      	cmp	r3, r6
87803e02:	d1f7      	bne.n	87803df4 <vsnprintf+0x508>
87803e04:	7868      	ldrb	r0, [r5, #1]
87803e06:	2800      	cmp	r0, #0
87803e08:	f47f ad88 	bne.w	8780391c <vsnprintf+0x30>
87803e0c:	e591      	b.n	87803932 <vsnprintf+0x46>
87803e0e:	4675      	mov	r5, lr
87803e10:	1c62      	adds	r2, r4, #1
87803e12:	f858 2b04 	ldr.w	r2, [r8], #4
87803e16:	bf04      	itt	eq
87803e18:	f043 0301 	orreq.w	r3, r3, #1
87803e1c:	2408      	moveq	r4, #8
87803e1e:	e9cd 1302 	strd	r1, r3, [sp, #8]
87803e22:	2310      	movs	r3, #16
87803e24:	9300      	str	r3, [sp, #0]
87803e26:	4630      	mov	r0, r6
87803e28:	2300      	movs	r3, #0
87803e2a:	9401      	str	r4, [sp, #4]
87803e2c:	e718      	b.n	87803c60 <vsnprintf+0x374>
87803e2e:	f043 0302 	orr.w	r3, r3, #2
87803e32:	0798      	lsls	r0, r3, #30
87803e34:	f858 2b04 	ldr.w	r2, [r8], #4
87803e38:	bf58      	it	pl
87803e3a:	f04f 0c0a 	movpl.w	ip, #10
87803e3e:	d52f      	bpl.n	87803ea0 <vsnprintf+0x5b4>
87803e40:	17d0      	asrs	r0, r2, #31
87803e42:	f04f 0c0a 	mov.w	ip, #10
87803e46:	e705      	b.n	87803c54 <vsnprintf+0x368>
87803e48:	f043 0340 	orr.w	r3, r3, #64	@ 0x40
87803e4c:	f04f 0c10 	mov.w	ip, #16
87803e50:	2868      	cmp	r0, #104	@ 0x68
87803e52:	f47f aefb 	bne.w	87803c4c <vsnprintf+0x360>
87803e56:	f858 2b04 	ldr.w	r2, [r8], #4
87803e5a:	b292      	uxth	r2, r2
87803e5c:	2000      	movs	r0, #0
87803e5e:	e6f9      	b.n	87803c54 <vsnprintf+0x368>
87803e60:	f858 1b04 	ldr.w	r1, [r8], #4
87803e64:	eba6 030a 	sub.w	r3, r6, sl
87803e68:	1c6a      	adds	r2, r5, #1
87803e6a:	600b      	str	r3, [r1, #0]
87803e6c:	7868      	ldrb	r0, [r5, #1]
87803e6e:	e7ca      	b.n	87803e06 <vsnprintf+0x51a>
87803e70:	f043 0302 	orr.w	r3, r3, #2
87803e74:	f013 0002 	ands.w	r0, r3, #2
87803e78:	f858 2b04 	ldr.w	r2, [r8], #4
87803e7c:	4675      	mov	r5, lr
87803e7e:	d1df      	bne.n	87803e40 <vsnprintf+0x554>
87803e80:	e7df      	b.n	87803e42 <vsnprintf+0x556>
87803e82:	f858 2b04 	ldr.w	r2, [r8], #4
87803e86:	eba6 030a 	sub.w	r3, r6, sl
87803e8a:	6013      	str	r3, [r2, #0]
87803e8c:	1caa      	adds	r2, r5, #2
87803e8e:	78a8      	ldrb	r0, [r5, #2]
87803e90:	2800      	cmp	r0, #0
87803e92:	f47f ad43 	bne.w	8780391c <vsnprintf+0x30>
87803e96:	e54c      	b.n	87803932 <vsnprintf+0x46>
87803e98:	f04f 0c08 	mov.w	ip, #8
87803e9c:	f858 2b04 	ldr.w	r2, [r8], #4
87803ea0:	2000      	movs	r0, #0
87803ea2:	e6d7      	b.n	87803c54 <vsnprintf+0x368>
87803ea4:	2000      	movs	r0, #0
87803ea6:	b007      	add	sp, #28
87803ea8:	e8bd 8ff0 	ldmia.w	sp!, {r4, r5, r6, r7, r8, r9, sl, fp, pc}
87803eac:	4675      	mov	r5, lr
87803eae:	e66b      	b.n	87803b88 <vsnprintf+0x29c>
87803eb0:	4616      	mov	r6, r2
87803eb2:	e53e      	b.n	87803932 <vsnprintf+0x46>
87803eb4:	0798      	lsls	r0, r3, #30
87803eb6:	f858 2b04 	ldr.w	r2, [r8], #4
87803eba:	d559      	bpl.n	87803f70 <vsnprintf+0x684>
87803ebc:	b212      	sxth	r2, r2
87803ebe:	f04f 0c0a 	mov.w	ip, #10
87803ec2:	17d0      	asrs	r0, r2, #31
87803ec4:	e6c6      	b.n	87803c54 <vsnprintf+0x368>
87803ec6:	f04f 0c10 	mov.w	ip, #16
87803eca:	e7e7      	b.n	87803e9c <vsnprintf+0x5b0>
87803ecc:	f043 0340 	orr.w	r3, r3, #64	@ 0x40
87803ed0:	f04f 0c10 	mov.w	ip, #16
87803ed4:	e7e2      	b.n	87803e9c <vsnprintf+0x5b0>
87803ed6:	f858 1b04 	ldr.w	r1, [r8], #4
87803eda:	eba6 030a 	sub.w	r3, r6, sl
87803ede:	1c6a      	adds	r2, r5, #1
87803ee0:	e7c3      	b.n	87803e6a <vsnprintf+0x57e>
87803ee2:	f04f 0c10 	mov.w	ip, #16
87803ee6:	e7b3      	b.n	87803e50 <vsnprintf+0x564>
87803ee8:	f04f 0c08 	mov.w	ip, #8
87803eec:	e7b0      	b.n	87803e50 <vsnprintf+0x564>
87803eee:	f04f 0c08 	mov.w	ip, #8
87803ef2:	4675      	mov	r5, lr
87803ef4:	e7d2      	b.n	87803e9c <vsnprintf+0x5b0>
87803ef6:	f04f 0c10 	mov.w	ip, #16
87803efa:	4675      	mov	r5, lr
87803efc:	e7ce      	b.n	87803e9c <vsnprintf+0x5b0>
87803efe:	f043 0340 	orr.w	r3, r3, #64	@ 0x40
87803f02:	f04f 0c10 	mov.w	ip, #16
87803f06:	4675      	mov	r5, lr
87803f08:	e7c8      	b.n	87803e9c <vsnprintf+0x5b0>
87803f0a:	4656      	mov	r6, sl
87803f0c:	e513      	b.n	87803936 <vsnprintf+0x4a>
87803f0e:	4284      	cmp	r4, r0
87803f10:	f104 3cff 	add.w	ip, r4, #4294967295	@ 0xffffffff
87803f14:	dd2f      	ble.n	87803f76 <vsnprintf+0x68a>
87803f16:	1a23      	subs	r3, r4, r0
87803f18:	2120      	movs	r1, #32
87803f1a:	4433      	add	r3, r6
87803f1c:	42b7      	cmp	r7, r6
87803f1e:	f106 0601 	add.w	r6, r6, #1
87803f22:	bf28      	it	cs
87803f24:	f806 1c01 	strbcs.w	r1, [r6, #-1]
87803f28:	429e      	cmp	r6, r3
87803f2a:	d1f7      	bne.n	87803f1c <vsnprintf+0x630>
87803f2c:	1b04      	subs	r4, r0, r4
87803f2e:	4464      	add	r4, ip
87803f30:	e745      	b.n	87803dbe <vsnprintf+0x4d2>
87803f32:	2c01      	cmp	r4, #1
87803f34:	dd0e      	ble.n	87803f54 <vsnprintf+0x668>
87803f36:	1e63      	subs	r3, r4, #1
87803f38:	2120      	movs	r1, #32
87803f3a:	4433      	add	r3, r6
87803f3c:	42be      	cmp	r6, r7
87803f3e:	f106 0601 	add.w	r6, r6, #1
87803f42:	bf98      	it	ls
87803f44:	f806 1c01 	strbls.w	r1, [r6, #-1]
87803f48:	42b3      	cmp	r3, r6
87803f4a:	d1f7      	bne.n	87803f3c <vsnprintf+0x650>
87803f4c:	2400      	movs	r4, #0
87803f4e:	e6f5      	b.n	87803d3c <vsnprintf+0x450>
87803f50:	4633      	mov	r3, r6
87803f52:	e744      	b.n	87803dde <vsnprintf+0x4f2>
87803f54:	42b7      	cmp	r7, r6
87803f56:	d310      	bcc.n	87803f7a <vsnprintf+0x68e>
87803f58:	f8d8 1000 	ldr.w	r1, [r8]
87803f5c:	4633      	mov	r3, r6
87803f5e:	f803 1b01 	strb.w	r1, [r3], #1
87803f62:	7868      	ldrb	r0, [r5, #1]
87803f64:	461e      	mov	r6, r3
87803f66:	46e0      	mov	r8, ip
87803f68:	2800      	cmp	r0, #0
87803f6a:	f47f acd7 	bne.w	8780391c <vsnprintf+0x30>
87803f6e:	e4e0      	b.n	87803932 <vsnprintf+0x46>
87803f70:	f04f 0c0a 	mov.w	ip, #10
87803f74:	e771      	b.n	87803e5a <vsnprintf+0x56e>
87803f76:	4664      	mov	r4, ip
87803f78:	e721      	b.n	87803dbe <vsnprintf+0x4d2>
87803f7a:	7868      	ldrb	r0, [r5, #1]
87803f7c:	3601      	adds	r6, #1
87803f7e:	46e0      	mov	r8, ip
87803f80:	2800      	cmp	r0, #0
87803f82:	f47f accb 	bne.w	8780391c <vsnprintf+0x30>
87803f86:	e4d4      	b.n	87803932 <vsnprintf+0x46>

87803f88 <vscnprintf>:
87803f88:	b510      	push	{r4, lr}
87803f8a:	460c      	mov	r4, r1
87803f8c:	f7ff fcae 	bl	878038ec <vsnprintf>
87803f90:	42a0      	cmp	r0, r4
87803f92:	bf28      	it	cs
87803f94:	f104 30ff 	addcs.w	r0, r4, #4294967295	@ 0xffffffff
87803f98:	bd10      	pop	{r4, pc}
87803f9a:	bf00      	nop

87803f9c <snprintf>:
87803f9c:	b40c      	push	{r2, r3}
87803f9e:	b508      	push	{r3, lr}
87803fa0:	ab02      	add	r3, sp, #8
87803fa2:	f853 2b04 	ldr.w	r2, [r3], #4
87803fa6:	f7ff fca1 	bl	878038ec <vsnprintf>
87803faa:	e8bd 4008 	ldmia.w	sp!, {r3, lr}
87803fae:	b002      	add	sp, #8
87803fb0:	4770      	bx	lr
87803fb2:	bf00      	nop

87803fb4 <scnprintf>:
87803fb4:	b40c      	push	{r2, r3}
87803fb6:	b510      	push	{r4, lr}
87803fb8:	ab02      	add	r3, sp, #8
87803fba:	460c      	mov	r4, r1
87803fbc:	f853 2b04 	ldr.w	r2, [r3], #4
87803fc0:	f7ff fc94 	bl	878038ec <vsnprintf>
87803fc4:	42a0      	cmp	r0, r4
87803fc6:	bf28      	it	cs
87803fc8:	f104 30ff 	addcs.w	r0, r4, #4294967295	@ 0xffffffff
87803fcc:	e8bd 4010 	ldmia.w	sp!, {r4, lr}
87803fd0:	b002      	add	sp, #8
87803fd2:	4770      	bx	lr

87803fd4 <vsprintf>:
87803fd4:	4613      	mov	r3, r2
87803fd6:	460a      	mov	r2, r1
87803fd8:	f06f 4100 	mvn.w	r1, #2147483648	@ 0x80000000
87803fdc:	f7ff bc86 	b.w	878038ec <vsnprintf>

87803fe0 <sprintf>:
87803fe0:	b40e      	push	{r1, r2, r3}
87803fe2:	f06f 4100 	mvn.w	r1, #2147483648	@ 0x80000000
87803fe6:	b500      	push	{lr}
87803fe8:	ab01      	add	r3, sp, #4
87803fea:	f853 2b04 	ldr.w	r2, [r3], #4
87803fee:	f7ff fc7d 	bl	878038ec <vsnprintf>
87803ff2:	f85d eb04 	ldr.w	lr, [sp], #4
87803ff6:	b003      	add	sp, #12
87803ff8:	4770      	bx	lr
87803ffa:	bf00      	nop

87803ffc <vsscanf>:
87803ffc:	e92d 4ff0 	stmdb	sp!, {r4, r5, r6, r7, r8, r9, sl, fp, lr}
87804000:	b083      	sub	sp, #12
87804002:	780b      	ldrb	r3, [r1, #0]
87804004:	461f      	mov	r7, r3
87804006:	b1d3      	cbz	r3, 8780403e <vsscanf+0x42>
87804008:	f249 14c8 	movw	r4, #37320	@ 0x91c8
8780400c:	460d      	mov	r5, r1
8780400e:	4606      	mov	r6, r0
87804010:	4694      	mov	ip, r2
87804012:	f2c8 7480 	movt	r4, #34688	@ 0x8780
87804016:	2700      	movs	r7, #0
87804018:	7801      	ldrb	r1, [r0, #0]
8780401a:	b181      	cbz	r1, 8780403e <vsscanf+0x42>
8780401c:	5ce2      	ldrb	r2, [r4, r3]
8780401e:	782b      	ldrb	r3, [r5, #0]
87804020:	0692      	lsls	r2, r2, #26
87804022:	d412      	bmi.n	8780404a <vsscanf+0x4e>
87804024:	2b25      	cmp	r3, #37	@ 0x25
87804026:	bf18      	it	ne
87804028:	2b00      	cmpne	r3, #0
8780402a:	bf14      	ite	ne
8780402c:	f04f 0e01 	movne.w	lr, #1
87804030:	f04f 0e00 	moveq.w	lr, #0
87804034:	d015      	beq.n	87804062 <vsscanf+0x66>
87804036:	7802      	ldrb	r2, [r0, #0]
87804038:	429a      	cmp	r2, r3
8780403a:	f000 811c 	beq.w	87804276 <vsscanf+0x27a>
8780403e:	4638      	mov	r0, r7
87804040:	b003      	add	sp, #12
87804042:	e8bd 8ff0 	ldmia.w	sp!, {r4, r5, r6, r7, r8, r9, sl, fp, pc}
87804046:	f815 3f01 	ldrb.w	r3, [r5, #1]!
8780404a:	5ce2      	ldrb	r2, [r4, r3]
8780404c:	0692      	lsls	r2, r2, #26
8780404e:	d4fa      	bmi.n	87804046 <vsscanf+0x4a>
87804050:	5c62      	ldrb	r2, [r4, r1]
87804052:	0692      	lsls	r2, r2, #26
87804054:	d5e6      	bpl.n	87804024 <vsscanf+0x28>
87804056:	f810 2f01 	ldrb.w	r2, [r0, #1]!
8780405a:	5ca2      	ldrb	r2, [r4, r2]
8780405c:	0691      	lsls	r1, r2, #26
8780405e:	d4fa      	bmi.n	87804056 <vsscanf+0x5a>
87804060:	e7e0      	b.n	87804024 <vsscanf+0x28>
87804062:	2b00      	cmp	r3, #0
87804064:	d0eb      	beq.n	8780403e <vsscanf+0x42>
87804066:	786b      	ldrb	r3, [r5, #1]
87804068:	1c6a      	adds	r2, r5, #1
8780406a:	2b2a      	cmp	r3, #42	@ 0x2a
8780406c:	5ce1      	ldrb	r1, [r4, r3]
8780406e:	461d      	mov	r5, r3
87804070:	f000 811c 	beq.w	878042ac <vsscanf+0x2b0>
87804074:	0749      	lsls	r1, r1, #29
87804076:	bf58      	it	pl
87804078:	f04f 31ff 	movpl.w	r1, #4294967295	@ 0xffffffff
8780407c:	f100 8093 	bmi.w	878041a6 <vsscanf+0x1aa>
87804080:	2b7a      	cmp	r3, #122	@ 0x7a
87804082:	d8dc      	bhi.n	8780403e <vsscanf+0x42>
87804084:	2b67      	cmp	r3, #103	@ 0x67
87804086:	d865      	bhi.n	87804154 <vsscanf+0x158>
87804088:	2b4c      	cmp	r3, #76	@ 0x4c
8780408a:	f000 80fb 	beq.w	87804284 <vsscanf+0x288>
8780408e:	2b5a      	cmp	r3, #90	@ 0x5a
87804090:	f000 8098 	beq.w	878041c4 <vsscanf+0x1c8>
87804094:	469a      	mov	sl, r3
87804096:	4690      	mov	r8, r2
87804098:	f04f 33ff 	mov.w	r3, #4294967295	@ 0xffffffff
8780409c:	f1ba 0f00 	cmp.w	sl, #0
878040a0:	d0cd      	beq.n	8780403e <vsscanf+0x42>
878040a2:	f890 9000 	ldrb.w	r9, [r0]
878040a6:	f1b9 0f00 	cmp.w	r9, #0
878040aa:	d0c8      	beq.n	8780403e <vsscanf+0x42>
878040ac:	f1ba 0f25 	cmp.w	sl, #37	@ 0x25
878040b0:	f108 0501 	add.w	r5, r8, #1
878040b4:	f000 80ef 	beq.w	87804296 <vsscanf+0x29a>
878040b8:	f1aa 0a58 	sub.w	sl, sl, #88	@ 0x58
878040bc:	fa5f f28a 	uxtb.w	r2, sl
878040c0:	2a20      	cmp	r2, #32
878040c2:	d8bc      	bhi.n	8780403e <vsscanf+0x42>
878040c4:	f1ba 0f20 	cmp.w	sl, #32
878040c8:	d8b9      	bhi.n	8780403e <vsscanf+0x42>
878040ca:	a201      	add	r2, pc, #4	@ (adr r2, 878040d0 <vsscanf+0xd4>)
878040cc:	f852 f02a 	ldr.w	pc, [r2, sl, lsl #2]
878040d0:	878042f7 			@ <UNDEFINED> instruction: 0x878042f7
878040d4:	8780403f 			@ <UNDEFINED> instruction: 0x8780403f
878040d8:	8780403f 			@ <UNDEFINED> instruction: 0x8780403f
878040dc:	8780403f 			@ <UNDEFINED> instruction: 0x8780403f
878040e0:	8780403f 			@ <UNDEFINED> instruction: 0x8780403f
878040e4:	8780403f 			@ <UNDEFINED> instruction: 0x8780403f
878040e8:	8780403f 			@ <UNDEFINED> instruction: 0x8780403f
878040ec:	8780403f 			@ <UNDEFINED> instruction: 0x8780403f
878040f0:	8780403f 			@ <UNDEFINED> instruction: 0x8780403f
878040f4:	8780403f 			@ <UNDEFINED> instruction: 0x8780403f
878040f8:	8780403f 			@ <UNDEFINED> instruction: 0x8780403f
878040fc:	87804241 	strhi	r4, [r0, r1, asr #4]
87804100:	878043b9 			@ <UNDEFINED> instruction: 0x878043b9
87804104:	8780403f 			@ <UNDEFINED> instruction: 0x8780403f
87804108:	8780403f 			@ <UNDEFINED> instruction: 0x8780403f
8780410c:	8780403f 			@ <UNDEFINED> instruction: 0x8780403f
87804110:	8780403f 			@ <UNDEFINED> instruction: 0x8780403f
87804114:	878043dd 			@ <UNDEFINED> instruction: 0x878043dd
87804118:	8780403f 			@ <UNDEFINED> instruction: 0x8780403f
8780411c:	8780403f 			@ <UNDEFINED> instruction: 0x8780403f
87804120:	8780403f 			@ <UNDEFINED> instruction: 0x8780403f
87804124:	8780403f 			@ <UNDEFINED> instruction: 0x8780403f
87804128:	8780422d 	strhi	r4, [r0, sp, lsr #4]
8780412c:	878043e1 	strhi	r4, [r0, r1, ror #7]
87804130:	8780403f 			@ <UNDEFINED> instruction: 0x8780403f
87804134:	8780403f 			@ <UNDEFINED> instruction: 0x8780403f
87804138:	8780403f 			@ <UNDEFINED> instruction: 0x8780403f
8780413c:	878041d7 			@ <UNDEFINED> instruction: 0x878041d7
87804140:	8780403f 			@ <UNDEFINED> instruction: 0x8780403f
87804144:	878043d9 			@ <UNDEFINED> instruction: 0x878043d9
87804148:	8780403f 			@ <UNDEFINED> instruction: 0x8780403f
8780414c:	8780403f 			@ <UNDEFINED> instruction: 0x8780403f
87804150:	878042f7 			@ <UNDEFINED> instruction: 0x878042f7
87804154:	f1a3 0868 	sub.w	r8, r3, #104	@ 0x68
87804158:	2511      	movs	r5, #17
8780415a:	fa5f f888 	uxtb.w	r8, r8
8780415e:	f2c0 0504 	movt	r5, #4
87804162:	fa25 f508 	lsr.w	r5, r5, r8
87804166:	07ed      	lsls	r5, r5, #31
87804168:	d40b      	bmi.n	87804182 <vsscanf+0x186>
8780416a:	f890 9000 	ldrb.w	r9, [r0]
8780416e:	f1b9 0f00 	cmp.w	r9, #0
87804172:	f43f af64 	beq.w	8780403e <vsscanf+0x42>
87804176:	469a      	mov	sl, r3
87804178:	1c55      	adds	r5, r2, #1
8780417a:	4690      	mov	r8, r2
8780417c:	f04f 33ff 	mov.w	r3, #4294967295	@ 0xffffffff
87804180:	e79a      	b.n	878040b8 <vsscanf+0xbc>
87804182:	f892 a001 	ldrb.w	sl, [r2, #1]
87804186:	f102 0801 	add.w	r8, r2, #1
8780418a:	459a      	cmp	sl, r3
8780418c:	d186      	bne.n	8780409c <vsscanf+0xa0>
8780418e:	2b68      	cmp	r3, #104	@ 0x68
87804190:	f000 8174 	beq.w	8780447c <vsscanf+0x480>
87804194:	2b6c      	cmp	r3, #108	@ 0x6c
87804196:	f040 8191 	bne.w	878044bc <vsscanf+0x4c0>
8780419a:	f892 a002 	ldrb.w	sl, [r2, #2]
8780419e:	f102 0802 	add.w	r8, r2, #2
878041a2:	234c      	movs	r3, #76	@ 0x4c
878041a4:	e77a      	b.n	8780409c <vsscanf+0xa0>
878041a6:	4671      	mov	r1, lr
878041a8:	eb01 0181 	add.w	r1, r1, r1, lsl #2
878041ac:	eb05 0141 	add.w	r1, r5, r1, lsl #1
878041b0:	f812 5f01 	ldrb.w	r5, [r2, #1]!
878041b4:	3930      	subs	r1, #48	@ 0x30
878041b6:	f814 8005 	ldrb.w	r8, [r4, r5]
878041ba:	462b      	mov	r3, r5
878041bc:	f018 0f04 	tst.w	r8, #4
878041c0:	d1f2      	bne.n	878041a8 <vsscanf+0x1ac>
878041c2:	e75d      	b.n	87804080 <vsscanf+0x84>
878041c4:	f892 a001 	ldrb.w	sl, [r2, #1]
878041c8:	f102 0801 	add.w	r8, r2, #1
878041cc:	f1ba 0f5a 	cmp.w	sl, #90	@ 0x5a
878041d0:	f47f af64 	bne.w	8780409c <vsscanf+0xa0>
878041d4:	e765      	b.n	878040a2 <vsscanf+0xa6>
878041d6:	f814 2009 	ldrb.w	r2, [r4, r9]
878041da:	1c4b      	adds	r3, r1, #1
878041dc:	bf08      	it	eq
878041de:	f06f 4100 	mvneq.w	r1, #2147483648	@ 0x80000000
878041e2:	f85c 3b04 	ldr.w	r3, [ip], #4
878041e6:	0692      	lsls	r2, r2, #26
878041e8:	d508      	bpl.n	878041fc <vsscanf+0x200>
878041ea:	f810 9f01 	ldrb.w	r9, [r0, #1]!
878041ee:	f814 2009 	ldrb.w	r2, [r4, r9]
878041f2:	0692      	lsls	r2, r2, #26
878041f4:	d4f9      	bmi.n	878041ea <vsscanf+0x1ee>
878041f6:	f1b9 0f00 	cmp.w	r9, #0
878041fa:	d00e      	beq.n	8780421a <vsscanf+0x21e>
878041fc:	4419      	add	r1, r3
878041fe:	e008      	b.n	87804212 <vsscanf+0x216>
87804200:	428b      	cmp	r3, r1
87804202:	d00a      	beq.n	8780421a <vsscanf+0x21e>
87804204:	f803 9b01 	strb.w	r9, [r3], #1
87804208:	f810 9f01 	ldrb.w	r9, [r0, #1]!
8780420c:	f1b9 0f00 	cmp.w	r9, #0
87804210:	d003      	beq.n	8780421a <vsscanf+0x21e>
87804212:	f814 2009 	ldrb.w	r2, [r4, r9]
87804216:	0692      	lsls	r2, r2, #26
87804218:	d5f2      	bpl.n	87804200 <vsscanf+0x204>
8780421a:	2200      	movs	r2, #0
8780421c:	3701      	adds	r7, #1
8780421e:	701a      	strb	r2, [r3, #0]
87804220:	f898 3001 	ldrb.w	r3, [r8, #1]
87804224:	2b00      	cmp	r3, #0
87804226:	f47f aef7 	bne.w	87804018 <vsscanf+0x1c>
8780422a:	e708      	b.n	8780403e <vsscanf+0x42>
8780422c:	f85c 2b04 	ldr.w	r2, [ip], #4
87804230:	1b83      	subs	r3, r0, r6
87804232:	6013      	str	r3, [r2, #0]
87804234:	f898 3001 	ldrb.w	r3, [r8, #1]
87804238:	2b00      	cmp	r3, #0
8780423a:	f47f aeed 	bne.w	87804018 <vsscanf+0x1c>
8780423e:	e6fe      	b.n	8780403e <vsscanf+0x42>
87804240:	1c4b      	adds	r3, r1, #1
87804242:	f85c 3b04 	ldr.w	r3, [ip], #4
87804246:	bf08      	it	eq
87804248:	2101      	moveq	r1, #1
8780424a:	4602      	mov	r2, r0
8780424c:	f103 3eff 	add.w	lr, r3, #4294967295	@ 0xffffffff
87804250:	e001      	b.n	87804256 <vsscanf+0x25a>
87804252:	7813      	ldrb	r3, [r2, #0]
87804254:	b13b      	cbz	r3, 87804266 <vsscanf+0x26a>
87804256:	f812 9b01 	ldrb.w	r9, [r2], #1
8780425a:	1a83      	subs	r3, r0, r2
8780425c:	f80e 9f01 	strb.w	r9, [lr, #1]!
87804260:	440b      	add	r3, r1
87804262:	2b00      	cmp	r3, #0
87804264:	dcf5      	bgt.n	87804252 <vsscanf+0x256>
87804266:	f898 3001 	ldrb.w	r3, [r8, #1]
8780426a:	3701      	adds	r7, #1
8780426c:	4610      	mov	r0, r2
8780426e:	2b00      	cmp	r3, #0
87804270:	f47f aed2 	bne.w	87804018 <vsscanf+0x1c>
87804274:	e6e3      	b.n	8780403e <vsscanf+0x42>
87804276:	786b      	ldrb	r3, [r5, #1]
87804278:	3001      	adds	r0, #1
8780427a:	3501      	adds	r5, #1
8780427c:	2b00      	cmp	r3, #0
8780427e:	f47f aecb 	bne.w	87804018 <vsscanf+0x1c>
87804282:	e6dc      	b.n	8780403e <vsscanf+0x42>
87804284:	f892 a001 	ldrb.w	sl, [r2, #1]
87804288:	f102 0801 	add.w	r8, r2, #1
8780428c:	f1ba 0f4c 	cmp.w	sl, #76	@ 0x4c
87804290:	f47f af04 	bne.w	8780409c <vsscanf+0xa0>
87804294:	e705      	b.n	878040a2 <vsscanf+0xa6>
87804296:	f1b9 0f25 	cmp.w	r9, #37	@ 0x25
8780429a:	f47f aed0 	bne.w	8780403e <vsscanf+0x42>
8780429e:	f898 3001 	ldrb.w	r3, [r8, #1]
878042a2:	3001      	adds	r0, #1
878042a4:	2b00      	cmp	r3, #0
878042a6:	f47f aeb7 	bne.w	87804018 <vsscanf+0x1c>
878042aa:	e6c8      	b.n	8780403e <vsscanf+0x42>
878042ac:	4615      	mov	r5, r2
878042ae:	068a      	lsls	r2, r1, #26
878042b0:	d40d      	bmi.n	878042ce <vsscanf+0x2d2>
878042b2:	f815 3f01 	ldrb.w	r3, [r5, #1]!
878042b6:	5ce2      	ldrb	r2, [r4, r3]
878042b8:	f3c2 1240 	ubfx	r2, r2, #5, #1
878042bc:	f082 0201 	eor.w	r2, r2, #1
878042c0:	2b00      	cmp	r3, #0
878042c2:	bf0c      	ite	eq
878042c4:	2200      	moveq	r2, #0
878042c6:	f002 0201 	andne.w	r2, r2, #1
878042ca:	2a00      	cmp	r2, #0
878042cc:	d1f1      	bne.n	878042b2 <vsscanf+0x2b6>
878042ce:	7801      	ldrb	r1, [r0, #0]
878042d0:	e001      	b.n	878042d6 <vsscanf+0x2da>
878042d2:	f810 1f01 	ldrb.w	r1, [r0, #1]!
878042d6:	5c62      	ldrb	r2, [r4, r1]
878042d8:	f3c2 1240 	ubfx	r2, r2, #5, #1
878042dc:	f082 0201 	eor.w	r2, r2, #1
878042e0:	2900      	cmp	r1, #0
878042e2:	bf0c      	ite	eq
878042e4:	2200      	moveq	r2, #0
878042e6:	f002 0201 	andne.w	r2, r2, #1
878042ea:	2a00      	cmp	r2, #0
878042ec:	d1f1      	bne.n	878042d2 <vsscanf+0x2d6>
878042ee:	2b00      	cmp	r3, #0
878042f0:	f47f ae92 	bne.w	87804018 <vsscanf+0x1c>
878042f4:	e6a3      	b.n	8780403e <vsscanf+0x42>
878042f6:	2210      	movs	r2, #16
878042f8:	f814 a009 	ldrb.w	sl, [r4, r9]
878042fc:	f01a 0b20 	ands.w	fp, sl, #32
87804300:	bf18      	it	ne
87804302:	f04f 0b00 	movne.w	fp, #0
87804306:	f000 80b3 	beq.w	87804470 <vsscanf+0x474>
8780430a:	f810 9f01 	ldrb.w	r9, [r0, #1]!
8780430e:	f814 1009 	ldrb.w	r1, [r4, r9]
87804312:	f011 0f20 	tst.w	r1, #32
87804316:	d1f8      	bne.n	8780430a <vsscanf+0x30e>
87804318:	f1a9 012d 	sub.w	r1, r9, #45	@ 0x2d
8780431c:	fab1 f181 	clz	r1, r1
87804320:	0949      	lsrs	r1, r1, #5
87804322:	ea11 0f0e 	tst.w	r1, lr
87804326:	d002      	beq.n	8780432e <vsscanf+0x332>
87804328:	f890 9001 	ldrb.w	r9, [r0, #1]
8780432c:	2101      	movs	r1, #1
8780432e:	f1b9 0f00 	cmp.w	r9, #0
87804332:	f43f ae84 	beq.w	8780403e <vsscanf+0x42>
87804336:	f814 a009 	ldrb.w	sl, [r4, r9]
8780433a:	2a10      	cmp	r2, #16
8780433c:	d075      	beq.n	8780442a <vsscanf+0x42e>
8780433e:	2a0a      	cmp	r2, #10
87804340:	f00a 0a04 	and.w	sl, sl, #4
87804344:	d175      	bne.n	87804432 <vsscanf+0x436>
87804346:	f1ba 0f00 	cmp.w	sl, #0
8780434a:	f43f ae78 	beq.w	8780403e <vsscanf+0x42>
8780434e:	2b6c      	cmp	r3, #108	@ 0x6c
87804350:	46e1      	mov	r9, ip
87804352:	f859 ab04 	ldr.w	sl, [r9], #4
87804356:	dc1e      	bgt.n	87804396 <vsscanf+0x39a>
87804358:	2b47      	cmp	r3, #71	@ 0x47
8780435a:	dd17      	ble.n	8780438c <vsscanf+0x390>
8780435c:	3b48      	subs	r3, #72	@ 0x48
8780435e:	2b24      	cmp	r3, #36	@ 0x24
87804360:	d814      	bhi.n	8780438c <vsscanf+0x390>
87804362:	e8df f003 	tbb	[pc, r3]
87804366:	13131357 	tstne	r3, #1543503873	@ 0x5c000001
8780436a:	1313134a 	tstne	r3, #671088641	@ 0x28000001
8780436e:	13131313 	tstne	r3, #1275068416	@ 0x4c000000
87804372:	13131313 	tstne	r3, #1275068416	@ 0x4c000000
87804376:	13181313 	tstne	r8, #1275068416	@ 0x4c000000
8780437a:	13131313 	tstne	r3, #1275068416	@ 0x4c000000
8780437e:	13131313 	tstne	r3, #1275068416	@ 0x4c000000
87804382:	13131313 	tstne	r3, #1275068416	@ 0x4c000000
87804386:	1313133f 	tstne	r3, #-67108864	@ 0xfc000000
8780438a:	f1bb0013 			@ <UNDEFINED> instruction: 0xf1bb0013
8780438e:	0f00      	lsrs	r0, r0, #28
87804390:	d001      	beq.n	87804396 <vsscanf+0x39a>
87804392:	2900      	cmp	r1, #0
87804394:	d178      	bne.n	87804488 <vsscanf+0x48c>
87804396:	a901      	add	r1, sp, #4
87804398:	f7ff f974 	bl	87803684 <simple_strtoul>
8780439c:	f8ca 0000 	str.w	r0, [sl]
878043a0:	9801      	ldr	r0, [sp, #4]
878043a2:	3701      	adds	r7, #1
878043a4:	2800      	cmp	r0, #0
878043a6:	f43f ae4a 	beq.w	8780403e <vsscanf+0x42>
878043aa:	f898 3001 	ldrb.w	r3, [r8, #1]
878043ae:	46cc      	mov	ip, r9
878043b0:	2b00      	cmp	r3, #0
878043b2:	f47f ae31 	bne.w	87804018 <vsscanf+0x1c>
878043b6:	e642      	b.n	8780403e <vsscanf+0x42>
878043b8:	220a      	movs	r2, #10
878043ba:	f814 a009 	ldrb.w	sl, [r4, r9]
878043be:	f01a 0120 	ands.w	r1, sl, #32
878043c2:	bf1c      	itt	ne
878043c4:	f04f 0e01 	movne.w	lr, #1
878043c8:	46f3      	movne	fp, lr
878043ca:	d19e      	bne.n	8780430a <vsscanf+0x30e>
878043cc:	f1b9 0f2d 	cmp.w	r9, #45	@ 0x2d
878043d0:	f04f 0b01 	mov.w	fp, #1
878043d4:	d0a8      	beq.n	87804328 <vsscanf+0x32c>
878043d6:	e7b2      	b.n	8780433e <vsscanf+0x342>
878043d8:	220a      	movs	r2, #10
878043da:	e78d      	b.n	878042f8 <vsscanf+0x2fc>
878043dc:	2200      	movs	r2, #0
878043de:	e7ec      	b.n	878043ba <vsscanf+0x3be>
878043e0:	2208      	movs	r2, #8
878043e2:	e789      	b.n	878042f8 <vsscanf+0x2fc>
878043e4:	f1bb 0f00 	cmp.w	fp, #0
878043e8:	d001      	beq.n	878043ee <vsscanf+0x3f2>
878043ea:	2900      	cmp	r1, #0
878043ec:	d15a      	bne.n	878044a4 <vsscanf+0x4a8>
878043ee:	a901      	add	r1, sp, #4
878043f0:	f7ff f948 	bl	87803684 <simple_strtoul>
878043f4:	f8aa 0000 	strh.w	r0, [sl]
878043f8:	e7d2      	b.n	878043a0 <vsscanf+0x3a4>
878043fa:	f1bb 0f00 	cmp.w	fp, #0
878043fe:	d031      	beq.n	87804464 <vsscanf+0x468>
87804400:	2900      	cmp	r1, #0
87804402:	d147      	bne.n	87804494 <vsscanf+0x498>
87804404:	a901      	add	r1, sp, #4
87804406:	f7ff f9c9 	bl	8780379c <simple_strtoull>
8780440a:	4602      	mov	r2, r0
8780440c:	460b      	mov	r3, r1
8780440e:	e9ca 2300 	strd	r2, r3, [sl]
87804412:	e7c5      	b.n	878043a0 <vsscanf+0x3a4>
87804414:	f1bb 0f00 	cmp.w	fp, #0
87804418:	d001      	beq.n	8780441e <vsscanf+0x422>
8780441a:	2900      	cmp	r1, #0
8780441c:	d148      	bne.n	878044b0 <vsscanf+0x4b4>
8780441e:	a901      	add	r1, sp, #4
87804420:	f7ff f930 	bl	87803684 <simple_strtoul>
87804424:	f88a 0000 	strb.w	r0, [sl]
87804428:	e7ba      	b.n	878043a0 <vsscanf+0x3a4>
8780442a:	f01a 0f44 	tst.w	sl, #68	@ 0x44
8780442e:	d18e      	bne.n	8780434e <vsscanf+0x352>
87804430:	e605      	b.n	8780403e <vsscanf+0x42>
87804432:	2a08      	cmp	r2, #8
87804434:	d005      	beq.n	87804442 <vsscanf+0x446>
87804436:	f1ba 0f00 	cmp.w	sl, #0
8780443a:	f43f ae00 	beq.w	8780403e <vsscanf+0x42>
8780443e:	2200      	movs	r2, #0
87804440:	e785      	b.n	8780434e <vsscanf+0x352>
87804442:	f1b9 0f37 	cmp.w	r9, #55	@ 0x37
87804446:	bf94      	ite	ls
87804448:	f04f 0900 	movls.w	r9, #0
8780444c:	f04f 0901 	movhi.w	r9, #1
87804450:	f1ba 0f00 	cmp.w	sl, #0
87804454:	bf08      	it	eq
87804456:	f049 0901 	orreq.w	r9, r9, #1
8780445a:	f1b9 0f00 	cmp.w	r9, #0
8780445e:	f43f af76 	beq.w	8780434e <vsscanf+0x352>
87804462:	e5ec      	b.n	8780403e <vsscanf+0x42>
87804464:	a901      	add	r1, sp, #4
87804466:	f7ff f999 	bl	8780379c <simple_strtoull>
8780446a:	e9ca 0100 	strd	r0, r1, [sl]
8780446e:	e797      	b.n	878043a0 <vsscanf+0x3a4>
87804470:	f1a9 012d 	sub.w	r1, r9, #45	@ 0x2d
87804474:	fab1 f181 	clz	r1, r1
87804478:	0949      	lsrs	r1, r1, #5
8780447a:	e75e      	b.n	8780433a <vsscanf+0x33e>
8780447c:	f892 a002 	ldrb.w	sl, [r2, #2]
87804480:	f102 0802 	add.w	r8, r2, #2
87804484:	2348      	movs	r3, #72	@ 0x48
87804486:	e609      	b.n	8780409c <vsscanf+0xa0>
87804488:	3001      	adds	r0, #1
8780448a:	a901      	add	r1, sp, #4
8780448c:	f7ff f8fa 	bl	87803684 <simple_strtoul>
87804490:	4240      	negs	r0, r0
87804492:	e783      	b.n	8780439c <vsscanf+0x3a0>
87804494:	3001      	adds	r0, #1
87804496:	a901      	add	r1, sp, #4
87804498:	f7ff f980 	bl	8780379c <simple_strtoull>
8780449c:	4242      	negs	r2, r0
8780449e:	eb61 0341 	sbc.w	r3, r1, r1, lsl #1
878044a2:	e7b4      	b.n	8780440e <vsscanf+0x412>
878044a4:	3001      	adds	r0, #1
878044a6:	a901      	add	r1, sp, #4
878044a8:	f7ff f8ec 	bl	87803684 <simple_strtoul>
878044ac:	4240      	negs	r0, r0
878044ae:	e7a1      	b.n	878043f4 <vsscanf+0x3f8>
878044b0:	3001      	adds	r0, #1
878044b2:	a901      	add	r1, sp, #4
878044b4:	f7ff f8e6 	bl	87803684 <simple_strtoul>
878044b8:	4240      	negs	r0, r0
878044ba:	e7b3      	b.n	87804424 <vsscanf+0x428>
878044bc:	f890 9000 	ldrb.w	r9, [r0]
878044c0:	f1b9 0f00 	cmp.w	r9, #0
878044c4:	f43f adbb 	beq.w	8780403e <vsscanf+0x42>
878044c8:	1c95      	adds	r5, r2, #2
878044ca:	237a      	movs	r3, #122	@ 0x7a
878044cc:	e5f4      	b.n	878040b8 <vsscanf+0xbc>
878044ce:	bf00      	nop

878044d0 <sscanf>:
878044d0:	b40e      	push	{r1, r2, r3}
878044d2:	b500      	push	{lr}
878044d4:	aa01      	add	r2, sp, #4
878044d6:	f852 1b04 	ldr.w	r1, [r2], #4
878044da:	f7ff fd8f 	bl	87803ffc <vsscanf>
878044de:	f85d eb04 	ldr.w	lr, [sp], #4
878044e2:	b003      	add	sp, #12
878044e4:	4770      	bx	lr
878044e6:	bf00      	nop

878044e8 <__udivsi3>:
878044e8:	1e4a      	subs	r2, r1, #1
878044ea:	bf08      	it	eq
878044ec:	4770      	bxeq	lr
878044ee:	f0c0 8124 	bcc.w	8780473a <__udivsi3+0x252>
878044f2:	4288      	cmp	r0, r1
878044f4:	f240 8116 	bls.w	87804724 <__udivsi3+0x23c>
878044f8:	4211      	tst	r1, r2
878044fa:	f000 8117 	beq.w	8780472c <__udivsi3+0x244>
878044fe:	fab0 f380 	clz	r3, r0
87804502:	fab1 f281 	clz	r2, r1
87804506:	eba2 0303 	sub.w	r3, r2, r3
8780450a:	f1c3 031f 	rsb	r3, r3, #31
8780450e:	a204      	add	r2, pc, #16	@ (adr r2, 87804520 <__udivsi3+0x38>)
87804510:	eb02 1303 	add.w	r3, r2, r3, lsl #4
87804514:	f04f 0200 	mov.w	r2, #0
87804518:	469f      	mov	pc, r3
8780451a:	bf00      	nop
8780451c:	f3af 8000 	nop.w
87804520:	ebb0 7fc1 	cmp.w	r0, r1, lsl #31
87804524:	bf00      	nop
87804526:	eb42 0202 	adc.w	r2, r2, r2
8780452a:	bf28      	it	cs
8780452c:	eba0 70c1 	subcs.w	r0, r0, r1, lsl #31
87804530:	ebb0 7f81 	cmp.w	r0, r1, lsl #30
87804534:	bf00      	nop
87804536:	eb42 0202 	adc.w	r2, r2, r2
8780453a:	bf28      	it	cs
8780453c:	eba0 7081 	subcs.w	r0, r0, r1, lsl #30
87804540:	ebb0 7f41 	cmp.w	r0, r1, lsl #29
87804544:	bf00      	nop
87804546:	eb42 0202 	adc.w	r2, r2, r2
8780454a:	bf28      	it	cs
8780454c:	eba0 7041 	subcs.w	r0, r0, r1, lsl #29
87804550:	ebb0 7f01 	cmp.w	r0, r1, lsl #28
87804554:	bf00      	nop
87804556:	eb42 0202 	adc.w	r2, r2, r2
8780455a:	bf28      	it	cs
8780455c:	eba0 7001 	subcs.w	r0, r0, r1, lsl #28
87804560:	ebb0 6fc1 	cmp.w	r0, r1, lsl #27
87804564:	bf00      	nop
87804566:	eb42 0202 	adc.w	r2, r2, r2
8780456a:	bf28      	it	cs
8780456c:	eba0 60c1 	subcs.w	r0, r0, r1, lsl #27
87804570:	ebb0 6f81 	cmp.w	r0, r1, lsl #26
87804574:	bf00      	nop
87804576:	eb42 0202 	adc.w	r2, r2, r2
8780457a:	bf28      	it	cs
8780457c:	eba0 6081 	subcs.w	r0, r0, r1, lsl #26
87804580:	ebb0 6f41 	cmp.w	r0, r1, lsl #25
87804584:	bf00      	nop
87804586:	eb42 0202 	adc.w	r2, r2, r2
8780458a:	bf28      	it	cs
8780458c:	eba0 6041 	subcs.w	r0, r0, r1, lsl #25
87804590:	ebb0 6f01 	cmp.w	r0, r1, lsl #24
87804594:	bf00      	nop
87804596:	eb42 0202 	adc.w	r2, r2, r2
8780459a:	bf28      	it	cs
8780459c:	eba0 6001 	subcs.w	r0, r0, r1, lsl #24
878045a0:	ebb0 5fc1 	cmp.w	r0, r1, lsl #23
878045a4:	bf00      	nop
878045a6:	eb42 0202 	adc.w	r2, r2, r2
878045aa:	bf28      	it	cs
878045ac:	eba0 50c1 	subcs.w	r0, r0, r1, lsl #23
878045b0:	ebb0 5f81 	cmp.w	r0, r1, lsl #22
878045b4:	bf00      	nop
878045b6:	eb42 0202 	adc.w	r2, r2, r2
878045ba:	bf28      	it	cs
878045bc:	eba0 5081 	subcs.w	r0, r0, r1, lsl #22
878045c0:	ebb0 5f41 	cmp.w	r0, r1, lsl #21
878045c4:	bf00      	nop
878045c6:	eb42 0202 	adc.w	r2, r2, r2
878045ca:	bf28      	it	cs
878045cc:	eba0 5041 	subcs.w	r0, r0, r1, lsl #21
878045d0:	ebb0 5f01 	cmp.w	r0, r1, lsl #20
878045d4:	bf00      	nop
878045d6:	eb42 0202 	adc.w	r2, r2, r2
878045da:	bf28      	it	cs
878045dc:	eba0 5001 	subcs.w	r0, r0, r1, lsl #20
878045e0:	ebb0 4fc1 	cmp.w	r0, r1, lsl #19
878045e4:	bf00      	nop
878045e6:	eb42 0202 	adc.w	r2, r2, r2
878045ea:	bf28      	it	cs
878045ec:	eba0 40c1 	subcs.w	r0, r0, r1, lsl #19
878045f0:	ebb0 4f81 	cmp.w	r0, r1, lsl #18
878045f4:	bf00      	nop
878045f6:	eb42 0202 	adc.w	r2, r2, r2
878045fa:	bf28      	it	cs
878045fc:	eba0 4081 	subcs.w	r0, r0, r1, lsl #18
87804600:	ebb0 4f41 	cmp.w	r0, r1, lsl #17
87804604:	bf00      	nop
87804606:	eb42 0202 	adc.w	r2, r2, r2
8780460a:	bf28      	it	cs
8780460c:	eba0 4041 	subcs.w	r0, r0, r1, lsl #17
87804610:	ebb0 4f01 	cmp.w	r0, r1, lsl #16
87804614:	bf00      	nop
87804616:	eb42 0202 	adc.w	r2, r2, r2
8780461a:	bf28      	it	cs
8780461c:	eba0 4001 	subcs.w	r0, r0, r1, lsl #16
87804620:	ebb0 3fc1 	cmp.w	r0, r1, lsl #15
87804624:	bf00      	nop
87804626:	eb42 0202 	adc.w	r2, r2, r2
8780462a:	bf28      	it	cs
8780462c:	eba0 30c1 	subcs.w	r0, r0, r1, lsl #15
87804630:	ebb0 3f81 	cmp.w	r0, r1, lsl #14
87804634:	bf00      	nop
87804636:	eb42 0202 	adc.w	r2, r2, r2
8780463a:	bf28      	it	cs
8780463c:	eba0 3081 	subcs.w	r0, r0, r1, lsl #14
87804640:	ebb0 3f41 	cmp.w	r0, r1, lsl #13
87804644:	bf00      	nop
87804646:	eb42 0202 	adc.w	r2, r2, r2
8780464a:	bf28      	it	cs
8780464c:	eba0 3041 	subcs.w	r0, r0, r1, lsl #13
87804650:	ebb0 3f01 	cmp.w	r0, r1, lsl #12
87804654:	bf00      	nop
87804656:	eb42 0202 	adc.w	r2, r2, r2
8780465a:	bf28      	it	cs
8780465c:	eba0 3001 	subcs.w	r0, r0, r1, lsl #12
87804660:	ebb0 2fc1 	cmp.w	r0, r1, lsl #11
87804664:	bf00      	nop
87804666:	eb42 0202 	adc.w	r2, r2, r2
8780466a:	bf28      	it	cs
8780466c:	eba0 20c1 	subcs.w	r0, r0, r1, lsl #11
87804670:	ebb0 2f81 	cmp.w	r0, r1, lsl #10
87804674:	bf00      	nop
87804676:	eb42 0202 	adc.w	r2, r2, r2
8780467a:	bf28      	it	cs
8780467c:	eba0 2081 	subcs.w	r0, r0, r1, lsl #10
87804680:	ebb0 2f41 	cmp.w	r0, r1, lsl #9
87804684:	bf00      	nop
87804686:	eb42 0202 	adc.w	r2, r2, r2
8780468a:	bf28      	it	cs
8780468c:	eba0 2041 	subcs.w	r0, r0, r1, lsl #9
87804690:	ebb0 2f01 	cmp.w	r0, r1, lsl #8
87804694:	bf00      	nop
87804696:	eb42 0202 	adc.w	r2, r2, r2
8780469a:	bf28      	it	cs
8780469c:	eba0 2001 	subcs.w	r0, r0, r1, lsl #8
878046a0:	ebb0 1fc1 	cmp.w	r0, r1, lsl #7
878046a4:	bf00      	nop
878046a6:	eb42 0202 	adc.w	r2, r2, r2
878046aa:	bf28      	it	cs
878046ac:	eba0 10c1 	subcs.w	r0, r0, r1, lsl #7
878046b0:	ebb0 1f81 	cmp.w	r0, r1, lsl #6
878046b4:	bf00      	nop
878046b6:	eb42 0202 	adc.w	r2, r2, r2
878046ba:	bf28      	it	cs
878046bc:	eba0 1081 	subcs.w	r0, r0, r1, lsl #6
878046c0:	ebb0 1f41 	cmp.w	r0, r1, lsl #5
878046c4:	bf00      	nop
878046c6:	eb42 0202 	adc.w	r2, r2, r2
878046ca:	bf28      	it	cs
878046cc:	eba0 1041 	subcs.w	r0, r0, r1, lsl #5
878046d0:	ebb0 1f01 	cmp.w	r0, r1, lsl #4
878046d4:	bf00      	nop
878046d6:	eb42 0202 	adc.w	r2, r2, r2
878046da:	bf28      	it	cs
878046dc:	eba0 1001 	subcs.w	r0, r0, r1, lsl #4
878046e0:	ebb0 0fc1 	cmp.w	r0, r1, lsl #3
878046e4:	bf00      	nop
878046e6:	eb42 0202 	adc.w	r2, r2, r2
878046ea:	bf28      	it	cs
878046ec:	eba0 00c1 	subcs.w	r0, r0, r1, lsl #3
878046f0:	ebb0 0f81 	cmp.w	r0, r1, lsl #2
878046f4:	bf00      	nop
878046f6:	eb42 0202 	adc.w	r2, r2, r2
878046fa:	bf28      	it	cs
878046fc:	eba0 0081 	subcs.w	r0, r0, r1, lsl #2
87804700:	ebb0 0f41 	cmp.w	r0, r1, lsl #1
87804704:	bf00      	nop
87804706:	eb42 0202 	adc.w	r2, r2, r2
8780470a:	bf28      	it	cs
8780470c:	eba0 0041 	subcs.w	r0, r0, r1, lsl #1
87804710:	ebb0 0f01 	cmp.w	r0, r1
87804714:	bf00      	nop
87804716:	eb42 0202 	adc.w	r2, r2, r2
8780471a:	bf28      	it	cs
8780471c:	eba0 0001 	subcs.w	r0, r0, r1
87804720:	4610      	mov	r0, r2
87804722:	4770      	bx	lr
87804724:	bf0c      	ite	eq
87804726:	2001      	moveq	r0, #1
87804728:	2000      	movne	r0, #0
8780472a:	4770      	bx	lr
8780472c:	fab1 f281 	clz	r2, r1
87804730:	f1c2 021f 	rsb	r2, r2, #31
87804734:	fa20 f002 	lsr.w	r0, r0, r2
87804738:	4770      	bx	lr
8780473a:	b108      	cbz	r0, 87804740 <__udivsi3+0x258>
8780473c:	f04f 30ff 	mov.w	r0, #4294967295	@ 0xffffffff
87804740:	f000 b826 	b.w	87804790 <__aeabi_idiv0>

87804744 <__aeabi_uidivmod>:
87804744:	2900      	cmp	r1, #0
87804746:	d0f8      	beq.n	8780473a <__udivsi3+0x252>
87804748:	e92d 4003 	stmdb	sp!, {r0, r1, lr}
8780474c:	f7ff fecc 	bl	878044e8 <__udivsi3>
87804750:	e8bd 4006 	ldmia.w	sp!, {r1, r2, lr}
87804754:	fb02 f300 	mul.w	r3, r2, r0
87804758:	eba1 0103 	sub.w	r1, r1, r3
8780475c:	4770      	bx	lr
8780475e:	bf00      	nop

87804760 <__aeabi_uldivmod>:
87804760:	b953      	cbnz	r3, 87804778 <__aeabi_uldivmod+0x18>
87804762:	b94a      	cbnz	r2, 87804778 <__aeabi_uldivmod+0x18>
87804764:	2900      	cmp	r1, #0
87804766:	bf08      	it	eq
87804768:	2800      	cmpeq	r0, #0
8780476a:	bf1c      	itt	ne
8780476c:	f04f 31ff 	movne.w	r1, #4294967295	@ 0xffffffff
87804770:	f04f 30ff 	movne.w	r0, #4294967295	@ 0xffffffff
87804774:	f000 b80c 	b.w	87804790 <__aeabi_idiv0>
87804778:	f1ad 0c08 	sub.w	ip, sp, #8
8780477c:	e96d ce04 	strd	ip, lr, [sp, #-16]!
87804780:	f000 f80c 	bl	8780479c <__udivmoddi4>
87804784:	f8dd e004 	ldr.w	lr, [sp, #4]
87804788:	e9dd 2302 	ldrd	r2, r3, [sp, #8]
8780478c:	b004      	add	sp, #16
8780478e:	4770      	bx	lr

87804790 <__aeabi_idiv0>:
87804790:	b502      	push	{r1, lr}
87804792:	f04f 0008 	mov.w	r0, #8
87804796:	f7fc fb05 	bl	87800da4 <raise>
8780479a:	bd02      	pop	{r1, pc}

8780479c <__udivmoddi4>:
8780479c:	e92d 43f0 	stmdb	sp!, {r4, r5, r6, r7, r8, r9, lr}
878047a0:	4290      	cmp	r0, r2
878047a2:	460d      	mov	r5, r1
878047a4:	4604      	mov	r4, r0
878047a6:	eb75 0103 	sbcs.w	r1, r5, r3
878047aa:	bf38      	it	cc
878047ac:	2000      	movcc	r0, #0
878047ae:	9f07      	ldr	r7, [sp, #28]
878047b0:	bf38      	it	cc
878047b2:	4601      	movcc	r1, r0
878047b4:	d362      	bcc.n	8780487c <__udivmoddi4+0xe0>
878047b6:	fab3 f683 	clz	r6, r3
878047ba:	2b00      	cmp	r3, #0
878047bc:	d067      	beq.n	8780488e <__udivmoddi4+0xf2>
878047be:	fab5 f185 	clz	r1, r5
878047c2:	2d00      	cmp	r5, #0
878047c4:	d05f      	beq.n	87804886 <__udivmoddi4+0xea>
878047c6:	1a76      	subs	r6, r6, r1
878047c8:	f1a6 0c20 	sub.w	ip, r6, #32
878047cc:	40b3      	lsls	r3, r6
878047ce:	fa02 f10c 	lsl.w	r1, r2, ip
878047d2:	f1c6 0e20 	rsb	lr, r6, #32
878047d6:	430b      	orrs	r3, r1
878047d8:	fa22 f10e 	lsr.w	r1, r2, lr
878047dc:	40b2      	lsls	r2, r6
878047de:	430b      	orrs	r3, r1
878047e0:	4294      	cmp	r4, r2
878047e2:	eb75 0103 	sbcs.w	r1, r5, r3
878047e6:	bf3c      	itt	cc
878047e8:	2000      	movcc	r0, #0
878047ea:	4601      	movcc	r1, r0
878047ec:	d30b      	bcc.n	87804806 <__udivmoddi4+0x6a>
878047ee:	2001      	movs	r0, #1
878047f0:	1aa4      	subs	r4, r4, r2
878047f2:	fa00 f10c 	lsl.w	r1, r0, ip
878047f6:	fa20 f80e 	lsr.w	r8, r0, lr
878047fa:	fa00 f006 	lsl.w	r0, r0, r6
878047fe:	eb65 0503 	sbc.w	r5, r5, r3
87804802:	ea41 0108 	orr.w	r1, r1, r8
87804806:	b3ce      	cbz	r6, 8780487c <__udivmoddi4+0xe0>
87804808:	0852      	lsrs	r2, r2, #1
8780480a:	46b0      	mov	r8, r6
8780480c:	ea42 72c3 	orr.w	r2, r2, r3, lsl #31
87804810:	085b      	lsrs	r3, r3, #1
87804812:	e00a      	b.n	8780482a <__udivmoddi4+0x8e>
87804814:	1aa4      	subs	r4, r4, r2
87804816:	eb65 0503 	sbc.w	r5, r5, r3
8780481a:	1924      	adds	r4, r4, r4
8780481c:	416d      	adcs	r5, r5
8780481e:	3401      	adds	r4, #1
87804820:	f145 0500 	adc.w	r5, r5, #0
87804824:	f1b8 0801 	subs.w	r8, r8, #1
87804828:	d008      	beq.n	8780483c <__udivmoddi4+0xa0>
8780482a:	4294      	cmp	r4, r2
8780482c:	eb75 0903 	sbcs.w	r9, r5, r3
87804830:	d2f0      	bcs.n	87804814 <__udivmoddi4+0x78>
87804832:	1924      	adds	r4, r4, r4
87804834:	416d      	adcs	r5, r5
87804836:	f1b8 0801 	subs.w	r8, r8, #1
8780483a:	d1f6      	bne.n	8780482a <__udivmoddi4+0x8e>
8780483c:	1900      	adds	r0, r0, r4
8780483e:	fa05 fe0e 	lsl.w	lr, r5, lr
87804842:	fa24 f406 	lsr.w	r4, r4, r6
87804846:	fa25 fc0c 	lsr.w	ip, r5, ip
8780484a:	eb41 0105 	adc.w	r1, r1, r5
8780484e:	ea44 040e 	orr.w	r4, r4, lr
87804852:	40f5      	lsrs	r5, r6
87804854:	ea44 040c 	orr.w	r4, r4, ip
87804858:	f1a6 0c20 	sub.w	ip, r6, #32
8780485c:	fa04 fc0c 	lsl.w	ip, r4, ip
87804860:	fa05 f206 	lsl.w	r2, r5, r6
87804864:	f1c6 0320 	rsb	r3, r6, #32
87804868:	ea42 020c 	orr.w	r2, r2, ip
8780486c:	fa24 f303 	lsr.w	r3, r4, r3
87804870:	431a      	orrs	r2, r3
87804872:	fa04 f306 	lsl.w	r3, r4, r6
87804876:	1ac0      	subs	r0, r0, r3
87804878:	eb61 0102 	sbc.w	r1, r1, r2
8780487c:	b10f      	cbz	r7, 87804882 <__udivmoddi4+0xe6>
8780487e:	e9c7 4500 	strd	r4, r5, [r7]
87804882:	e8bd 83f0 	ldmia.w	sp!, {r4, r5, r6, r7, r8, r9, pc}
87804886:	fab4 f184 	clz	r1, r4
8780488a:	3120      	adds	r1, #32
8780488c:	e79b      	b.n	878047c6 <__udivmoddi4+0x2a>
8780488e:	fab2 f682 	clz	r6, r2
87804892:	fab5 f185 	clz	r1, r5
87804896:	3620      	adds	r6, #32
87804898:	2d00      	cmp	r5, #0
8780489a:	d194      	bne.n	878047c6 <__udivmoddi4+0x2a>
8780489c:	e7f3      	b.n	87804886 <__udivmoddi4+0xea>
8780489e:	bf00      	nop

878048a0 <__main_from_arm>:
878048a0:	e51ff004 	ldr	pc, [pc, #-4]	@ 878048a4 <__main_from_arm+0x4>
878048a4:	878048a9 	strhi	r4, [r0, r9, lsr #17]

.text.startup 區段的反組譯：

878048a8 <main>:
878048a8:	b570      	push	{r4, r5, r6, lr}
878048aa:	b082      	sub	sp, #8
878048ac:	ee11 3f50 	mrc	15, 0, r3, cr1, cr0, {2}
878048b0:	f023 4340 	bic.w	r3, r3, #3221225472	@ 0xc0000000
878048b4:	f423 0370 	bic.w	r3, r3, #15728640	@ 0xf00000
878048b8:	f443 0370 	orr.w	r3, r3, #15728640	@ 0xf00000
878048bc:	ee01 3f50 	mcr	15, 0, r3, cr1, cr0, {2}
878048c0:	eef8 3a10 	vmrs	r3, fpexc
878048c4:	f043 4380 	orr.w	r3, r3, #1073741824	@ 0x40000000
878048c8:	eee8 3a10 	vmsr	fpexc, r3
878048cc:	f7fb ff22 	bl	87800714 <int_init>
878048d0:	f249 74d0 	movw	r4, #38864	@ 0x97d0
878048d4:	2510      	movs	r5, #16
878048d6:	f7fb fd45 	bl	87800364 <imx6uclk_init>
878048da:	f7fc fa65 	bl	87800da8 <delay_init>
878048de:	f7fb fd31 	bl	87800344 <clk_enable>
878048e2:	f7fb fda9 	bl	87800438 <led_init>
878048e6:	f7fb fde7 	bl	878004b8 <beep_init>
878048ea:	f7fc f9bb 	bl	87800c64 <uart_init>
878048ee:	f7fc fe97 	bl	87801620 <lcd_init>
878048f2:	f7fe f839 	bl	87802968 <ft5426_init>
878048f6:	f644 1284 	movw	r2, #18820	@ 0x4984
878048fa:	2318      	movs	r3, #24
878048fc:	f2c8 7280 	movt	r2, #34688	@ 0x8780
87804900:	f44f 007f 	mov.w	r0, #16711680	@ 0xff0000
87804904:	f2c8 7480 	movt	r4, #34688	@ 0x8780
87804908:	e9cd 3200 	strd	r3, r2, [sp]
8780490c:	210a      	movs	r1, #10
8780490e:	f44f 72c8 	mov.w	r2, #400	@ 0x190
87804912:	61a0      	str	r0, [r4, #24]
87804914:	2032      	movs	r0, #50	@ 0x32
87804916:	f7fc fd03 	bl	87801320 <lcd_show_string>
8780491a:	f644 119c 	movw	r1, #18844	@ 0x499c
8780491e:	462b      	mov	r3, r5
87804920:	f2c8 7180 	movt	r1, #34688	@ 0x8780
87804924:	22c8      	movs	r2, #200	@ 0xc8
87804926:	e9cd 5100 	strd	r5, r1, [sp]
8780492a:	2032      	movs	r0, #50	@ 0x32
8780492c:	2128      	movs	r1, #40	@ 0x28
8780492e:	2600      	movs	r6, #0
87804930:	f7fc fcf6 	bl	87801320 <lcd_show_string>
87804934:	f644 11a4 	movw	r1, #18852	@ 0x49a4
87804938:	462b      	mov	r3, r5
8780493a:	f2c8 7180 	movt	r1, #34688	@ 0x8780
8780493e:	22c8      	movs	r2, #200	@ 0xc8
87804940:	e9cd 5100 	strd	r5, r1, [sp]
87804944:	f649 0528 	movw	r5, #38952	@ 0x9828
87804948:	2150      	movs	r1, #80	@ 0x50
8780494a:	2032      	movs	r0, #50	@ 0x32
8780494c:	f2c8 7580 	movt	r5, #34688	@ 0x8780
87804950:	f7fc fce6 	bl	87801320 <lcd_show_string>
87804954:	23ff      	movs	r3, #255	@ 0xff
87804956:	61a3      	str	r3, [r4, #24]
87804958:	2432      	movs	r4, #50	@ 0x32
8780495a:	89a9      	ldrh	r1, [r5, #12]
8780495c:	f44f 027f 	mov.w	r2, #16711680	@ 0xff0000
87804960:	8868      	ldrh	r0, [r5, #2]
87804962:	f7fc ffbb 	bl	878018dc <lcd_drawpoint>
87804966:	200a      	movs	r0, #10
87804968:	f7fc fa52 	bl	87800e10 <delay_ms>
8780496c:	1e60      	subs	r0, r4, #1
8780496e:	f010 04ff 	ands.w	r4, r0, #255	@ 0xff
87804972:	d1f2      	bne.n	8780495a <main+0xb2>
87804974:	f086 0601 	eor.w	r6, r6, #1
87804978:	4620      	mov	r0, r4
8780497a:	4631      	mov	r1, r6
8780497c:	f7fb fd86 	bl	8780048c <led_switch>
87804980:	e7ea      	b.n	87804958 <main+0xb0>
87804982:	bf00      	nop

.rodata 區段的反組譯：

87804984 <CSWTCH.8-0x74>:
87804984:	36584d49 	ldrbcc	r4, [r8], -r9, asr #26
87804988:	6f542055 	svcvs	0x00542055
8780498c:	20686375 	rsbcs	r6, r8, r5, ror r3
87804990:	65726353 	ldrbvs	r6, [r2, #-851]!	@ 0xfffffcad
87804994:	54206e65 	strtpl	r6, [r0], #-3685	@ 0xfffff19b
87804998:	00545345 	subseq	r5, r4, r5, asr #6
8780499c:	54534554 	ldrbpl	r4, [r3], #-1364	@ 0xfffffaac
878049a0:	00000000 	andeq	r0, r0, r0
878049a4:	34323032 	ldrtcc	r3, [r2], #-50	@ 0xffffffce
878049a8:	322f332f 	eorcc	r3, pc, #-1140850688	@ 0xbc000000
878049ac:	00000037 	andeq	r0, r0, r7, lsr r0
878049b0:	2044434c 	subcs	r4, r4, ip, asr #6
878049b4:	3d204449 	cfstrscc	mvf4, [r0, #-292]!	@ 0xfffffedc
878049b8:	58232520 	stmdapl	r3!, {r5, r8, sl, sp}
878049bc:	00000a0d 	andeq	r0, r0, sp, lsl #20
878049c0:	324d4349 	subcc	r4, sp, #603979777	@ 0x24000001
878049c4:	38303630 	ldmdacc	r0!, {r4, r5, r9, sl, ip, sp}
878049c8:	20444920 	subcs	r4, r4, r0, lsr #18
878049cc:	2325203d 			@ <UNDEFINED> instruction: 0x2325203d
878049d0:	000a0d58 	andeq	r0, sl, r8, asr sp
878049d4:	63756f54 	cmnvs	r5, #84, 30	@ 0x150
878049d8:	69462068 	stmdbvs	r6, {r3, r5, r6, sp}^
878049dc:	61776d72 	cmnvs	r7, r2, ror sp
878049e0:	56206572 			@ <UNDEFINED> instruction: 0x56206572
878049e4:	253a7265 	ldrcs	r7, [sl, #-613]!	@ 0xfffffd9b
878049e8:	0a0d5823 	beq	87b5aa7c <__bss_end+0x350a38>
878049ec:	00000000 	andeq	r0, r0, r0
878049f0:	4c554e3c 	mrrcmi	14, 3, r4, r5, cr12
878049f4:	00003e4c 	andeq	r3, r0, ip, asr #28

878049f8 <CSWTCH.8>:
878049f8:	00000004 	andeq	r0, r0, r4
878049fc:	00000003 	andeq	r0, r0, r3
87804a00:	00000002 	andeq	r0, r0, r2
87804a04:	00000001 	andeq	r0, r0, r1
87804a08:	00000000 	andeq	r0, r0, r0
87804a0c:	00000006 	andeq	r0, r0, r6

87804a10 <asc2_1608>:
	...
87804a24:	cc1f0000 	ldcgt	0, cr0, [pc], {-0}
87804a28:	00000c00 	andeq	r0, r0, r0, lsl #24
87804a2c:	00000000 	andeq	r0, r0, r0
87804a30:	00080000 	andeq	r0, r8, r0
87804a34:	00600030 	rsbeq	r0, r0, r0, lsr r0
87804a38:	00300008 	eorseq	r0, r0, r8
87804a3c:	00000060 	andeq	r0, r0, r0, rrx
87804a40:	fc032002 	stc2	0, cr2, [r3], {2}
87804a44:	2002201e 	andcs	r2, r2, lr, lsl r0
87804a48:	201efc03 	andscs	pc, lr, r3, lsl #24
87804a4c:	00002002 	andeq	r2, r0, r2
87804a50:	180e0000 	stmdane	lr, {}	@ <UNPREDICTABLE>
87804a54:	ff3f0411 			@ <UNDEFINED> instruction: 0xff3f0411
87804a58:	780c8410 	stmdavc	ip, {r4, sl, pc}
87804a5c:	00000000 	andeq	r0, r0, r0
87804a60:	8410000f 	ldrhi	r0, [r0], #-15
87804a64:	c000380f 	andgt	r3, r0, pc, lsl #16
87804a68:	84187807 	ldrhi	r7, [r8], #-2055	@ 0xfffff7f9
87804a6c:	00007800 	andeq	r7, r0, r0, lsl #16
87804a70:	840f7800 	strhi	r7, [pc], #-2048	@ 87804a78 <asc2_1608+0x68>
87804a74:	2411c410 	ldrcs	ip, [r1], #-1040	@ 0xfffffbf0
87804a78:	e400980e 	str	r9, [r0], #-2062	@ 0xfffff7f2
87804a7c:	08008400 	stmdaeq	r0, {sl, pc}
87804a80:	00680008 	rsbeq	r0, r8, r8
87804a84:	00000070 	andeq	r0, r0, r0, ror r0
	...
87804a94:	e0070000 	and	r0, r7, r0
87804a98:	04201818 	strteq	r1, [r0], #-2072	@ 0xfffff7e8
87804a9c:	00000240 	andeq	r0, r0, r0, asr #4
87804aa0:	02400000 	subeq	r0, r0, #0
87804aa4:	18180420 	ldmdane	r8, {r5, sl}
87804aa8:	0000e007 	andeq	lr, r0, r7
87804aac:	00000000 	andeq	r0, r0, r0
87804ab0:	40024002 	andmi	r4, r2, r2
87804ab4:	f00f8001 			@ <UNDEFINED> instruction: 0xf00f8001
87804ab8:	40028001 	andmi	r8, r2, r1
87804abc:	00004002 	andeq	r4, r0, r2
87804ac0:	80008000 	andhi	r8, r0, r0
87804ac4:	f80f8000 			@ <UNDEFINED> instruction: 0xf80f8000
87804ac8:	80008000 	andhi	r8, r0, r0
87804acc:	00008000 	andeq	r8, r0, r0
87804ad0:	0d000100 	stfeqs	f0, [r0, #-0]
87804ad4:	00000e00 	andeq	r0, r0, r0, lsl #28
	...
87804ae0:	80000000 	andhi	r0, r0, r0
87804ae4:	80008000 	andhi	r8, r0, r0
87804ae8:	80008000 	andhi	r8, r0, r0
87804aec:	80008000 	andhi	r8, r0, r0
87804af0:	0c000000 	stceq	0, cr0, [r0], {-0}
87804af4:	00000c00 	andeq	r0, r0, r0, lsl #24
	...
87804b00:	06000000 	streq	r0, [r0], -r0
87804b04:	60001800 	andvs	r1, r0, r0, lsl #16
87804b08:	00068001 	andeq	r8, r6, r1
87804b0c:	00200018 	eoreq	r0, r0, r8, lsl r0
87804b10:	f0070000 			@ <UNDEFINED> instruction: 0xf0070000
87804b14:	04100808 	ldreq	r0, [r0], #-2056	@ 0xfffff7f8
87804b18:	08080410 	stmdaeq	r8, {r4, sl}
87804b1c:	0000f007 	andeq	pc, r0, r7
87804b20:	04080000 	streq	r0, [r8], #-0
87804b24:	fc1f0408 	ldc2	4, cr0, [pc], {8}
87804b28:	04000400 	streq	r0, [r0], #-1024	@ 0xfffffc00
87804b2c:	00000000 	andeq	r0, r0, r0
87804b30:	0c0e0000 	stceq	0, cr0, [lr], {-0}
87804b34:	24101410 	ldrcs	r1, [r0], #-1040	@ 0xfffffbf0
87804b38:	84114410 	ldrhi	r4, [r1], #-1040	@ 0xfffffbf0
87804b3c:	00000c0e 	andeq	r0, r0, lr, lsl #24
87804b40:	180c0000 	stmdane	ip, {}	@ <UNPREDICTABLE>
87804b44:	04110410 	ldreq	r0, [r1], #-1040	@ 0xfffffbf0
87804b48:	88120411 	ldmdahi	r2, {r0, r4, sl}
87804b4c:	0000700c 	andeq	r7, r0, ip
87804b50:	e0000000 	and	r0, r0, r0
87804b54:	24042003 	strcs	r2, [r4], #-3
87804b58:	fc1f2408 	ldc2	4, cr2, [pc], {8}
87804b5c:	00002400 	andeq	r2, r0, r0, lsl #8
87804b60:	981f0000 	ldmdals	pc, {}	@ <UNPREDICTABLE>
87804b64:	04118410 	ldreq	r8, [r1], #-1040	@ 0xfffffbf0
87804b68:	88100411 	ldmdahi	r0, {r0, r4, sl}
87804b6c:	00007010 	andeq	r7, r0, r0, lsl r0
87804b70:	f0070000 			@ <UNDEFINED> instruction: 0xf0070000
87804b74:	04118808 	ldreq	r8, [r1], #-2056	@ 0xfffff7f8
87804b78:	88180411 	ldmdahi	r8, {r0, r4, sl}
87804b7c:	00007000 	andeq	r7, r0, r0
87804b80:	001c0000 	andseq	r0, ip, r0
87804b84:	fc100010 	ldc2	0, cr0, [r0], {16}
87804b88:	001c0013 	andseq	r0, ip, r3, lsl r0
87804b8c:	00000010 	andeq	r0, r0, r0, lsl r0
87804b90:	380e0000 	stmdacc	lr, {}	@ <UNPREDICTABLE>
87804b94:	84104411 	ldrhi	r4, [r0], #-1041	@ 0xfffffbef
87804b98:	44118410 	ldrmi	r8, [r1], #-1040	@ 0xfffffbf0
87804b9c:	0000380e 	andeq	r3, r0, lr, lsl #16
87804ba0:	00070000 	andeq	r0, r7, r0
87804ba4:	44108c08 	ldrmi	r8, [r0], #-3080	@ 0xfffff3f8
87804ba8:	88084410 	stmdahi	r8, {r4, sl, lr}
87804bac:	0000f007 	andeq	pc, r0, r7
87804bb0:	00000000 	andeq	r0, r0, r0
87804bb4:	0c030000 	stceq	0, cr0, [r3], {-0}
87804bb8:	00000c03 	andeq	r0, r0, r3, lsl #24
	...
87804bc4:	06010100 	streq	r0, [r1], -r0, lsl #2
	...
87804bd0:	80000000 	andhi	r0, r0, r0
87804bd4:	20024001 	andcs	r4, r2, r1
87804bd8:	08081004 	stmdaeq	r8, {r2, ip}
87804bdc:	00000410 	andeq	r0, r0, r0, lsl r4
87804be0:	20022002 	andcs	r2, r2, r2
87804be4:	20022002 	andcs	r2, r2, r2
87804be8:	20022002 	andcs	r2, r2, r2
87804bec:	00002002 	andeq	r2, r0, r2
87804bf0:	04100000 	ldreq	r0, [r0], #-0
87804bf4:	10040808 	andne	r0, r4, r8, lsl #16
87804bf8:	40012002 	andmi	r2, r1, r2
87804bfc:	00008000 	andeq	r8, r0, r0
87804c00:	000e0000 	andeq	r0, lr, r0
87804c04:	0c100012 	ldceq	0, cr0, [r0], {18}
87804c08:	80106c10 	andshi	r6, r0, r0, lsl ip
87804c0c:	0000000f 	andeq	r0, r0, pc
87804c10:	180ce003 	stmdane	ip, {r0, r1, sp, lr, pc}
87804c14:	2414e413 	ldrcs	lr, [r4], #-1043	@ 0xfffffbed
87804c18:	2808c417 	stmdacs	r8, {r0, r1, r2, r4, sl, lr, pc}
87804c1c:	0000d007 	andeq	sp, r0, r7
87804c20:	3c000400 	cfstrscc	mvf0, [r0], {-0}
87804c24:	401cc403 	andsmi	ip, ip, r3, lsl #8
87804c28:	e4004007 	str	r4, [r0], #-7
87804c2c:	04001c00 	streq	r1, [r0], #-3072	@ 0xfffff400
87804c30:	fc1f0410 	ldc2	4, cr0, [pc], {16}
87804c34:	04110411 	ldreq	r0, [r1], #-1041	@ 0xfffffbef
87804c38:	880e0411 	stmdahi	lr, {r0, r4, sl}
87804c3c:	00007000 	andeq	r7, r0, r0
87804c40:	180ce003 	stmdane	ip, {r0, r1, sp, lr, pc}
87804c44:	04100410 	ldreq	r0, [r0], #-1040	@ 0xfffffbf0
87804c48:	08100410 	ldmdaeq	r0, {r4, sl}
87804c4c:	0000101c 	andeq	r1, r0, ip, lsl r0
87804c50:	fc1f0410 	ldc2	4, cr0, [pc], {16}
87804c54:	04100410 	ldreq	r0, [r0], #-1040	@ 0xfffffbf0
87804c58:	08080410 	stmdaeq	r8, {r4, sl}
87804c5c:	0000f007 	andeq	pc, r0, r7
87804c60:	fc1f0410 	ldc2	4, cr0, [pc], {16}
87804c64:	04110411 	ldreq	r0, [r1], #-1041	@ 0xfffffbef
87804c68:	0410c417 	ldreq	ip, [r0], #-1047	@ 0xfffffbe9
87804c6c:	00001808 	andeq	r1, r0, r8, lsl #16
87804c70:	fc1f0410 	ldc2	4, cr0, [pc], {16}
87804c74:	00110411 	andseq	r0, r1, r1, lsl r4
87804c78:	0010c017 	andseq	ip, r0, r7, lsl r0
87804c7c:	00000008 	andeq	r0, r0, r8
87804c80:	180ce003 	stmdane	ip, {r0, r1, sp, lr, pc}
87804c84:	04100410 	ldreq	r0, [r0], #-1040	@ 0xfffffbf0
87804c88:	781c4410 	ldmdavc	ip, {r4, sl, lr}
87804c8c:	00004000 	andeq	r4, r0, r0
87804c90:	fc1f0410 	ldc2	4, cr0, [pc], {16}
87804c94:	80008410 	andhi	r8, r0, r0, lsl r4
87804c98:	84108000 	ldrhi	r8, [r0], #-0
87804c9c:	0410fc1f 	ldreq	pc, [r0], #-3103	@ 0xfffff3e1
87804ca0:	04100000 	ldreq	r0, [r0], #-0
87804ca4:	fc1f0410 	ldc2	4, cr0, [pc], {16}
87804ca8:	04100410 	ldreq	r0, [r0], #-1040	@ 0xfffffbf0
87804cac:	00000000 	andeq	r0, r0, r0
87804cb0:	01000300 	mrseq	r0, LR_irq
87804cb4:	01100110 	tsteq	r0, r0, lsl r1
87804cb8:	0010fe1f 	andseq	pc, r0, pc, lsl lr	@ <UNPREDICTABLE>
87804cbc:	00000010 	andeq	r0, r0, r0, lsl r0
87804cc0:	fc1f0410 	ldc2	4, cr0, [pc], {16}
87804cc4:	80030411 	andhi	r0, r3, r1, lsl r4
87804cc8:	1c186414 	cfldrsne	mvf6, [r8], {20}
87804ccc:	00000410 	andeq	r0, r0, r0, lsl r4
87804cd0:	fc1f0410 	ldc2	4, cr0, [pc], {16}
87804cd4:	04000410 	streq	r0, [r0], #-1040	@ 0xfffffbf0
87804cd8:	04000400 	streq	r0, [r0], #-1024	@ 0xfffffc00
87804cdc:	00000c00 	andeq	r0, r0, r0, lsl #24
87804ce0:	fc1f0410 	ldc2	4, cr0, [pc], {16}
87804ce4:	fc00001f 	stc2	0, cr0, [r0], {31}
87804ce8:	fc1f001f 	ldc2	0, cr0, [pc], {31}
87804cec:	00000410 	andeq	r0, r0, r0, lsl r4
87804cf0:	fc1f0410 	ldc2	4, cr0, [pc], {16}
87804cf4:	0003040c 	andeq	r0, r3, ip, lsl #8
87804cf8:	1810e000 	ldmdane	r0, {sp, lr, pc}
87804cfc:	0010fc1f 	andseq	pc, r0, pc, lsl ip	@ <UNPREDICTABLE>
87804d00:	0808f007 	stmdaeq	r8, {r0, r1, r2, ip, sp, lr, pc}
87804d04:	04100410 	ldreq	r0, [r0], #-1040	@ 0xfffffbf0
87804d08:	08080410 	stmdaeq	r8, {r4, sl}
87804d0c:	0000f007 	andeq	pc, r0, r7
87804d10:	fc1f0410 	ldc2	4, cr0, [pc], {16}
87804d14:	80108410 	andshi	r8, r0, r0, lsl r4
87804d18:	80108010 	andshi	r8, r0, r0, lsl r0
87804d1c:	0000000f 	andeq	r0, r0, pc
87804d20:	1808f007 	stmdane	r8, {r0, r1, r2, ip, sp, lr, pc}
87804d24:	24102410 	ldrcs	r2, [r0], #-1040	@ 0xfffffbf0
87804d28:	0a081c10 	beq	87a0bd70 <__bss_end+0x201d2c>
87804d2c:	0000f207 	andeq	pc, r0, r7, lsl #4
87804d30:	fc1f0410 	ldc2	4, cr0, [pc], {16}
87804d34:	00110411 	andseq	r0, r1, r1, lsl r4
87804d38:	3011c011 	andscc	ip, r1, r1, lsl r0
87804d3c:	04000c0e 	streq	r0, [r0], #-3086	@ 0xfffff3f2
87804d40:	1c0e0000 	stcne	0, cr0, [lr], {-0}
87804d44:	84100411 	ldrhi	r0, [r0], #-1041	@ 0xfffffbef
87804d48:	44108410 	ldrmi	r8, [r0], #-1040	@ 0xfffffbf0
87804d4c:	0000381c 	andeq	r3, r0, ip, lsl r8
87804d50:	00100018 	andseq	r0, r0, r8, lsl r0
87804d54:	fc1f0410 	ldc2	4, cr0, [pc], {16}
87804d58:	00100410 	andseq	r0, r0, r0, lsl r4
87804d5c:	00000018 	andeq	r0, r0, r8, lsl r0
87804d60:	f81f0010 			@ <UNDEFINED> instruction: 0xf81f0010
87804d64:	04000410 	streq	r0, [r0], #-1040	@ 0xfffffbf0
87804d68:	04100400 	ldreq	r0, [r0], #-1024	@ 0xfffffc00
87804d6c:	0010f81f 	andseq	pc, r0, pc, lsl r8	@ <UNPREDICTABLE>
87804d70:	001e0010 	andseq	r0, lr, r0, lsl r0
87804d74:	1c00e011 	stcne	0, cr14, [r0], {17}
87804d78:	80137000 	andshi	r7, r3, r0
87804d7c:	0010001c 	andseq	r0, r0, ip, lsl r0
87804d80:	3c10c01f 	ldccc	0, cr12, [r0], {31}
87804d84:	001fe000 	andseq	lr, pc, r0
87804d88:	3c10e000 	ldccc	0, cr14, [r0], {-0}
87804d8c:	0000c01f 	andeq	ip, r0, pc, lsl r0
87804d90:	0c180410 	cfldrseq	mvf0, [r8], {16}
87804d94:	c0013416 	andgt	r3, r1, r6, lsl r4
87804d98:	3416c001 	ldrcc	ip, [r6], #-1
87804d9c:	04100c18 	ldreq	r0, [r0], #-3096	@ 0xfffff3e8
87804da0:	001c0010 	andseq	r0, ip, r0, lsl r0
87804da4:	fc000413 	stc2	4, cr0, [r0], {19}
87804da8:	001c0413 	andseq	r0, ip, r3, lsl r4
87804dac:	00000010 	andeq	r0, r0, r0, lsl r0
87804db0:	1c100408 	cfldrsne	mvf0, [r0], {8}
87804db4:	84106410 	ldrhi	r6, [r0], #-1040	@ 0xfffffbf0
87804db8:	041c0413 	ldreq	r0, [ip], #-1043	@ 0xfffffbed
87804dbc:	00001810 	andeq	r1, r0, r0, lsl r8
87804dc0:	00000000 	andeq	r0, r0, r0
87804dc4:	fe7f0000 	cdp2	0, 7, cr0, cr15, cr0, {0}
87804dc8:	02400240 	subeq	r0, r0, #64, 4
87804dcc:	00000240 	andeq	r0, r0, r0, asr #4
87804dd0:	00300000 	eorseq	r0, r0, r0
87804dd4:	8003000c 	andhi	r0, r3, ip
87804dd8:	1c006000 	stcne	0, cr6, [r0], {-0}
87804ddc:	00000300 	andeq	r0, r0, r0, lsl #6
87804de0:	02400000 	subeq	r0, r0, #0
87804de4:	02400240 	subeq	r0, r0, #64, 4
87804de8:	0000fe7f 	andeq	pc, r0, pc, ror lr	@ <UNPREDICTABLE>
	...
87804df4:	00400020 	subeq	r0, r0, r0, lsr #32
87804df8:	00400040 	subeq	r0, r0, r0, asr #32
87804dfc:	00000020 	andeq	r0, r0, r0, lsr #32
87804e00:	01000100 	mrseq	r0, (UNDEF: 16)
87804e04:	01000100 	mrseq	r0, (UNDEF: 16)
87804e08:	01000100 	mrseq	r0, (UNDEF: 16)
87804e0c:	01000100 	mrseq	r0, (UNDEF: 16)
87804e10:	00400000 	subeq	r0, r0, r0
87804e14:	00200040 	eoreq	r0, r0, r0, asr #32
	...
87804e20:	98000000 	stmdals	r0, {}	@ <UNPREDICTABLE>
87804e24:	44012401 	strmi	r2, [r1], #-1025	@ 0xfffffbff
87804e28:	44014401 	strmi	r4, [r1], #-1025	@ 0xfffffbff
87804e2c:	0400fc00 	streq	pc, [r0], #-3072	@ 0xfffff400
87804e30:	fc1f0010 	ldc2	0, cr0, [pc], {16}
87804e34:	04018800 	streq	r8, [r1], #-2048	@ 0xfffff800
87804e38:	88000401 	stmdahi	r0, {r0, sl}
87804e3c:	00007000 	andeq	r7, r0, r0
87804e40:	70000000 	andvc	r0, r0, r0
87804e44:	04018800 	streq	r8, [r1], #-2048	@ 0xfffff800
87804e48:	04010401 	streq	r0, [r1], #-1025	@ 0xfffffbff
87804e4c:	00008800 	andeq	r8, r0, r0, lsl #16
87804e50:	70000000 	andvc	r0, r0, r0
87804e54:	04018800 	streq	r8, [r1], #-2048	@ 0xfffff800
87804e58:	08110401 	ldmdaeq	r1, {r0, sl}
87804e5c:	0400fc1f 	streq	pc, [r0], #-3103	@ 0xfffff3e1
87804e60:	f8000000 			@ <UNDEFINED> instruction: 0xf8000000
87804e64:	44014401 	strmi	r4, [r1], #-1025	@ 0xfffffbff
87804e68:	44014401 	strmi	r4, [r1], #-1025	@ 0xfffffbff
87804e6c:	0000c800 	andeq	ip, r0, r0, lsl #16
87804e70:	04010000 	streq	r0, [r1], #-0
87804e74:	fc0f0401 	stc2	4, cr0, [pc], {1}
87804e78:	04110411 	ldreq	r0, [r1], #-1041	@ 0xfffffbef
87804e7c:	00180011 	andseq	r0, r8, r1, lsl r0
87804e80:	d6000000 	strle	r0, [r0], -r0
87804e84:	29012901 	stmdbcs	r1, {r0, r8, fp, sp}
87804e88:	c9012901 	stmdbgt	r1, {r0, r8, fp, sp}
87804e8c:	00000601 	andeq	r0, r0, r1, lsl #12
87804e90:	fc1f0410 	ldc2	4, cr0, [pc], {16}
87804e94:	00018400 	andeq	r8, r1, r0, lsl #8
87804e98:	04010001 	streq	r0, [r1], #-1
87804e9c:	0400fc00 	streq	pc, [r0], #-3072	@ 0xfffff400
87804ea0:	04010000 	streq	r0, [r1], #-0
87804ea4:	fc190419 	ldc2	4, cr0, [r9], {25}
87804ea8:	04000400 	streq	r0, [r0], #-1024	@ 0xfffffc00
87804eac:	00000000 	andeq	r0, r0, r0
87804eb0:	03000000 	movweq	r0, #0
87804eb4:	01010100 	mrseq	r0, (UNDEF: 17)
87804eb8:	fe190119 	mrc2	1, 0, r0, cr9, cr9, {0}
87804ebc:	00000000 	andeq	r0, r0, r0
87804ec0:	fc1f0410 	ldc2	4, cr0, [pc], {16}
87804ec4:	40002400 	andmi	r2, r0, r0, lsl #8
87804ec8:	0c01b401 	cfstrseq	mvf11, [r1], {1}
87804ecc:	00000401 	andeq	r0, r0, r1, lsl #8
87804ed0:	04100000 	ldreq	r0, [r0], #-0
87804ed4:	fc1f0410 	ldc2	4, cr0, [pc], {16}
87804ed8:	04000400 	streq	r0, [r0], #-1024	@ 0xfffffc00
87804edc:	00000000 	andeq	r0, r0, r0
87804ee0:	fc010401 	stc2	4, cr0, [r1], {1}
87804ee4:	00010401 	andeq	r0, r1, r1, lsl #8
87804ee8:	0401fc01 	streq	pc, [r1], #-3073	@ 0xfffff3ff
87804eec:	fc000001 	stc2	0, cr0, [r0], {1}
87804ef0:	fc010401 	stc2	4, cr0, [r1], {1}
87804ef4:	00018400 	andeq	r8, r1, r0, lsl #8
87804ef8:	04010001 	streq	r0, [r1], #-1
87804efc:	0400fc00 	streq	pc, [r0], #-3072	@ 0xfffff400
87804f00:	f8000000 			@ <UNDEFINED> instruction: 0xf8000000
87804f04:	04010401 	streq	r0, [r1], #-1025	@ 0xfffffbff
87804f08:	04010401 	streq	r0, [r1], #-1025	@ 0xfffffbff
87804f0c:	0000f800 	andeq	pc, r0, r0, lsl #16
87804f10:	ff010101 			@ <UNDEFINED> instruction: 0xff010101
87804f14:	04018500 	streq	r8, [r1], #-1280	@ 0xfffffb00
87804f18:	88000401 	stmdahi	r0, {r0, sl}
87804f1c:	00007000 	andeq	r7, r0, r0
87804f20:	70000000 	andvc	r0, r0, r0
87804f24:	04018800 	streq	r8, [r1], #-2048	@ 0xfffff800
87804f28:	05010401 	streq	r0, [r1, #-1025]	@ 0xfffffbff
87804f2c:	0100ff01 	tsteq	r0, r1, lsl #30	@ <UNPREDICTABLE>
87804f30:	04010401 	streq	r0, [r1], #-1025	@ 0xfffffbff
87804f34:	8400fc01 	strhi	pc, [r0], #-3073	@ 0xfffff3ff
87804f38:	00010401 	andeq	r0, r1, r1, lsl #8
87804f3c:	00008001 	andeq	r8, r0, r1
87804f40:	cc000000 	stcgt	0, cr0, [r0], {-0}
87804f44:	24012401 	strcs	r2, [r1], #-1025	@ 0xfffffbff
87804f48:	24012401 	strcs	r2, [r1], #-1025	@ 0xfffffbff
87804f4c:	00009801 	andeq	r9, r0, r1, lsl #16
87804f50:	00010000 	andeq	r0, r1, r0
87804f54:	f8070001 			@ <UNDEFINED> instruction: 0xf8070001
87804f58:	04010401 	streq	r0, [r1], #-1025	@ 0xfffffbff
87804f5c:	00000000 	andeq	r0, r0, r0
87804f60:	f8010001 			@ <UNDEFINED> instruction: 0xf8010001
87804f64:	04000400 	streq	r0, [r0], #-1024	@ 0xfffffc00
87804f68:	08010400 	stmdaeq	r1, {sl}
87804f6c:	0400fc01 	streq	pc, [r0], #-3073	@ 0xfffff3ff
87804f70:	80010001 	andhi	r0, r1, r1
87804f74:	0c007001 	stceq	0, cr7, [r0], {1}
87804f78:	60011000 	andvs	r1, r1, r0
87804f7c:	00018001 	andeq	r8, r1, r1
87804f80:	0c01f001 	stceq	0, cr15, [r1], {1}
87804f84:	c0013000 	andgt	r3, r1, r0
87804f88:	0c013000 	stceq	0, cr3, [r1], {-0}
87804f8c:	0001f001 	andeq	pc, r1, r1
87804f90:	04010000 	streq	r0, [r1], #-0
87804f94:	74008c01 	strvc	r8, [r0], #-3073	@ 0xfffff3ff
87804f98:	8c017001 	stchi	0, cr7, [r1], {1}
87804f9c:	00000401 	andeq	r0, r0, r1, lsl #8
87804fa0:	81010101 	tsthi	r1, r1, lsl #2
87804fa4:	0e007101 	adfeqs	f7, f0, f1
87804fa8:	60011800 	andvs	r1, r1, r0, lsl #16
87804fac:	00018001 	andeq	r8, r1, r1
87804fb0:	84010000 	strhi	r0, [r1], #-0
87804fb4:	34010c01 	strcc	r0, [r1], #-3073	@ 0xfffff3ff
87804fb8:	84014401 	strhi	r4, [r1], #-1025	@ 0xfffffbff
87804fbc:	00000c01 	andeq	r0, r0, r1, lsl #24
	...
87804fc8:	fc3e0001 	ldc2	0, cr0, [lr], #-4
87804fcc:	02400240 	subeq	r0, r0, #64, 4
	...
87804fd8:	0000ffff 	strdeq	pc, [r0], -pc	@ <UNPREDICTABLE>
87804fdc:	00000000 	andeq	r0, r0, r0
87804fe0:	02400000 	subeq	r0, r0, #0
87804fe4:	fc3e0240 	ldc2	2, cr0, [lr], #-256	@ 0xffffff00
87804fe8:	00000001 	andeq	r0, r0, r1
87804fec:	00000000 	andeq	r0, r0, r0
87804ff0:	00600000 	rsbeq	r0, r0, r0
87804ff4:	00800080 	addeq	r0, r0, r0, lsl #1
87804ff8:	00400040 	subeq	r0, r0, r0, asr #32
87804ffc:	00200020 	eoreq	r0, r0, r0, lsr #32

87805000 <asc2_1206>:
	...
87805010:	0000403f 	andeq	r4, r0, pc, lsr r0
87805014:	00000000 	andeq	r0, r0, r0
87805018:	00300000 	eorseq	r0, r0, r0
8780501c:	00300040 	eorseq	r0, r0, r0, asr #32
87805020:	00000040 	andeq	r0, r0, r0, asr #32
87805024:	c00b0009 	andgt	r0, fp, r9
87805028:	c00b003d 	andgt	r0, fp, sp, lsr r0
8780502c:	0009003d 	andeq	r0, r9, sp, lsr r0
87805030:	4024c018 	eormi	ip, r4, r8, lsl r0
87805034:	4022e07f 	eormi	lr, r2, pc, ror r0
87805038:	00008031 	andeq	r8, r0, r1, lsr r0
8780503c:	c0240018 	eorgt	r0, r4, r8, lsl r0
87805040:	800d001b 	andhi	r0, sp, fp, lsl r0
87805044:	80014032 	andhi	r4, r1, r2, lsr r0
87805048:	401c8003 	andsmi	r8, ip, r3
8780504c:	801c4027 	andshi	r4, ip, r7, lsr #32
87805050:	40004007 	andmi	r4, r0, r7
87805054:	00600010 	rsbeq	r0, r0, r0, lsl r0
	...
87805064:	801f0000 	andshi	r0, pc, r0
87805068:	20404020 	subcs	r4, r0, r0, lsr #32
8780506c:	20400000 	subcs	r0, r0, r0
87805070:	801f4020 	andshi	r4, pc, r0, lsr #32
87805074:	00000000 	andeq	r0, r0, r0
87805078:	00060009 	andeq	r0, r6, r9
8780507c:	0006801f 	andeq	r8, r6, pc, lsl r0
87805080:	00000009 	andeq	r0, r0, r9
87805084:	00040004 	andeq	r0, r4, r4
87805088:	0004803f 	andeq	r8, r4, pc, lsr r0
8780508c:	00000004 	andeq	r0, r0, r4
87805090:	60001000 	andvs	r1, r0, r0
	...
8780509c:	00040004 	andeq	r0, r4, r4
878050a0:	00040004 	andeq	r0, r4, r4
878050a4:	00000004 	andeq	r0, r0, r4
878050a8:	40000000 	andmi	r0, r0, r0
	...
878050b4:	c0012000 	andgt	r2, r1, r0
878050b8:	00380006 	eorseq	r0, r8, r6
878050bc:	00000040 	andeq	r0, r0, r0, asr #32
878050c0:	4020801f 	eormi	r8, r0, pc, lsl r0
878050c4:	40204020 	eormi	r4, r0, r0, lsr #32
878050c8:	0000801f 	andeq	r8, r0, pc, lsl r0
878050cc:	40100000 	andsmi	r0, r0, r0
878050d0:	4000c03f 	andmi	ip, r0, pc, lsr r0
878050d4:	00000000 	andeq	r0, r0, r0
878050d8:	4021c018 	eormi	ip, r1, r8, lsl r0
878050dc:	40244022 	eormi	r4, r4, r2, lsr #32
878050e0:	00004018 	andeq	r4, r0, r8, lsl r0
878050e4:	40208010 	eormi	r8, r0, r0, lsl r0
878050e8:	40244024 	eormi	r4, r4, r4, lsr #32
878050ec:	0000801b 	andeq	r8, r0, fp, lsl r0
878050f0:	000d0002 	andeq	r0, sp, r2
878050f4:	c03f0011 	eorsgt	r0, pc, r1, lsl r0	@ <UNPREDICTABLE>
878050f8:	00004001 	andeq	r4, r0, r1
878050fc:	4024803c 	eormi	r8, r4, ip, lsr r0
87805100:	40244024 	eormi	r4, r4, r4, lsr #32
87805104:	00008023 	andeq	r8, r0, r3, lsr #32
87805108:	4024801f 	eormi	r8, r4, pc, lsl r0
8780510c:	40344024 	eorsmi	r4, r4, r4, lsr #32
87805110:	00008003 	andeq	r8, r0, r3
87805114:	00200030 	eoreq	r0, r0, r0, lsr r0
87805118:	0038c027 	eorseq	ip, r8, r7, lsr #32
8780511c:	00000020 	andeq	r0, r0, r0, lsr #32
87805120:	4024801b 	eormi	r8, r4, fp, lsl r0
87805124:	40244024 	eormi	r4, r4, r4, lsr #32
87805128:	0000801b 	andeq	r8, r0, fp, lsl r0
8780512c:	c022001c 	eorgt	r0, r2, ip, lsl r0
87805130:	40224022 	eormi	r4, r2, r2, lsr #32
87805134:	0000801f 	andeq	r8, r0, pc, lsl r0
87805138:	00000000 	andeq	r0, r0, r0
8780513c:	00004008 	andeq	r4, r0, r8
	...
87805148:	00006004 	andeq	r6, r0, r4
8780514c:	00000000 	andeq	r0, r0, r0
87805150:	00040000 	andeq	r0, r4, r0
87805154:	0011000a 	andseq	r0, r1, sl
87805158:	40408020 	submi	r8, r0, r0, lsr #32
8780515c:	00090009 	andeq	r0, r9, r9
87805160:	00090009 	andeq	r0, r9, r9
87805164:	00000009 	andeq	r0, r0, r9
87805168:	40400000 	submi	r0, r0, r0
8780516c:	00118020 	andseq	r8, r1, r0, lsr #32
87805170:	0004000a 	andeq	r0, r4, sl
87805174:	00200018 	eoreq	r0, r0, r8, lsl r0
87805178:	00244023 	eoreq	r4, r4, r3, lsr #32
8780517c:	00000018 	andeq	r0, r0, r8, lsl r0
87805180:	4020801f 	eormi	r8, r0, pc, lsl r0
87805184:	40294027 	eormi	r4, r9, r7, lsr #32
87805188:	0000401f 	andeq	r4, r0, pc, lsl r0
8780518c:	c0074000 	andgt	r4, r7, r0
87805190:	000f0039 	andeq	r0, pc, r9, lsr r0	@ <UNPREDICTABLE>
87805194:	4000c001 	andmi	ip, r0, r1
87805198:	c03f4020 	eorsgt	r4, pc, r0, lsr #32
8780519c:	40244024 	eormi	r4, r4, r4, lsr #32
878051a0:	0000801b 	andeq	r8, r0, fp, lsl r0
878051a4:	4020801f 	eormi	r8, r0, pc, lsl r0
878051a8:	40204020 	eormi	r4, r0, r0, lsr #32
878051ac:	00008030 	andeq	r8, r0, r0, lsr r0
878051b0:	c03f4020 	eorsgt	r4, pc, r0, lsr #32
878051b4:	40204020 	eormi	r4, r0, r0, lsr #32
878051b8:	0000801f 	andeq	r8, r0, pc, lsl r0
878051bc:	c03f4020 	eorsgt	r4, pc, r0, lsr #32
878051c0:	402e4024 	eormi	r4, lr, r4, lsr #32
878051c4:	0000c030 	andeq	ip, r0, r0, lsr r0
878051c8:	c03f4020 	eorsgt	r4, pc, r0, lsr #32
878051cc:	002e4024 	eoreq	r4, lr, r4, lsr #32
878051d0:	00000030 	andeq	r0, r0, r0, lsr r0
878051d4:	8010000f 	andshi	r0, r0, pc
878051d8:	40224020 	eormi	r4, r2, r0, lsr #32
878051dc:	00028033 	andeq	r8, r2, r3, lsr r0
878051e0:	c03f4020 	eorsgt	r4, pc, r0, lsr #32
878051e4:	00040004 	andeq	r0, r4, r4
878051e8:	4020c03f 	eormi	ip, r0, pc, lsr r0
878051ec:	40204020 	eormi	r4, r0, r0, lsr #32
878051f0:	4020c03f 	eormi	ip, r0, pc, lsr r0
878051f4:	00004020 	andeq	r4, r0, r0, lsr #32
878051f8:	20206000 	eorcs	r6, r0, r0
878051fc:	c03f2020 	eorsgt	r2, pc, r0, lsr #32
87805200:	00200020 	eoreq	r0, r0, r0, lsr #32
87805204:	c03f4020 	eorsgt	r4, pc, r0, lsr #32
87805208:	000b4024 	andeq	r4, fp, r4, lsr #32
8780520c:	4020c030 	eormi	ip, r0, r0, lsr r0
87805210:	c03f4020 	eorsgt	r4, pc, r0, lsr #32
87805214:	40004020 	andmi	r4, r0, r0, lsr #32
87805218:	c0004000 	andgt	r4, r0, r0
8780521c:	003cc03f 	eorseq	ip, ip, pc, lsr r0
87805220:	003cc003 	eorseq	ip, ip, r3
87805224:	0000c03f 	andeq	ip, r0, pc, lsr r0
87805228:	c03f4020 	eorsgt	r4, pc, r0, lsr #32
8780522c:	0023400c 	eoreq	r4, r3, ip
87805230:	0020c03f 	eoreq	ip, r0, pc, lsr r0
87805234:	4020801f 	eormi	r8, r0, pc, lsl r0
87805238:	40204020 	eormi	r4, r0, r0, lsr #32
8780523c:	0000801f 	andeq	r8, r0, pc, lsl r0
87805240:	c03f4020 	eorsgt	r4, pc, r0, lsr #32
87805244:	00244024 	eoreq	r4, r4, r4, lsr #32
87805248:	00000018 	andeq	r0, r0, r8, lsl r0
8780524c:	4021801f 	eormi	r8, r1, pc, lsl r0
87805250:	e0204021 	eor	r4, r0, r1, lsr #32
87805254:	0000a01f 	andeq	sl, r0, pc, lsl r0
87805258:	c03f4020 	eorsgt	r4, pc, r0, lsr #32
8780525c:	00264024 	eoreq	r4, r6, r4, lsr #32
87805260:	4000c019 	andmi	ip, r0, r9, lsl r0
87805264:	4024c018 	eormi	ip, r4, r8, lsl r0
87805268:	40224024 	eormi	r4, r2, r4, lsr #32
8780526c:	00008031 	andeq	r8, r0, r1, lsr r0
87805270:	40200030 	eormi	r0, r0, r0, lsr r0
87805274:	4020c03f 	eormi	ip, r0, pc, lsr r0
87805278:	00000030 	andeq	r0, r0, r0, lsr r0
8780527c:	803f0020 	eorshi	r0, pc, r0, lsr #32
87805280:	40004000 	andmi	r4, r0, r0
87805284:	0020803f 	eoreq	r8, r0, pc, lsr r0
87805288:	003e0020 	eorseq	r0, lr, r0, lsr #32
8780528c:	0007c001 	andeq	ip, r7, r1
87805290:	00200038 	eoreq	r0, r0, r8, lsr r0
87805294:	c0070038 	andgt	r0, r7, r8, lsr r0
87805298:	c007003c 	andgt	r0, r7, ip, lsr r0
8780529c:	00000038 	andeq	r0, r0, r8, lsr r0
878052a0:	c0394020 	eorsgt	r4, r9, r0, lsr #32
878052a4:	c0390006 	eorsgt	r0, r9, r6
878052a8:	00004020 	andeq	r4, r0, r0, lsr #32
878052ac:	40380020 	eorsmi	r0, r8, r0, lsr #32
878052b0:	4038c007 	eorsmi	ip, r8, r7
878052b4:	00000020 	andeq	r0, r0, r0, lsr #32
878052b8:	c0214030 	eorgt	r4, r1, r0, lsr r0
878052bc:	40384026 	eorsmi	r4, r8, r6, lsr #32
878052c0:	0000c020 	andeq	ip, r0, r0, lsr #32
878052c4:	00000000 	andeq	r0, r0, r0
878052c8:	2040e07f 	subcs	lr, r0, pc, ror r0
878052cc:	00002040 	andeq	r2, r0, r0, asr #32
878052d0:	00700000 	rsbseq	r0, r0, r0
878052d4:	8003000c 	andhi	r0, r3, ip
878052d8:	00004000 	andeq	r4, r0, r0
878052dc:	20400000 	subcs	r0, r0, r0
878052e0:	e07f2040 	rsbs	r2, pc, r0, asr #32
878052e4:	00000000 	andeq	r0, r0, r0
878052e8:	00200000 	eoreq	r0, r0, r0
878052ec:	00200040 	eoreq	r0, r0, r0, asr #32
878052f0:	00000000 	andeq	r0, r0, r0
878052f4:	10001000 	andne	r1, r0, r0
878052f8:	10001000 	andne	r1, r0, r0
878052fc:	10001000 	andne	r1, r0, r0
87805300:	00000000 	andeq	r0, r0, r0
87805304:	00000040 	andeq	r0, r0, r0, asr #32
87805308:	00000000 	andeq	r0, r0, r0
8780530c:	80020000 	andhi	r0, r2, r0
87805310:	40054005 	andmi	r4, r5, r5
87805314:	4000c003 	andmi	ip, r0, r3
87805318:	c03f0020 	eorsgt	r0, pc, r0, lsr #32
8780531c:	40044004 	andmi	r4, r4, r4
87805320:	00008003 	andeq	r8, r0, r3
87805324:	80030000 	andhi	r0, r3, r0
87805328:	40044004 	andmi	r4, r4, r4
8780532c:	00004006 	andeq	r4, r0, r6
87805330:	80030000 	andhi	r0, r3, r0
87805334:	40244004 	eormi	r4, r4, r4
87805338:	4000c03f 	andmi	ip, r0, pc, lsr r0
8780533c:	80030000 	andhi	r0, r3, r0
87805340:	40054005 	andmi	r4, r5, r5
87805344:	00004003 	andeq	r4, r0, r3
87805348:	40040000 	andmi	r0, r4, r0
8780534c:	4024c01f 	eormi	ip, r4, pc, lsl r0
87805350:	00204024 	eoreq	r4, r0, r4, lsr #32
87805354:	e0020000 	and	r0, r2, r0
87805358:	50055005 	andpl	r5, r5, r5
8780535c:	20045006 	andcs	r5, r4, r6
87805360:	c03f4020 	eorsgt	r4, pc, r0, lsr #32
87805364:	00044004 	andeq	r4, r4, r4
87805368:	4000c003 	andmi	ip, r0, r3
8780536c:	40040000 	andmi	r0, r4, r0
87805370:	4000c027 	andmi	ip, r0, r7, lsr #32
87805374:	00000000 	andeq	r0, r0, r0
87805378:	10001000 	andne	r1, r0, r0
8780537c:	e0271004 	eor	r1, r7, r4
87805380:	00000000 	andeq	r0, r0, r0
87805384:	c03f4020 	eorsgt	r4, pc, r0, lsr #32
87805388:	00074001 	andeq	r4, r7, r1
8780538c:	4004c004 	andmi	ip, r4, r4
87805390:	40204020 	eormi	r4, r0, r0, lsr #32
87805394:	4000c03f 	andmi	ip, r0, pc, lsr r0
87805398:	00004000 	andeq	r4, r0, r0
8780539c:	0004c007 	andeq	ip, r4, r7
878053a0:	0004c007 	andeq	ip, r4, r7
878053a4:	0000c003 	andeq	ip, r0, r3
878053a8:	c0074004 	andgt	r4, r7, r4
878053ac:	00044004 	andeq	r4, r4, r4
878053b0:	4000c003 	andmi	ip, r0, r3
878053b4:	80030000 	andhi	r0, r3, r0
878053b8:	40044004 	andmi	r4, r4, r4
878053bc:	00008003 	andeq	r8, r0, r3
878053c0:	f0071004 			@ <UNDEFINED> instruction: 0xf0071004
878053c4:	40045004 	andmi	r5, r4, r4
878053c8:	00008003 	andeq	r8, r0, r3
878053cc:	80030000 	andhi	r0, r3, r0
878053d0:	50044004 	andpl	r4, r4, r4
878053d4:	1000f007 	andne	pc, r0, r7
878053d8:	c0074004 	andgt	r4, r7, r4
878053dc:	00044002 	andeq	r4, r4, r2
878053e0:	00000004 	andeq	r0, r0, r4
878053e4:	40060000 	andmi	r0, r6, r0
878053e8:	40054005 	andmi	r4, r5, r5
878053ec:	0000c004 	andeq	ip, r0, r4
878053f0:	00040000 	andeq	r0, r4, r0
878053f4:	4004801f 	andmi	r8, r4, pc, lsl r0
878053f8:	00004000 	andeq	r4, r0, r0
878053fc:	80070004 	andhi	r0, r7, r4
87805400:	40044000 	andmi	r4, r4, r0
87805404:	4000c007 	andmi	ip, r0, r7
87805408:	00070004 	andeq	r0, r7, r4
8780540c:	8001c004 	andhi	ip, r1, r4
87805410:	00040006 	andeq	r0, r4, r6
87805414:	c0010006 	andgt	r0, r1, r6
87805418:	c0010007 	andgt	r0, r1, r7
8780541c:	00000006 	andeq	r0, r0, r6
87805420:	c0064004 	andgt	r4, r6, r4
87805424:	c0060001 	andgt	r0, r6, r1
87805428:	00004004 	andeq	r4, r0, r4
8780542c:	10071004 	andne	r1, r7, r4
87805430:	8001e004 	andhi	lr, r1, r4
87805434:	00040006 	andeq	r0, r4, r6
87805438:	40040000 	andmi	r0, r4, r0
8780543c:	4006c005 	andmi	ip, r6, r5
87805440:	00004004 	andeq	r4, r0, r4
87805444:	00000000 	andeq	r0, r0, r0
87805448:	e07b0004 	rsbs	r0, fp, r4
8780544c:	00002040 	andeq	r2, r0, r0, asr #32
87805450:	00000000 	andeq	r0, r0, r0
87805454:	f0ff0000 			@ <UNDEFINED> instruction: 0xf0ff0000
87805458:	00000000 	andeq	r0, r0, r0
8780545c:	20400000 	subcs	r0, r0, r0
87805460:	0004e07b 	andeq	lr, r4, fp, ror r0
87805464:	00000000 	andeq	r0, r0, r0
87805468:	00800040 	addeq	r0, r0, r0, asr #32
8780546c:	00200040 	eoreq	r0, r0, r0, asr #32
87805470:	00400020 	subeq	r0, r0, r0, lsr #32
87805474:	00000000 	andeq	r0, r0, r0

87805478 <asc2_2412>:
	...
878054a8:	0f000000 	svceq	0x00000000
878054ac:	fe0f3880 	vcmla.f16	d3, d31, d0[0], #0
878054b0:	38800f38 	stmcc	r0, {r3, r4, r5, r8, r9, sl, fp}
	...
878054c4:	00010000 	andeq	r0, r1, r0
878054c8:	00000600 	andeq	r0, r0, r0, lsl #12
878054cc:	3800000c 	stmdacc	r0, {r2, r3}
878054d0:	00310000 	eorseq	r0, r1, r0
878054d4:	00000600 	andeq	r0, r0, r0, lsl #12
878054d8:	3800000c 	stmdacc	r0, {r2, r3}
878054dc:	00300000 	eorseq	r0, r0, r0
	...
878054e8:	67008061 	strvs	r8, [r0, -r1, rrx]
878054ec:	80f907f8 	ldrshthi	r0, [r9], #120	@ 0x78
878054f0:	00806100 	addeq	r6, r0, r0, lsl #2
878054f4:	61008061 	tstvs	r0, r1, rrx
878054f8:	80610080 	rsbhi	r0, r1, r0, lsl #1
878054fc:	07f86700 	ldrbeq	r6, [r8, r0, lsl #14]!
87805500:	610080f9 	strdvs	r8, [r0, -r9]
87805504:	00000080 	andeq	r0, r0, r0, lsl #1
87805508:	00000000 	andeq	r0, r0, r0
8780550c:	c0010000 	andgt	r0, r1, r0
87805510:	f0e003e0 			@ <UNDEFINED> instruction: 0xf0e003e0
87805514:	04083006 	streq	r3, [r8], #-6
87805518:	ff1f0818 			@ <UNDEFINED> instruction: 0xff1f0818
8780551c:	080e04fe 	stmdaeq	lr, {r1, r2, r3, r4, r5, r6, r7, sl}
87805520:	03f08707 	mvnseq	r8, #1835008	@ 0x1c0000
87805524:	0000e081 	andeq	lr, r0, r1, lsl #1
87805528:	00000000 	andeq	r0, r0, r0
8780552c:	0600f001 	streq	pc, [r0], -r1
87805530:	0404000c 	streq	r0, [r4], #-12
87805534:	700c0608 	andvc	r0, ip, r8, lsl #12
87805538:	00c0f901 	sbceq	pc, r0, r1, lsl #18
8780553c:	3b00000e 	blcc	8780557c <asc2_2412+0x104>
87805540:	18ec00e0 	stmiane	ip!, {r5, r6, r7}^
87805544:	04080807 	streq	r0, [r8], #-2055	@ 0xfffff7f9
87805548:	0300180c 	movweq	r1, #2060	@ 0x80c
8780554c:	000000e0 	andeq	r0, r0, r0, ror #1
87805550:	00e00100 	rsceq	r0, r0, r0, lsl #2
87805554:	f803f007 			@ <UNDEFINED> instruction: 0xf803f007
87805558:	081c0418 	ldmdaeq	ip, {r3, r4, sl}
8780555c:	07081704 	streq	r1, [r8, -r4, lsl #14]
87805560:	c003d0e1 	andgt	sp, r3, r1, ror #1
87805564:	b02300e0 	eorlt	r0, r3, r0, ror #1
87805568:	00083c00 	andeq	r3, r8, r0, lsl #24
8780556c:	00000820 	andeq	r0, r0, r0, lsr #16
87805570:	00000010 	andeq	r0, r0, r0, lsl r0
87805574:	01000000 	mrseq	r0, (UNDEF: 0)
87805578:	00310000 	eorseq	r0, r1, r0
8780557c:	00003200 	andeq	r3, r0, r0, lsl #4
87805580:	0000001c 	andeq	r0, r0, ip, lsl r0
	...
878055a8:	ff01007f 			@ <UNDEFINED> instruction: 0xff01007f
878055ac:	f08007c0 			@ <UNDEFINED> instruction: 0xf08007c0
878055b0:	1018000c 	andsne	r0, r8, ip
878055b4:	00200400 	eoreq	r0, r0, r0, lsl #8
878055b8:	00000002 	andeq	r0, r0, r2
878055bc:	20000000 	andcs	r0, r0, r0
878055c0:	00100200 	andseq	r0, r0, r0, lsl #4
878055c4:	18000c04 	stmdane	r0, {r2, sl, fp}
878055c8:	01f08007 	mvnseq	r8, r7
878055cc:	7f00c0ff 	svcvc	0x0000c0ff
	...
878055e4:	66000042 	strvs	r0, [r0], -r2, asr #32
878055e8:	00660000 	rsbeq	r0, r6, r0
878055ec:	00003c00 	andeq	r3, r0, r0, lsl #24
878055f0:	ff030018 			@ <UNDEFINED> instruction: 0xff030018
878055f4:	001800c0 	andseq	r0, r8, r0, asr #1
878055f8:	00003c00 	andeq	r3, r0, r0, lsl #24
878055fc:	66000066 	strvs	r0, [r0], -r6, rrx
87805600:	00420000 	subeq	r0, r2, r0
87805604:	00000000 	andeq	r0, r0, r0
87805608:	08000008 	stmdaeq	r0, {r3}
8780560c:	00080000 	andeq	r0, r8, r0
87805610:	00000800 	andeq	r0, r0, r0, lsl #16
87805614:	ff010008 			@ <UNDEFINED> instruction: 0xff010008
87805618:	000800c0 	andeq	r0, r8, r0, asr #1
8780561c:	00000800 	andeq	r0, r0, r0, lsl #16
87805620:	08000008 	stmdaeq	r0, {r3}
87805624:	00080000 	andeq	r0, r8, r0
87805628:	00000000 	andeq	r0, r0, r0
8780562c:	00000100 	andeq	r0, r0, r0, lsl #2
87805630:	32000031 	andcc	r0, r0, #49	@ 0x31
87805634:	001c0000 	andseq	r0, ip, r0
	...
87805650:	08000008 	stmdaeq	r0, {r3}
87805654:	00080000 	andeq	r0, r8, r0
87805658:	00000800 	andeq	r0, r0, r0, lsl #16
8780565c:	08000008 	stmdaeq	r0, {r3}
87805660:	00080000 	andeq	r0, r8, r0
87805664:	00000800 	andeq	r0, r0, r0, lsl #16
87805668:	08000008 	stmdaeq	r0, {r3}
	...
87805678:	38000038 	stmdacc	r0, {r3, r4, r5}
8780567c:	00380000 	eorseq	r0, r8, r0
	...
87805698:	00000600 	andeq	r0, r0, r0, lsl #12
8780569c:	7000001c 	andvc	r0, r0, ip, lsl r0
878056a0:	00800100 	addeq	r0, r0, r0, lsl #2
878056a4:	3800000e 	stmdacc	r0, {r1, r2, r3}
878056a8:	00c00000 	sbceq	r0, r0, r0
878056ac:	1c000007 	stcne	0, cr0, [r0], {7}
878056b0:	00300000 	eorseq	r0, r0, r0
	...
878056bc:	ff01807f 			@ <UNDEFINED> instruction: 0xff01807f
878056c0:	708003e0 	addvc	r0, r0, r0, ror #7
878056c4:	04180006 	ldreq	r0, [r8], #-6
878056c8:	00040800 	andeq	r0, r4, r0, lsl #16
878056cc:	18000608 	stmdane	r0, {r3, r9, sl}
878056d0:	01708003 	cmneq	r0, r3
878056d4:	7f00e0ff 	svcvc	0x0000e0ff
878056d8:	00000080 	andeq	r0, r0, r0, lsl #1
878056dc:	00000000 	andeq	r0, r0, r0
878056e0:	00010000 	andeq	r0, r1, r0
878056e4:	08000108 	stmdaeq	r0, {r3, r8}
878056e8:	03080001 	movweq	r0, #32769	@ 0x8001
878056ec:	ff07f8ff 			@ <UNDEFINED> instruction: 0xff07f8ff
878056f0:	080000f8 	stmdaeq	r0, {r3, r4, r5, r6, r7}
878056f4:	00080000 	andeq	r0, r8, r0
878056f8:	00000800 	andeq	r0, r0, r0, lsl #16
878056fc:	00000000 	andeq	r0, r0, r0
87805700:	01000000 	mrseq	r0, (UNDEF: 0)
87805704:	c00238c0 	andgt	r3, r2, r0, asr #17
87805708:	98000458 	stmdals	r0, {r3, r4, r6, sl}
8780570c:	04180104 	ldreq	r0, [r8], #-260	@ 0xfffffefc
87805710:	04041802 	streq	r1, [r4], #-2050	@ 0xfffff7fe
87805714:	181c0618 	ldmdane	ip, {r3, r4, r9, sl}
87805718:	0118f803 	tsteq	r8, r3, lsl #16	@ <UNPREDICTABLE>
8780571c:	0000f8e0 	andeq	pc, r0, r0, ror #17
87805720:	00000000 	andeq	r0, r0, r0
87805724:	01000000 	mrseq	r0, (UNDEF: 0)
87805728:	c003e0c0 	andgt	lr, r3, r0, asr #1
8780572c:	080004f0 	stmdaeq	r0, {r4, r5, r6, r7, sl}
87805730:	04080804 	streq	r0, [r8], #-2052	@ 0xfffff7fc
87805734:	18060808 	stmdane	r6, {r3, fp}
87805738:	18f40308 	ldmne	r4!, {r3, r8, r9}^
8780573c:	00f0e701 	rscseq	lr, r0, r1, lsl #14
87805740:	0000e001 	andeq	lr, r0, r1
	...
8780574c:	0d000003 	stceq	0, cr0, [r0, #-12]
87805750:	00110000 	andseq	r0, r1, r0
87805754:	00006100 	andeq	r6, r0, r0, lsl #2
87805758:	01030881 	smlabbeq	r3, r1, r8, r0
8780575c:	f8ff0708 			@ <UNDEFINED> instruction: 0xf8ff0708
87805760:	00f8ff0f 	rscseq	pc, r8, pc, lsl #30
87805764:	01000801 	tsteq	r0, r1, lsl #16
87805768:	00000008 	andeq	r0, r0, r8
8780576c:	00000000 	andeq	r0, r0, r0
87805770:	fc07e000 	stc2	0, cr14, [r7], {-0}
87805774:	080806d0 	stmdaeq	r8, {r4, r6, r7, r9, sl}
87805778:	06081006 	streq	r1, [r8], -r6
8780577c:	10060810 	andne	r0, r6, r0, lsl r8
87805780:	38180608 	ldmdacc	r8, {r3, r9, sl}
87805784:	06f00f06 	ldrbteq	r0, [r0], r6, lsl #30
87805788:	0000c007 	andeq	ip, r0, r7
	...
87805794:	ff01803f 			@ <UNDEFINED> instruction: 0xff01803f
87805798:	308403e0 	addcc	r0, r4, r0, ror #7
8780579c:	04180802 	ldreq	r0, [r8], #-2050	@ 0xfffff7fe
878057a0:	10040810 	andne	r0, r4, r0, lsl r8
878057a4:	08100408 	ldmdaeq	r0, {r3, sl}
878057a8:	03101807 	tsteq	r0, #458752	@ 0x70000
878057ac:	0700f00f 	streq	pc, [r0, -pc]
878057b0:	000000c0 	andeq	r0, r0, r0, asr #1
878057b4:	00000000 	andeq	r0, r0, r0
878057b8:	c0030000 	andgt	r0, r3, r0
878057bc:	00000700 	andeq	r0, r0, r0, lsl #14
878057c0:	06000006 	streq	r0, [r0], -r6
878057c4:	0706f800 	streq	pc, [r6, -r0, lsl #16]
878057c8:	001806f8 			@ <UNDEFINED> instruction: 0x001806f8
878057cc:	0700e006 	streq	lr, [r0, -r6]
878057d0:	00060000 	andeq	r0, r6, r0
878057d4:	00000000 	andeq	r0, r0, r0
878057d8:	01000000 	mrseq	r0, (UNDEF: 0)
878057dc:	f703e0e1 			@ <UNDEFINED> instruction: 0xf703e0e1
878057e0:	103406f0 	ldrshtne	r0, [r4], -r0
878057e4:	04081804 	streq	r1, [r8], #-2052	@ 0xfffff7fc
878057e8:	0c040818 	stceq	8, cr0, [r4], {24}
878057ec:	080c0408 	stmdaeq	ip, {r3, sl}
878057f0:	03181606 	tsteq	r8, #6291456	@ 0x600000
878057f4:	c101f0f3 	strdgt	pc, [r1, -r3]
878057f8:	000000e0 	andeq	r0, r0, r0, ror #1
878057fc:	00000000 	andeq	r0, r0, r0
87805800:	fc0300f8 	stc2	0, cr0, [r3], {248}	@ 0xf8
87805804:	38060330 	stmdacc	r6, {r4, r5, r8, r9}
87805808:	04080204 	streq	r0, [r8], #-516	@ 0xfffffdfc
8780580c:	02040802 	andeq	r0, r4, #131072	@ 0x20000
87805810:	10040408 	andne	r0, r4, r8, lsl #8
87805814:	01f00803 	mvnseq	r0, r3, lsl #16
87805818:	7f00c0ff 	svcvc	0x0000c0ff
	...
87805830:	70003870 	andvc	r3, r0, r0, ror r8
87805834:	38700038 	ldmdacc	r0!, {r3, r4, r5}^
	...
87805854:	30001a30 	andcc	r1, r0, r0, lsr sl
87805858:	0000001c 	andeq	r0, r0, ip, lsl r0
	...
8780586c:	08000000 	stmdaeq	r0, {}	@ <UNPREDICTABLE>
87805870:	00140000 	andseq	r0, r4, r0
87805874:	00002200 	andeq	r2, r0, r0, lsl #4
87805878:	80000041 	andhi	r0, r0, r1, asr #32
8780587c:	40000180 	andmi	r0, r0, r0, lsl #3
87805880:	04200002 	strteq	r0, [r0], #-2
87805884:	00081000 	andeq	r1, r8, r0
87805888:	00000008 	andeq	r0, r0, r8
8780588c:	00000000 	andeq	r0, r0, r0
87805890:	21000021 	tstcs	r0, r1, lsr #32
87805894:	00210000 	eoreq	r0, r1, r0
87805898:	00002100 	andeq	r2, r0, r0, lsl #2
8780589c:	21000021 	tstcs	r0, r1, lsr #32
878058a0:	00210000 	eoreq	r0, r1, r0
878058a4:	00002100 	andeq	r2, r0, r0, lsl #2
878058a8:	21000021 	tstcs	r0, r1, lsr #32
	...
878058b4:	00080000 	andeq	r0, r8, r0
878058b8:	10000408 	andne	r0, r0, r8, lsl #8
878058bc:	01200002 			@ <UNDEFINED> instruction: 0x01200002
878058c0:	80004000 	andhi	r4, r0, r0
878058c4:	00410080 	subeq	r0, r1, r0, lsl #1
878058c8:	00002200 	andeq	r2, r0, r0, lsl #4
878058cc:	08000014 	stmdaeq	r0, {r2, r4}
878058d0:	00000000 	andeq	r0, r0, r0
878058d4:	03000000 	movweq	r0, #0
878058d8:	c00400c0 	andgt	r0, r4, r0, asr #1
878058dc:	00000400 	andeq	r0, r0, r0, lsl #8
878058e0:	08380008 	ldmdaeq	r8!, {r3}
878058e4:	0808380f 	stmdaeq	r8, {r0, r1, r2, r3, fp, ip, sp}
878058e8:	00100838 	andseq	r0, r0, r8, lsr r8
878058ec:	0700300c 	streq	r3, [r0, -ip]
878058f0:	c00300e0 	andgt	r0, r3, r0, ror #1
	...
878058fc:	ff00803f 			@ <UNDEFINED> instruction: 0xff00803f
87805900:	708003e0 	addvc	r0, r0, r0, ror #7
87805904:	06100f02 	ldreq	r0, [r0], -r2, lsl #30
87805908:	c0048870 	andgt	r8, r4, r0, ror r8
8780590c:	08830488 	stmeq	r3, {r3, r7, sl}
87805910:	02887f04 	addeq	r7, r8, #4, 30
87805914:	010390c0 	smlabteq	r3, r0, r0, r9
87805918:	40fe0020 	rscsmi	r0, lr, r0, lsr #32
8780591c:	00080000 	andeq	r0, r8, r0
87805920:	01001800 	tsteq	r0, r0, lsl #16
87805924:	083e00f8 	ldmdaeq	lr!, {r3, r4, r5, r6, r7}
87805928:	0700c201 	streq	ip, [r0, -r1, lsl #4]
8780592c:	e2070002 	and	r0, r7, #2
87805930:	00fe0000 	rscseq	r0, lr, r0
87805934:	00c81f00 	sbceq	r1, r8, r0, lsl #30
87805938:	0000f801 	andeq	pc, r0, r1, lsl #16
8780593c:	08000038 	stmdaeq	r0, {r3, r4, r5}
87805940:	07080004 	streq	r0, [r8, -r4]
87805944:	ff07f8ff 			@ <UNDEFINED> instruction: 0xff07f8ff
87805948:	080804f8 	stmdaeq	r8, {r3, r4, r5, r6, r7, sl}
8780594c:	04080804 	streq	r0, [r8], #-2052	@ 0xfffff7fc
87805950:	08040808 	stmdaeq	r4, {r3, fp}
87805954:	08180608 	ldmdaeq	r8, {r3, r9, sl}
87805958:	0118f403 	tsteq	r8, r3, lsl #8	@ <UNPREDICTABLE>
8780595c:	0100f0e7 	smlatteq	r0, r7, r0, pc	@ <UNPREDICTABLE>
87805960:	000000e0 	andeq	r0, r0, r0, ror #1
87805964:	00000000 	andeq	r0, r0, r0
87805968:	ff01803f 			@ <UNDEFINED> instruction: 0xff01803f
8780596c:	708003e0 	addvc	r0, r0, r0, ror #7
87805970:	04180002 	ldreq	r0, [r8], #-2
87805974:	00040800 	andeq	r0, r4, r0, lsl #16
87805978:	08000408 	stmdaeq	r0, {r3, sl}
8780597c:	06100004 	ldreq	r0, [r0], -r4
87805980:	80072000 	andhi	r2, r7, r0
87805984:	000000c0 	andeq	r0, r0, r0, asr #1
87805988:	07080004 	streq	r0, [r8, -r4]
8780598c:	ff07f8ff 			@ <UNDEFINED> instruction: 0xff07f8ff
87805990:	080004f8 	stmdaeq	r0, {r3, r4, r5, r6, r7, sl}
87805994:	04080004 	streq	r0, [r8], #-4
87805998:	00040800 	andeq	r0, r4, r0, lsl #16
8780599c:	10000218 	andne	r0, r0, r8, lsl r2
878059a0:	01708003 	cmneq	r0, r3
878059a4:	7f00e0ff 	svcvc	0x0000e0ff
878059a8:	00000080 	andeq	r0, r0, r0, lsl #1
878059ac:	07080004 	streq	r0, [r8, -r4]
878059b0:	ff07f8ff 			@ <UNDEFINED> instruction: 0xff07f8ff
878059b4:	080804f8 	stmdaeq	r8, {r3, r4, r5, r6, r7, sl}
878059b8:	04080804 	streq	r0, [r8], #-2052	@ 0xfffff7fc
878059bc:	08040808 	stmdaeq	r4, {r3, fp}
878059c0:	083e0408 	ldmdaeq	lr!, {r3, sl}
878059c4:	06080004 	streq	r0, [r8], -r4
878059c8:	00011800 	andeq	r1, r1, r0, lsl #16
878059cc:	00000060 	andeq	r0, r0, r0, rrx
878059d0:	07080004 	streq	r0, [r8, -r4]
878059d4:	ff07f8ff 			@ <UNDEFINED> instruction: 0xff07f8ff
878059d8:	080804f8 	stmdaeq	r8, {r3, r4, r5, r6, r7, sl}
878059dc:	04000804 	streq	r0, [r0], #-2052	@ 0xfffff7fc
878059e0:	08040008 	stmdaeq	r4, {r3}
878059e4:	003e0400 	eorseq	r0, lr, r0, lsl #8
878059e8:	06000006 	streq	r0, [r0], -r6
878059ec:	80010000 	andhi	r0, r1, r0
	...
878059f8:	ff01803f 			@ <UNDEFINED> instruction: 0xff01803f
878059fc:	708003e0 	addvc	r0, r0, r0, ror #7
87805a00:	04180006 	ldreq	r0, [r8], #-6
87805a04:	02040800 	andeq	r0, r4, #0, 16
87805a08:	08020408 	stmdaeq	r2, {r3, sl}
87805a0c:	07f00302 	ldrbeq	r0, [r0, r2, lsl #6]!
87805a10:	0200f083 	andeq	pc, r0, #131	@ 0x83
87805a14:	00020000 	andeq	r0, r2, r0
87805a18:	07080004 	streq	r0, [r8, -r4]
87805a1c:	ff07f8ff 			@ <UNDEFINED> instruction: 0xff07f8ff
87805a20:	080804f8 	stmdaeq	r8, {r3, r4, r5, r6, r7, sl}
87805a24:	00000800 	andeq	r0, r0, r0, lsl #16
87805a28:	08000008 	stmdaeq	r0, {r3}
87805a2c:	00080000 	andeq	r0, r8, r0
87805a30:	07080804 	streq	r0, [r8, -r4, lsl #16]
87805a34:	ff07f8ff 			@ <UNDEFINED> instruction: 0xff07f8ff
87805a38:	080004f8 	stmdaeq	r0, {r3, r4, r5, r6, r7, sl}
87805a3c:	00000000 	andeq	r0, r0, r0
87805a40:	00040000 	andeq	r0, r4, r0
87805a44:	08000408 	stmdaeq	r0, {r3, sl}
87805a48:	07080004 	streq	r0, [r8, -r4]
87805a4c:	ff07f8ff 			@ <UNDEFINED> instruction: 0xff07f8ff
87805a50:	080004f8 	stmdaeq	r0, {r3, r4, r5, r6, r7, sl}
87805a54:	04080004 	streq	r0, [r8], #-4
87805a58:	00000800 	andeq	r0, r0, r0, lsl #16
	...
87805a64:	00000600 	andeq	r0, r0, r0, lsl #12
87805a68:	01000007 	tsteq	r0, r7
87805a6c:	04010004 	streq	r0, [r1], #-4
87805a70:	00040100 	andeq	r0, r4, r0, lsl #2
87805a74:	feff0703 	cdp2	7, 15, cr0, cr15, cr3, {0}
87805a78:	04fcff07 	ldrbteq	pc, [ip], #3847	@ 0xf07	@ <UNPREDICTABLE>
87805a7c:	00040000 	andeq	r0, r4, r0
87805a80:	00000400 	andeq	r0, r0, r0, lsl #8
87805a84:	07080004 	streq	r0, [r8, -r4]
87805a88:	ff07f8ff 			@ <UNDEFINED> instruction: 0xff07f8ff
87805a8c:	080c04f8 	stmdaeq	ip, {r3, r4, r5, r6, r7, sl}
87805a90:	00001800 	andeq	r1, r0, r0, lsl #16
87805a94:	c704003e 	smladxgt	r4, lr, r0, r0
87805a98:	c8030580 	stmdagt	r3, {r7, r8, sl}
87805a9c:	04f80006 	ldrbteq	r0, [r8], #6
87805aa0:	00043800 	andeq	r3, r4, r0, lsl #16
87805aa4:	08000018 	stmdaeq	r0, {r3, r4}
87805aa8:	07080004 	streq	r0, [r8, -r4]
87805aac:	ff07f8ff 			@ <UNDEFINED> instruction: 0xff07f8ff
87805ab0:	080004f8 	stmdaeq	r0, {r3, r4, r5, r6, r7, sl}
87805ab4:	00080000 	andeq	r0, r8, r0
87805ab8:	00000800 	andeq	r0, r0, r0, lsl #16
87805abc:	08000008 	stmdaeq	r0, {r3}
87805ac0:	00080000 	andeq	r0, r8, r0
87805ac4:	00001800 	andeq	r1, r0, r0, lsl #16
87805ac8:	00000060 	andeq	r0, r0, r0, rrx
87805acc:	07080004 	streq	r0, [r8, -r4]
87805ad0:	8007f8ff 	strdhi	pc, [r7], -pc	@ <UNPREDICTABLE>
87805ad4:	00fc0708 	rscseq	r0, ip, r8, lsl #14
87805ad8:	00c07f00 	sbceq	r7, r0, r0, lsl #30
87805adc:	0700f803 	streq	pc, [r0, -r3, lsl #16]
87805ae0:	007800c0 	rsbseq	r0, r8, r0, asr #1
87805ae4:	07088007 	streq	r8, [r8, -r7]
87805ae8:	ff07f8ff 			@ <UNDEFINED> instruction: 0xff07f8ff
87805aec:	080004f8 	stmdaeq	r0, {r3, r4, r5, r6, r7, sl}
87805af0:	07080004 	streq	r0, [r8, -r4]
87805af4:	0007f8ff 	strdeq	pc, [r7], -pc	@ <UNPREDICTABLE>
87805af8:	00c00308 	sbceq	r0, r0, r8, lsl #6
87805afc:	0000e000 	andeq	lr, r0, r0
87805b00:	1e000038 	mcrne	0, 0, r0, cr0, cr8, {1}
87805b04:	00070000 	andeq	r0, r7, r0
87805b08:	04c00100 	strbeq	r0, [r0], #256	@ 0x100
87805b0c:	ff07f000 			@ <UNDEFINED> instruction: 0xff07f000
87805b10:	000004f8 	strdeq	r0, [r0], -r8
87805b14:	00000000 	andeq	r0, r0, r0
87805b18:	ff01807f 			@ <UNDEFINED> instruction: 0xff01807f
87805b1c:	708003e0 	addvc	r0, r0, r0, ror #7
87805b20:	04180006 	ldreq	r0, [r8], #-6
87805b24:	00040800 	andeq	r0, r4, r0, lsl #16
87805b28:	18000608 	stmdane	r0, {r3, r9, sl}
87805b2c:	01300003 	teqeq	r0, r3
87805b30:	7f00e0ff 	svcvc	0x0000e0ff
87805b34:	00000080 	andeq	r0, r0, r0, lsl #1
87805b38:	07080004 	streq	r0, [r8, -r4]
87805b3c:	ff07f8ff 			@ <UNDEFINED> instruction: 0xff07f8ff
87805b40:	080404f8 	stmdaeq	r4, {r3, r4, r5, r6, r7, sl}
87805b44:	04000404 	streq	r0, [r0], #-1028	@ 0xfffffbfc
87805b48:	04040004 	streq	r0, [r4], #-4
87805b4c:	00040400 	andeq	r0, r4, r0, lsl #8
87805b50:	03000c06 	movweq	r0, #3078	@ 0xc06
87805b54:	f00100f8 			@ <UNDEFINED> instruction: 0xf00100f8
	...
87805b60:	ff01807f 			@ <UNDEFINED> instruction: 0xff01807f
87805b64:	708003e0 	addvc	r0, r0, r0, ror #7
87805b68:	04880006 	streq	r0, [r8], #6
87805b6c:	00048800 	andeq	r8, r4, r0, lsl #16
87805b70:	3c0006c8 	stccc	6, cr0, [r0], {200}	@ 0xc8
87805b74:	013e0003 	teqeq	lr, r3
87805b78:	7f00e6ff 	svcvc	0x0000e6ff
87805b7c:	00000084 	andeq	r0, r0, r4, lsl #1
87805b80:	07080004 	streq	r0, [r8, -r4]
87805b84:	ff07f8ff 			@ <UNDEFINED> instruction: 0xff07f8ff
87805b88:	080804f8 	stmdaeq	r8, {r3, r4, r5, r6, r7, sl}
87805b8c:	04000804 	streq	r0, [r0], #-2052	@ 0xfffff7fc
87805b90:	0f04000c 	svceq	0x0004000c
87805b94:	c00b0400 	andgt	r0, fp, r0, lsl #8
87805b98:	03f01006 	mvnseq	r1, #6
87805b9c:	e00138f0 	strd	r3, [r1], -r0
87805ba0:	08000008 	stmdaeq	r0, {r3}
87805ba4:	01000000 	mrseq	r0, (UNDEF: 0)
87805ba8:	f003f8e0 			@ <UNDEFINED> instruction: 0xf003f8e0
87805bac:	10300630 	eorsne	r0, r0, r0, lsr r6
87805bb0:	04081804 	streq	r1, [r8], #-2052	@ 0xfffff7fc
87805bb4:	0c040818 	stceq	8, cr0, [r4], {24}
87805bb8:	080c0408 	stmdaeq	ip, {r3, sl}
87805bbc:	02180602 	andseq	r0, r8, #2097152	@ 0x200000
87805bc0:	8107f007 	tsthi	r7, r7	@ <UNPREDICTABLE>
87805bc4:	000000e0 	andeq	r0, r0, r0, ror #1
87805bc8:	06008001 	streq	r8, [r0], -r1
87805bcc:	00040000 	andeq	r0, r4, r0
87805bd0:	00000400 	andeq	r0, r0, r0, lsl #8
87805bd4:	07080004 	streq	r0, [r8, -r4]
87805bd8:	ff07f8ff 			@ <UNDEFINED> instruction: 0xff07f8ff
87805bdc:	080004f8 	stmdaeq	r0, {r3, r4, r5, r6, r7, sl}
87805be0:	04000004 	streq	r0, [r0], #-4
87805be4:	00060000 	andeq	r0, r6, r0
87805be8:	00800100 	addeq	r0, r0, r0, lsl #2
87805bec:	07000004 	streq	r0, [r0, -r4]
87805bf0:	ff07e0ff 			@ <UNDEFINED> instruction: 0xff07e0ff
87805bf4:	180004f0 	stmdane	r0, {r4, r5, r6, r7, sl}
87805bf8:	00080000 	andeq	r0, r8, r0
87805bfc:	00000800 	andeq	r0, r0, r0, lsl #16
87805c00:	08000008 	stmdaeq	r0, {r3}
87805c04:	04080000 	streq	r0, [r8], #-0
87805c08:	ff071000 			@ <UNDEFINED> instruction: 0xff071000
87805c0c:	000004e0 	andeq	r0, r0, r0, ror #9
87805c10:	06000004 	streq	r0, [r0], -r4
87805c14:	e0070000 	and	r0, r7, r0
87805c18:	00fe0700 	rscseq	r0, lr, r0, lsl #14
87805c1c:	00e01f04 	rsceq	r1, r0, r4, lsl #30
87805c20:	0000f801 	andeq	pc, r0, r1, lsl #16
87805c24:	e0010038 	and	r0, r1, r8, lsr r0
87805c28:	07003e04 	streq	r3, [r0, -r4, lsl #28]
87805c2c:	000600c0 	andeq	r0, r6, r0, asr #1
87805c30:	00000400 	andeq	r0, r0, r0, lsl #8
87805c34:	07000004 	streq	r0, [r0, -r4]
87805c38:	ff0700e0 			@ <UNDEFINED> instruction: 0xff0700e0
87805c3c:	f81f04c0 			@ <UNDEFINED> instruction: 0xf81f04c0
87805c40:	07c00700 	strbeq	r0, [r0, r0, lsl #14]
87805c44:	ff0700f8 			@ <UNDEFINED> instruction: 0xff0700f8
87805c48:	f83f0480 			@ <UNDEFINED> instruction: 0xf83f0480
87805c4c:	04c00700 	strbeq	r0, [r0], #1792	@ 0x700
87805c50:	000700f8 	strdeq	r0, [r7], -r8
87805c54:	00000400 	andeq	r0, r0, r0, lsl #8
87805c58:	04000000 	streq	r0, [r0], #-0
87805c5c:	00060800 	andeq	r0, r6, r0, lsl #16
87805c60:	78c00718 	stmiavc	r0, {r3, r4, r8, r9, sl}^
87805c64:	00c8f105 	sbceq	pc, r8, r5, lsl #2
87805c68:	1f00003e 	svcne	0x0000003e
87805c6c:	e8630480 	stmda	r3!, {r7, sl}^
87805c70:	06f88007 	ldrbteq	r8, [r8], r7
87805c74:	00041800 	andeq	r1, r4, r0, lsl #16
87805c78:	00000008 	andeq	r0, r0, r8
87805c7c:	06000004 	streq	r0, [r0], -r4
87805c80:	80070000 	andhi	r0, r7, r0
87805c84:	08e00700 	stmiaeq	r0!, {r8, r9, sl}^
87805c88:	00087c04 	andeq	r7, r8, r4, lsl #24
87805c8c:	0700f81f 	smuadeq	r0, pc, r8	@ <UNPREDICTABLE>
87805c90:	081800f8 	ldmdaeq	r8, {r3, r4, r5, r6, r7}
87805c94:	0708e004 	streq	lr, [r8, -r4]
87805c98:	00060000 	andeq	r0, r6, r0
87805c9c:	00000400 	andeq	r0, r0, r0, lsl #8
87805ca0:	01000000 	mrseq	r0, (UNDEF: 0)
87805ca4:	00060800 	andeq	r0, r6, r0, lsl #16
87805ca8:	f8000438 			@ <UNDEFINED> instruction: 0xf8000438
87805cac:	04e80304 	strbteq	r0, [r8], #772	@ 0x304
87805cb0:	7c04080f 	stcvc	8, cr0, [r4], {15}
87805cb4:	08f00508 	ldmeq	r0!, {r3, r8, sl}^
87805cb8:	0708c007 	streq	ip, [r8, -r7]
87805cbc:	00041800 	andeq	r1, r4, r0, lsl #16
87805cc0:	00000060 	andeq	r0, r0, r0, rrx
	...
87805cd0:	3f000000 	svccc	0x00000000
87805cd4:	0020feff 	strdeq	pc, [r0], -pc	@ <UNPREDICTABLE>
87805cd8:	02002002 	andeq	r2, r0, #2
87805cdc:	20020020 	andcs	r0, r2, r0, lsr #32
87805ce0:	00200200 	eoreq	r0, r0, r0, lsl #4
87805ce4:	00000002 	andeq	r0, r0, r2
87805ce8:	00000000 	andeq	r0, r0, r0
87805cec:	00080000 	andeq	r0, r8, r0
87805cf0:	00000700 	andeq	r0, r0, r0, lsl #14
87805cf4:	0000c000 	andeq	ip, r0, r0
87805cf8:	06000038 			@ <UNDEFINED> instruction: 0x06000038
87805cfc:	c0010000 	andgt	r0, r1, r0
87805d00:	00300000 	eorseq	r0, r0, r0
87805d04:	00000e00 	andeq	r0, r0, r0, lsl #28
87805d08:	00000001 	andeq	r0, r0, r1
87805d0c:	00000000 	andeq	r0, r0, r0
87805d10:	00200000 	eoreq	r0, r0, r0
87805d14:	02002002 	andeq	r2, r0, #2
87805d18:	20020020 	andcs	r0, r2, r0, lsr #32
87805d1c:	00200200 	eoreq	r0, r0, r0, lsl #4
87805d20:	feff3f02 	cdp2	15, 15, cr3, cr15, cr2, {0}
	...
87805d38:	00000800 	andeq	r0, r0, r0, lsl #16
87805d3c:	30000010 	andcc	r0, r0, r0, lsl r0
87805d40:	00200000 	eoreq	r0, r0, r0
87805d44:	00003000 	andeq	r3, r0, r0
87805d48:	08000010 	stmdaeq	r0, {r4}
	...
87805d54:	00010000 	andeq	r0, r1, r0
87805d58:	00000100 	andeq	r0, r0, r0, lsl #2
87805d5c:	01000001 	tsteq	r0, r1
87805d60:	00010000 	andeq	r0, r1, r0
87805d64:	00000100 	andeq	r0, r0, r0, lsl #2
87805d68:	01000001 	tsteq	r0, r1
87805d6c:	00010000 	andeq	r0, r1, r0
87805d70:	00000100 	andeq	r0, r0, r0, lsl #2
87805d74:	01000001 	tsteq	r0, r1
	...
87805d80:	00002000 	andeq	r2, r0, r0
87805d84:	10000020 	andne	r0, r0, r0, lsr #32
87805d88:	00100000 	andseq	r0, r0, r0
	...
87805da0:	1900f000 	stmdbne	r0, {ip, sp, lr, pc}
87805da4:	181b00f8 	ldmdane	fp, {r3, r4, r5, r6, r7}
87805da8:	00082200 	andeq	r2, r8, r0, lsl #4
87805dac:	24000826 	strcs	r0, [r0], #-2086	@ 0xfffff7da
87805db0:	10240008 	eorne	r0, r4, r8
87805db4:	00f83f00 	rscseq	r3, r8, r0, lsl #30
87805db8:	0000f81f 	andeq	pc, r0, pc, lsl r8	@ <UNPREDICTABLE>
87805dbc:	18000008 	stmdane	r0, {r3}
87805dc0:	04000000 	streq	r0, [r0], #-0
87805dc4:	ff070000 			@ <UNDEFINED> instruction: 0xff070000
87805dc8:	f0ff0ff8 			@ <UNDEFINED> instruction: 0xf0ff0ff8
87805dcc:	00181800 	andseq	r1, r8, r0, lsl #16
87805dd0:	20000810 	andcs	r0, r0, r0, lsl r8
87805dd4:	08200008 	stmdaeq	r0!, {r3}
87805dd8:	00183000 	andseq	r3, r8, r0
87805ddc:	0f00f01f 	svceq	0x0000f01f
87805de0:	000000c0 	andeq	r0, r0, r0, asr #1
87805de4:	00000000 	andeq	r0, r0, r0
87805de8:	1f00c007 	svcne	0x0000c007
87805dec:	301800f0 	ldrshcc	r0, [r8], -r0	@ <UNPREDICTABLE>
87805df0:	00082000 	andeq	r2, r8, r0
87805df4:	20000820 	andcs	r0, r0, r0, lsr #16
87805df8:	083c0008 	ldmdaeq	ip!, {r3}
87805dfc:	00101c00 	andseq	r1, r0, r0, lsl #24
87805e00:	00006000 	andeq	r6, r0, r0
	...
87805e0c:	1f00c007 	svcne	0x0000c007
87805e10:	183800f0 	ldmdane	r8!, {r4, r5, r6, r7}
87805e14:	00082000 	andeq	r2, r8, r0
87805e18:	20000820 	andcs	r0, r0, r0, lsr #16
87805e1c:	10100408 	andsne	r0, r0, r8, lsl #8
87805e20:	0ff8ff07 	svceq	0x00f8ff07
87805e24:	0000f0ff 	strdeq	pc, [r0], -pc	@ <UNPREDICTABLE>
87805e28:	00000010 	andeq	r0, r0, r0, lsl r0
87805e2c:	00000000 	andeq	r0, r0, r0
87805e30:	07000000 	streq	r0, [r0, -r0]
87805e34:	f01f00c0 			@ <UNDEFINED> instruction: 0xf01f00c0
87805e38:	00301200 	eorseq	r1, r0, r0, lsl #4
87805e3c:	22001822 	andcs	r1, r0, #2228224	@ 0x220000
87805e40:	08220008 	stmdaeq	r2!, {r3}
87805e44:	00083200 	andeq	r3, r8, r0, lsl #4
87805e48:	0e00101e 	mcreq	0, 0, r1, cr0, cr14, {0}
87805e4c:	00000020 	andeq	r0, r0, r0, lsr #32
87805e50:	00000000 	andeq	r0, r0, r0
87805e54:	20000020 	andcs	r0, r0, r0, lsr #32
87805e58:	08200008 	stmdaeq	r0!, {r3}
87805e5c:	03f8ff01 	mvnseq	pc, #1, 30
87805e60:	2006f8ff 	strdcs	pc, [r6], -pc	@ <UNPREDICTABLE>
87805e64:	08200408 	stmdaeq	r0!, {r3, sl}
87805e68:	07082004 	streq	r2, [r8, -r4]
87805e6c:	00030020 	andeq	r0, r3, r0, lsr #32
	...
87805e78:	0e000e00 	cdpeq	14, 0, cr0, cr0, cr0, {0}
87805e7c:	f31f006e 	vhadd.u16	q0, <illegal reg q7.5>, q15
87805e80:	00b13100 	adcseq	r3, r1, r0, lsl #2
87805e84:	2000b120 	andcs	fp, r0, r0, lsr #2
87805e88:	913100b1 	ldrhls	r0, [r1, -r1]!
87805e8c:	00131f00 	andseq	r1, r3, r0, lsl #30
87805e90:	20001e2e 	andcs	r1, r0, lr, lsr #28
87805e94:	0030000e 	eorseq	r0, r0, lr
87805e98:	04000000 	streq	r0, [r0], #-0
87805e9c:	ff070800 			@ <UNDEFINED> instruction: 0xff070800
87805ea0:	f8ff0ff8 			@ <UNDEFINED> instruction: 0xf8ff0ff8
87805ea4:	00081000 	andeq	r1, r8, r0
87805ea8:	20000020 	andcs	r0, r0, r0, lsr #32
87805eac:	08200000 	stmdaeq	r0!, {}	@ <UNPREDICTABLE>
87805eb0:	00f83f00 	rscseq	r3, r8, r0, lsl #30
87805eb4:	0000f81f 	andeq	pc, r0, pc, lsl r8	@ <UNPREDICTABLE>
87805eb8:	00000008 	andeq	r0, r0, r8
87805ebc:	00000000 	andeq	r0, r0, r0
87805ec0:	20000000 	andcs	r0, r0, r0
87805ec4:	08200008 	stmdaeq	r0!, {r3}
87805ec8:	06082000 	streq	r2, [r8], -r0
87805ecc:	3f06f83f 	svccc	0x0006f83f
87805ed0:	080000f8 	stmdaeq	r0, {r3, r4, r5, r6, r7}
87805ed4:	00080000 	andeq	r0, r8, r0
87805ed8:	00000800 	andeq	r0, r0, r0, lsl #16
	...
87805ee8:	03000003 	movweq	r0, #3
87805eec:	00012000 	andeq	r2, r1, r0
87805ef0:	20000120 	andcs	r0, r0, r0, lsr #2
87805ef4:	fe3f0603 	cdp2	6, 3, cr0, cr15, cr3, {0}
87805ef8:	00fc3f06 	rscseq	r3, ip, r6, lsl #30
	...
87805f04:	04000000 	streq	r0, [r0], #-0
87805f08:	ff070800 			@ <UNDEFINED> instruction: 0xff070800
87805f0c:	f8ff0ff8 			@ <UNDEFINED> instruction: 0xf8ff0ff8
87805f10:	00880100 	addeq	r0, r8, r0, lsl #2
87805f14:	2f000003 	svccs	0x00000003
87805f18:	f83800c0 			@ <UNDEFINED> instruction: 0xf83800c0
87805f1c:	00382000 	eorseq	r2, r8, r0
87805f20:	00000820 	andeq	r0, r0, r0, lsr #16
87805f24:	00000008 	andeq	r0, r0, r8
87805f28:	00000000 	andeq	r0, r0, r0
87805f2c:	00040000 	andeq	r0, r4, r0
87805f30:	08000408 	stmdaeq	r0, {r3, sl}
87805f34:	07080004 	streq	r0, [r8, -r4]
87805f38:	ff0ff8ff 			@ <UNDEFINED> instruction: 0xff0ff8ff
87805f3c:	080000f8 	stmdaeq	r0, {r3, r4, r5, r6, r7}
87805f40:	00080000 	andeq	r0, r8, r0
87805f44:	00000800 	andeq	r0, r0, r0, lsl #16
87805f48:	00000000 	andeq	r0, r0, r0
87805f4c:	00082000 	andeq	r2, r8, r0
87805f50:	3f00f83f 	svccc	0x0000f83f
87805f54:	081000f8 	ldmdaeq	r0, {r3, r4, r5, r6, r7}
87805f58:	00002000 	andeq	r2, r0, r0
87805f5c:	3f00f83f 	svccc	0x0000f83f
87805f60:	081000f8 	ldmdaeq	r0, {r3, r4, r5, r6, r7}
87805f64:	00002000 	andeq	r2, r0, r0
87805f68:	3f00f83f 	svccc	0x0000f83f
87805f6c:	080000f8 	stmdaeq	r0, {r3, r4, r5, r6, r7}
87805f70:	00000000 	andeq	r0, r0, r0
87805f74:	3f000820 	svccc	0x00000820
87805f78:	f83f00f8 			@ <UNDEFINED> instruction: 0xf83f00f8
87805f7c:	00081000 	andeq	r1, r8, r0
87805f80:	20000010 	andcs	r0, r0, r0, lsl r0
87805f84:	08200000 	stmdaeq	r0!, {}	@ <UNPREDICTABLE>
87805f88:	00f83f00 	rscseq	r3, r8, r0, lsl #30
87805f8c:	0000f81f 	andeq	pc, r0, pc, lsl r8	@ <UNPREDICTABLE>
87805f90:	00000008 	andeq	r0, r0, r8
87805f94:	00000000 	andeq	r0, r0, r0
87805f98:	0f00c007 	svceq	0x0000c007
87805f9c:	301800f0 	ldrshcc	r0, [r8], -r0	@ <UNPREDICTABLE>
87805fa0:	00083000 	andeq	r3, r8, r0
87805fa4:	20000820 	andcs	r0, r0, r0, lsr #16
87805fa8:	08300008 	ldmdaeq	r0!, {r3}
87805fac:	00301800 	eorseq	r1, r0, r0, lsl #16
87805fb0:	0700f00f 	streq	pc, [r0, -pc]
87805fb4:	000000c0 	andeq	r0, r0, r0, asr #1
87805fb8:	00000000 	andeq	r0, r0, r0
87805fbc:	3f000120 	svccc	0x00000120
87805fc0:	ff3f00ff 			@ <UNDEFINED> instruction: 0xff3f00ff
87805fc4:	00111000 	andseq	r1, r1, r0
87805fc8:	20000920 	andcs	r0, r0, r0, lsr #18
87805fcc:	08200008 	stmdaeq	r0!, {r3}
87805fd0:	00383000 	eorseq	r3, r8, r0
87805fd4:	0f00f01f 	svceq	0x0000f01f
87805fd8:	000000c0 	andeq	r0, r0, r0, asr #1
87805fdc:	00000000 	andeq	r0, r0, r0
87805fe0:	1f00c007 	svcne	0x0000c007
87805fe4:	183800f0 	ldmdane	r8!, {r4, r5, r6, r7}
87805fe8:	00082000 	andeq	r2, r8, r0
87805fec:	20000820 	andcs	r0, r0, r0, lsr #16
87805ff0:	11100009 	tstne	r0, r9
87805ff4:	00ff1f00 	rscseq	r1, pc, r0, lsl #30
87805ff8:	0000ff3f 	andeq	pc, r0, pc, lsr pc	@ <UNPREDICTABLE>
87805ffc:	00000001 	andeq	r0, r0, r1
87806000:	00082000 	andeq	r2, r8, r0
87806004:	20000820 	andcs	r0, r0, r0, lsr #16
87806008:	f83f0008 			@ <UNDEFINED> instruction: 0xf83f0008
8780600c:	00f83f00 	rscseq	r3, r8, r0, lsl #30
87806010:	10000808 	andne	r0, r0, r8, lsl #16
87806014:	08200008 	stmdaeq	r0!, {r3}
87806018:	00002000 	andeq	r2, r0, r0
8780601c:	30000030 	andcc	r0, r0, r0, lsr r0
	...
87806028:	0c000000 	stceq	0, cr0, [r0], {-0}
8780602c:	181e0078 	ldmdane	lr, {r3, r4, r5, r6}
87806030:	00083300 	andeq	r3, r8, r0, lsl #6
87806034:	21000823 	tstcs	r0, r3, lsr #16
87806038:	88210008 	stmdahi	r1!, {r3}
8780603c:	00982100 	addseq	r2, r8, r0, lsl #2
87806040:	3800f030 	stmdacc	r0, {r4, r5, ip, sp, lr, pc}
87806044:	00000060 	andeq	r0, r0, r0, rrx
87806048:	00000000 	andeq	r0, r0, r0
8780604c:	20000020 	andcs	r0, r0, r0, lsr #32
87806050:	00200000 	eoreq	r0, r0, r0
87806054:	03f0ff00 	mvnseq	pc, #0, 30
87806058:	2000f8ff 	strdcs	pc, [r0], -pc	@ <UNPREDICTABLE>
8780605c:	08200008 	stmdaeq	r0!, {r3}
87806060:	00082000 	andeq	r2, r8, r0
87806064:	00003000 	andeq	r3, r0, r0
	...
87806070:	3f000020 	svccc	0x00000020
87806074:	f87f00f0 			@ <UNDEFINED> instruction: 0xf87f00f0
87806078:	00180000 	andseq	r0, r8, r0
8780607c:	00000800 	andeq	r0, r0, r0, lsl #16
87806080:	10200008 	eorne	r0, r0, r8
87806084:	00f83f00 	rscseq	r3, r8, r0, lsl #30
87806088:	0000f07f 	andeq	pc, r0, pc, ror r0	@ <UNPREDICTABLE>
8780608c:	00000010 	andeq	r0, r0, r0, lsl r0
87806090:	00000000 	andeq	r0, r0, r0
87806094:	30000020 	andcc	r0, r0, r0, lsr #32
87806098:	003c0000 	eorseq	r0, ip, r0
8780609c:	00803f00 	addeq	r3, r0, r0, lsl #30
878060a0:	0000f023 	andeq	pc, r0, r3, lsr #32
878060a4:	70000078 	andvc	r0, r0, r8, ror r0
878060a8:	00802300 	addeq	r2, r0, r0, lsl #6
878060ac:	3000003c 	andcc	r0, r0, ip, lsr r0
878060b0:	00200000 	eoreq	r0, r0, r0
878060b4:	00002000 	andeq	r2, r0, r0
878060b8:	3f00003c 	svccc	0x0000003c
878060bc:	f82300e0 			@ <UNDEFINED> instruction: 0xf82300e0
878060c0:	00e00000 	rsceq	r0, r0, r0
878060c4:	3e000027 	cdpcc	0, 0, cr0, cr0, cr7, {1}
878060c8:	e03f0000 	eors	r0, pc, r0
878060cc:	00f82100 	rscseq	r2, r8, r0, lsl #2
878060d0:	3e00e001 	cdpcc	0, 0, cr14, cr0, cr1, {0}
878060d4:	00200000 	eoreq	r0, r0, r0
878060d8:	00000000 	andeq	r0, r0, r0
878060dc:	20000820 	andcs	r0, r0, r0, lsr #16
878060e0:	38380008 	ldmdacc	r8!, {r3}
878060e4:	00683e00 	rsbeq	r3, r8, r0, lsl #28
878060e8:	03008027 	movweq	r8, #39	@ 0x27
878060ec:	f82c00c8 			@ <UNDEFINED> instruction: 0xf82c00c8
878060f0:	00383800 	eorseq	r3, r8, r0, lsl #16
878060f4:	20001820 	andcs	r1, r0, r0, lsr #16
878060f8:	00000008 	andeq	r0, r0, r8
878060fc:	00000000 	andeq	r0, r0, r0
87806100:	30000020 	andcc	r0, r0, r0, lsr #32
87806104:	013c0003 	teqeq	ip, r3
87806108:	00833f00 	addeq	r3, r3, r0, lsl #30
8780610c:	0000ec23 	andeq	lr, r0, r3, lsr #24
87806110:	80230070 	eorhi	r0, r3, r0, ror r0
87806114:	00003c00 	andeq	r3, r0, r0, lsl #24
87806118:	20000020 	andcs	r0, r0, r0, lsr #32
	...
87806124:	38000000 	stmdacc	r0, {}	@ <UNPREDICTABLE>
87806128:	38200008 	stmdacc	r0!, {r3}
8780612c:	00f82000 	rscseq	r2, r8, r0
87806130:	2f00e823 	svccs	0x0000e823
87806134:	083e0088 	ldmdaeq	lr!, {r3, r7}
87806138:	00083800 	andeq	r3, r8, r0, lsl #16
8780613c:	00001820 	andeq	r1, r0, r0, lsr #16
87806140:	00000070 	andeq	r0, r0, r0, ror r0
	...
87806154:	14000008 	strne	r0, [r0], #-8
87806158:	fcf71f00 	ldc2l	15, cr1, [r7]
8780615c:	20060030 	andcs	r0, r6, r0, lsr r0
87806160:	00000200 	andeq	r0, r0, r0, lsl #4
	...
87806178:	ffff0000 			@ <UNDEFINED> instruction: 0xffff0000
8780617c:	000000ff 	strdeq	r0, [r0], -pc	@ <UNPREDICTABLE>
	...
87806190:	00200000 	eoreq	r0, r0, r0
87806194:	06003002 	streq	r3, [r0], -r2
87806198:	00fcf71f 	rscseq	pc, ip, pc, lsl r7	@ <UNPREDICTABLE>
8780619c:	08000014 	stmdaeq	r0, {r2, r4}
	...
878061b0:	18000000 	stmdane	r0, {}	@ <UNPREDICTABLE>
878061b4:	00600000 	rsbeq	r0, r0, r0
878061b8:	00004000 	andeq	r4, r0, r0
878061bc:	20000040 	andcs	r0, r0, r0, asr #32
878061c0:	00100000 	andseq	r0, r0, r0
878061c4:	00000800 	andeq	r0, r0, r0, lsl #16
878061c8:	04000004 	streq	r0, [r0], #-4
878061cc:	000c0000 	andeq	r0, ip, r0
878061d0:	00001000 	andeq	r1, r0, r0
878061d4:	00000000 	andeq	r0, r0, r0

878061d8 <asc2_3216>:
	...
87806270:	c000f007 	andgt	pc, r0, r7
87806274:	e0e1ff07 	rsc	pc, r1, r7, lsl #30
87806278:	e001f007 	and	pc, r1, r7
8780627c:	c0000000 	andgt	r0, r0, r0
	...
878062e0:	00002000 	andeq	r2, r0, r0
878062e4:	0000c001 	andeq	ip, r0, r1
878062e8:	00008007 	andeq	r8, r0, r7
878062ec:	0000001f 	andeq	r0, r0, pc, lsl r0
878062f0:	0000001e 	andeq	r0, r0, lr, lsl r0
878062f4:	0000201c 	andeq	r2, r0, ip, lsl r0
878062f8:	0000c001 	andeq	ip, r0, r1
878062fc:	00008007 	andeq	r8, r0, r7
87806300:	0000001f 	andeq	r0, r0, pc, lsl r0
87806304:	0000001e 	andeq	r0, r0, lr, lsl r0
87806308:	0000001c 	andeq	r0, r0, ip, lsl r0
	...
8780635c:	000c1800 	andeq	r1, ip, r0, lsl #16
87806360:	000c1800 	andeq	r1, ip, r0, lsl #16
87806364:	e00f1800 	and	r1, pc, r0, lsl #16
87806368:	00fc1f00 	rscseq	r1, ip, r0, lsl #30
8780636c:	000cf803 	andeq	pc, ip, r3, lsl #16
87806370:	000c1800 	andeq	r1, ip, r0, lsl #16
87806374:	000c1800 	andeq	r1, ip, r0, lsl #16
87806378:	000c1800 	andeq	r1, ip, r0, lsl #16
8780637c:	000c1800 	andeq	r1, ip, r0, lsl #16
87806380:	e00f1800 	and	r1, pc, r0, lsl #16
87806384:	00fc1f00 	rscseq	r1, ip, r0, lsl #30
87806388:	000cf803 	andeq	pc, ip, r3, lsl #16
8780638c:	000c1800 	andeq	r1, ip, r0, lsl #16
87806390:	000c1800 	andeq	r1, ip, r0, lsl #16
	...
878063e0:	80070000 	andhi	r0, r7, r0
878063e4:	c0077800 	andgt	r7, r7, r0, lsl #16
878063e8:	4006fc00 	andmi	pc, r6, r0, lsl #24
878063ec:	20000e01 	andcs	r0, r0, r1, lsl #28
878063f0:	20000703 	andcs	r0, r0, r3, lsl #14
878063f4:	20800302 	addcs	r0, r0, r2, lsl #6
878063f8:	fcffff0f 	ldc2l	15, cr15, [pc], #60	@ 8780643c <asc2_3216+0x264>
878063fc:	20c00102 	sbccs	r0, r0, r2, lsl #2
87806400:	60e00002 	rscvs	r0, r0, r2
87806404:	40703001 	rsbsmi	r3, r0, r1
87806408:	803ff001 	eorshi	pc, pc, r1
8780640c:	001ff000 	andseq	pc, pc, r0
	...
87806458:	0000fe00 	andeq	pc, r0, r0, lsl #28
8780645c:	0000ff01 	andeq	pc, r0, r1, lsl #30
87806460:	00800103 	addeq	r0, r0, r3, lsl #2
87806464:	60800002 	addvs	r0, r0, r2
87806468:	c0810103 	addgt	r0, r1, r3, lsl #2
8780646c:	0007ff01 	andeq	pc, r7, r1, lsl #30
87806470:	0018fe00 	andseq	pc, r8, r0, lsl #28
87806474:	00e00000 	rsceq	r0, r0, r0
87806478:	00bf0300 	adcseq	r0, pc, r0, lsl #6
8780647c:	c0ff0c00 	rscsgt	r0, pc, r0, lsl #24
87806480:	60807100 	addvs	r7, r0, r0, lsl #2
87806484:	2000c101 	andcs	ip, r0, r1, lsl #2
87806488:	60800103 	addvs	r0, r0, r3, lsl #2
8780648c:	c0ff0000 	rscsgt	r0, pc, r0
87806490:	003f0000 	eorseq	r0, pc, r0
	...
878064d8:	001f0000 	andseq	r0, pc, r0
878064dc:	c07f0000 	rsbsgt	r0, pc, r0
878064e0:	c0c0fc00 	sbcgt	pc, r0, r0, lsl #24
878064e4:	6080ff01 	addvs	pc, r0, r1, lsl #30
878064e8:	20e00303 	rsccs	r0, r0, r3, lsl #6
878064ec:	20780202 	rsbscs	r0, r8, r2, lsl #4
878064f0:	201e0602 	andscs	r0, lr, r2, lsl #12
878064f4:	4007fc03 	andmi	pc, r7, r3, lsl #24
878064f8:	8003f001 	andhi	pc, r3, r1
878064fc:	c0030100 	andgt	r0, r3, r0, lsl #2
87806500:	601c0100 	andsvs	r0, ip, r0, lsl #2
87806504:	20e00100 	rsccs	r0, r0, r0, lsl #2
87806508:	20000100 	andcs	r0, r0, r0, lsl #2
8780650c:	40000100 	andmi	r0, r0, r0, lsl #2
87806510:	80010000 	andhi	r0, r1, r0
	...
8780655c:	00002000 	andeq	r2, r0, r0
87806560:	0000601c 	andeq	r6, r0, ip, lsl r0
87806564:	0000401c 	andeq	r4, r0, ip, lsl r0
87806568:	0000801f 	andeq	r8, r0, pc, lsl r0
8780656c:	0000000f 	andeq	r0, r0, pc
	...
878065f4:	00f80700 	rscseq	r0, r8, r0, lsl #14
878065f8:	00ff3f00 	rscseq	r3, pc, r0, lsl #30
878065fc:	c0077800 	andgt	r7, r7, r0, lsl #16
87806600:	e000c001 	and	ip, r0, r1
87806604:	30000003 	andcc	r0, r0, r3
87806608:	08000004 	stmdaeq	r0, {r2}
8780660c:	04000008 	streq	r0, [r0], #-8
87806610:	02000010 	andeq	r0, r0, #16
	...
8780665c:	02000010 	andeq	r0, r0, #16
87806660:	04000008 	streq	r0, [r0], #-8
87806664:	08000004 	stmdaeq	r0, {r2}
87806668:	30000003 	andcc	r0, r0, r3
8780666c:	e000c001 	and	ip, r0, r1
87806670:	c0077800 	andgt	r7, r7, r0, lsl #16
87806674:	00ff3f00 	rscseq	r3, pc, r0, lsl #30
87806678:	00f80700 	rscseq	r0, r8, r0, lsl #14
	...
878066e0:	00180c00 	andseq	r0, r8, r0, lsl #24
878066e4:	00380e00 	eorseq	r0, r8, r0, lsl #28
878066e8:	00380e00 	eorseq	r0, r8, r0, lsl #28
878066ec:	00300600 	eorseq	r0, r0, r0, lsl #12
878066f0:	00600300 	rsbeq	r0, r0, r0, lsl #6
878066f4:	80436100 	subhi	r6, r3, r0, lsl #2
878066f8:	80ffff00 	rscshi	pc, pc, r0, lsl #30
878066fc:	00436100 	subeq	r6, r3, r0, lsl #2
87806700:	00600300 	rsbeq	r0, r0, r0, lsl #6
87806704:	00300600 	eorseq	r0, r0, r0, lsl #12
87806708:	00380e00 	eorseq	r0, r8, r0, lsl #28
8780670c:	00380e00 	eorseq	r0, r8, r0, lsl #28
87806710:	00180c00 	andseq	r0, r8, r0, lsl #24
	...
87806760:	00800000 	addeq	r0, r0, r0
87806764:	00800000 	addeq	r0, r0, r0
87806768:	00800000 	addeq	r0, r0, r0
8780676c:	00800000 	addeq	r0, r0, r0
87806770:	00800000 	addeq	r0, r0, r0
87806774:	00800000 	addeq	r0, r0, r0
87806778:	00ff7f00 	rscseq	r7, pc, r0, lsl #30
8780677c:	00800000 	addeq	r0, r0, r0
87806780:	00800000 	addeq	r0, r0, r0
87806784:	00800000 	addeq	r0, r0, r0
87806788:	00800000 	addeq	r0, r0, r0
8780678c:	00800000 	addeq	r0, r0, r0
87806790:	00800000 	addeq	r0, r0, r0
	...
878067dc:	01000000 	mrseq	r0, (UNDEF: 0)
878067e0:	e3000000 	movw	r0, #0
878067e4:	e2000000 	and	r0, r0, #0
878067e8:	fc000000 	stc2	0, cr0, [r0], {-0}
878067ec:	78000000 	stmdavc	r0, {}	@ <UNPREDICTABLE>
	...
8780685c:	00800000 	addeq	r0, r0, r0
87806860:	00800000 	addeq	r0, r0, r0
87806864:	00800000 	addeq	r0, r0, r0
87806868:	00800000 	addeq	r0, r0, r0
8780686c:	00800000 	addeq	r0, r0, r0
87806870:	00800000 	addeq	r0, r0, r0
87806874:	00800000 	addeq	r0, r0, r0
87806878:	00800000 	addeq	r0, r0, r0
8780687c:	00800000 	addeq	r0, r0, r0
87806880:	00800000 	addeq	r0, r0, r0
87806884:	00800000 	addeq	r0, r0, r0
87806888:	00800000 	addeq	r0, r0, r0
8780688c:	00800000 	addeq	r0, r0, r0
87806890:	00800000 	addeq	r0, r0, r0
	...
878068e0:	c0000000 	andgt	r0, r0, r0
878068e4:	e0010000 	and	r0, r1, r0
878068e8:	e0010000 	and	r0, r1, r0
878068ec:	c0000000 	andgt	r0, r0, r0
	...
8780695c:	0c000000 	stceq	0, cr0, [r0], {-0}
87806960:	38000000 	stmdacc	r0, {}	@ <UNPREDICTABLE>
87806964:	e0000000 	and	r0, r0, r0
87806968:	80030000 	andhi	r0, r3, r0
8780696c:	000e0000 	andeq	r0, lr, r0
87806970:	00380000 	eorseq	r0, r8, r0
87806974:	00e00000 	rsceq	r0, r0, r0
87806978:	00800300 	addeq	r0, r0, r0, lsl #6
8780697c:	00000e00 	andeq	r0, r0, r0, lsl #28
87806980:	00003800 	andeq	r3, r0, r0, lsl #16
87806984:	0000e000 	andeq	lr, r0, r0
87806988:	00008003 	andeq	r8, r0, r3
8780698c:	0000000e 	andeq	r0, r0, lr
87806990:	00000018 	andeq	r0, r0, r8, lsl r0
	...
878069e0:	00f80f00 	rscseq	r0, r8, r0, lsl #30
878069e4:	00ff7f00 	rscseq	r7, pc, r0, lsl #30
878069e8:	8007f000 	andhi	pc, r7, r0
878069ec:	c0008001 	andgt	r8, r0, r1
878069f0:	60000003 	andvs	r0, r0, r3
878069f4:	20000002 	andcs	r0, r0, r2
878069f8:	20000002 	andcs	r0, r0, r2
878069fc:	20000002 	andcs	r0, r0, r2
87806a00:	60000003 	andvs	r0, r0, r3
87806a04:	c0008001 	andgt	r8, r0, r1
87806a08:	8003e000 	andhi	lr, r3, r0
87806a0c:	00ff7f00 	rscseq	r7, pc, r0, lsl #30
87806a10:	00f80f00 	rscseq	r0, r8, r0, lsl #30
	...
87806a64:	20008000 	andcs	r8, r0, r0
87806a68:	20008000 	andcs	r8, r0, r0
87806a6c:	20008000 	andcs	r8, r0, r0
87806a70:	60008000 	andvs	r8, r0, r0
87806a74:	e0ffff01 	rscs	pc, pc, r1, lsl #30
87806a78:	e0ffff03 	rscs	pc, pc, r3, lsl #30
87806a7c:	60000000 	andvs	r0, r0, r0
87806a80:	20000000 	andcs	r0, r0, r0
87806a84:	20000000 	andcs	r0, r0, r0
87806a88:	20000000 	andcs	r0, r0, r0
	...
87806ae0:	e0007800 	and	r7, r0, r0, lsl #16
87806ae4:	60019800 	andvs	r9, r1, r0, lsl #16
87806ae8:	60020001 	andvs	r0, r2, r1
87806aec:	60040002 	andvs	r0, r4, r2
87806af0:	60080002 	andvs	r0, r8, r2
87806af4:	60100002 	andsvs	r0, r0, r2
87806af8:	60200002 	eorvs	r0, r0, r2
87806afc:	60400002 	subvs	r0, r0, r2
87806b00:	60800003 	addvs	r0, r0, r3
87806b04:	60008301 	andvs	r8, r0, r1, lsl #6
87806b08:	e000fe01 	and	pc, r0, r1, lsl #28
87806b0c:	80077c00 	andhi	r7, r7, r0, lsl #24
	...
87806b60:	8007f000 	andhi	pc, r7, r0
87806b64:	c007f001 	andgt	pc, r7, r1
87806b68:	40000001 	andmi	r0, r0, r1
87806b6c:	20000002 	andcs	r0, r0, r2
87806b70:	20000102 	andcs	r0, r0, r2, lsl #2
87806b74:	20000102 	andcs	r0, r0, r2, lsl #2
87806b78:	20000102 	andcs	r0, r0, r2, lsl #2
87806b7c:	20800303 	addcs	r0, r0, r3, lsl #6
87806b80:	40808601 	addmi	r8, r0, r1, lsl #12
87806b84:	c0c0fc01 	sbcgt	pc, r0, r1, lsl #24
87806b88:	807f7800 	rsbshi	r7, pc, r0, lsl #16
87806b8c:	001e0000 	andseq	r0, lr, r0
	...
87806bdc:	00080000 	andeq	r0, r8, r0
87806be0:	00380000 	eorseq	r0, r8, r0
87806be4:	00480000 	subeq	r0, r8, r0
87806be8:	00880100 	addeq	r0, r8, r0, lsl #2
87806bec:	00080600 	andeq	r0, r8, r0, lsl #12
87806bf0:	10080c00 	andne	r0, r8, r0, lsl #24
87806bf4:	10083000 	andne	r3, r8, r0
87806bf8:	10084000 	andne	r4, r8, r0
87806bfc:	f0ffff01 			@ <UNDEFINED> instruction: 0xf0ffff01
87806c00:	f0ffff03 			@ <UNDEFINED> instruction: 0xf0ffff03
87806c04:	f0ffff03 			@ <UNDEFINED> instruction: 0xf0ffff03
87806c08:	10080000 	andne	r0, r8, r0
87806c0c:	10080000 	andne	r0, r8, r0
87806c10:	10080000 	andne	r0, r8, r0
	...
87806c60:	80070000 	andhi	r0, r7, r0
87806c64:	40861f00 	addmi	r1, r6, r0, lsl #30
87806c68:	2000e103 	andcs	lr, r0, r3, lsl #2
87806c6c:	20000203 	andcs	r0, r0, r3, lsl #4
87806c70:	20000403 	andcs	r0, r0, r3, lsl #8
87806c74:	20000403 	andcs	r0, r0, r3, lsl #8
87806c78:	20000403 	andcs	r0, r0, r3, lsl #8
87806c7c:	20000403 	andcs	r0, r0, r3, lsl #8
87806c80:	40000603 	andmi	r0, r0, r3, lsl #12
87806c84:	c0010303 	andgt	r0, r1, r3, lsl #6
87806c88:	80ff0103 	rscshi	r0, pc, r3, lsl #2
87806c8c:	007e0003 	rsbseq	r0, lr, r3
	...
87806ce0:	00fc0700 	rscseq	r0, ip, r0, lsl #14
87806ce4:	00ff3f00 	rscseq	r3, pc, r0, lsl #30
87806ce8:	80c37000 	sbchi	r7, r3, r0
87806cec:	c0808100 	addgt	r8, r0, r0, lsl #2
87806cf0:	60000101 	andvs	r0, r0, r1, lsl #2
87806cf4:	20000203 	andcs	r0, r0, r3, lsl #4
87806cf8:	20000202 	andcs	r0, r0, r2, lsl #4
87806cfc:	20000202 	andcs	r0, r0, r2, lsl #4
87806d00:	20000202 	andcs	r0, r0, r2, lsl #4
87806d04:	40000302 	andmi	r0, r0, r2, lsl #6
87806d08:	c080c101 	addgt	ip, r0, r1, lsl #2
87806d0c:	80ffc000 	rscshi	ip, pc, r0
87806d10:	007e0000 	rsbseq	r0, lr, r0
	...
87806d60:	0000f000 	andeq	pc, r0, r0
87806d64:	0000c003 	andeq	ip, r0, r3
87806d68:	00008003 	andeq	r8, r0, r3
87806d6c:	00000003 	andeq	r0, r0, r3
87806d70:	e0070003 	and	r0, r7, r3
87806d74:	e03f0003 	eors	r0, pc, r3
87806d78:	00c00103 	sbceq	r0, r0, r3, lsl #2
87806d7c:	00000603 	andeq	r0, r0, r3, lsl #12
87806d80:	00001803 	andeq	r1, r0, r3, lsl #16
87806d84:	00006003 	andeq	r6, r0, r3
87806d88:	00008003 	andeq	r8, r0, r3
87806d8c:	00000003 	andeq	r0, r0, r3
	...
87806ddc:	001f0000 	andseq	r0, pc, r0
87806de0:	803f7800 	eorshi	r7, pc, r0, lsl #16
87806de4:	c060fc00 	rsbgt	pc, r0, r0, lsl #24
87806de8:	40c08e01 	sbcmi	r8, r0, r1, lsl #28
87806dec:	20800703 	addcs	r0, r0, r3, lsl #14
87806df0:	20000302 	andcs	r0, r0, r2, lsl #6
87806df4:	20800102 	addcs	r0, r0, r2, lsl #2
87806df8:	20800102 	addcs	r0, r0, r2, lsl #2
87806dfc:	20c00102 	sbccs	r0, r0, r2, lsl #2
87806e00:	40e00103 	rscmi	r0, r0, r3, lsl #2
87806e04:	c0708601 	rsbsgt	r8, r0, r1, lsl #12
87806e08:	803ffc00 	eorshi	pc, pc, r0, lsl #24
87806e0c:	001f7800 	andseq	r7, pc, r0, lsl #16
	...
87806e5c:	00003f00 	andeq	r3, r0, r0, lsl #30
87806e60:	c081ff00 	addgt	pc, r1, r0, lsl #30
87806e64:	c0c1c001 	sbcgt	ip, r1, r1
87806e68:	20600001 	rsbcs	r0, r0, r1
87806e6c:	20200002 	eorcs	r0, r0, r2
87806e70:	20200002 	eorcs	r0, r0, r2
87806e74:	20200002 	eorcs	r0, r0, r2
87806e78:	60200002 	eorvs	r0, r0, r2
87806e7c:	c0400002 	subgt	r0, r0, r2
87806e80:	80c10001 	sbchi	r0, r1, r1
87806e84:	008fc100 	addeq	ip, pc, r0, lsl #2
87806e88:	00fe7f00 	rscseq	r7, lr, r0, lsl #30
87806e8c:	00f01f00 	rscseq	r1, r0, r0, lsl #30
	...
87806ef0:	c0000300 	andgt	r0, r0, r0, lsl #6
87806ef4:	e0810700 	add	r0, r1, r0, lsl #14
87806ef8:	e0810700 	add	r0, r1, r0, lsl #14
87806efc:	c0000300 	andgt	r0, r0, r0, lsl #6
	...
87806f70:	66000600 	strvs	r0, [r0], -r0, lsl #12
87806f74:	78000600 	stmdavc	r0, {r9, sl}
	...
87806fe0:	00800000 	addeq	r0, r0, r0
87806fe4:	00c00100 	sbceq	r0, r0, r0, lsl #2
87806fe8:	00600300 	rsbeq	r0, r0, r0, lsl #6
87806fec:	00300600 	eorseq	r0, r0, r0, lsl #12
87806ff0:	00180c00 	andseq	r0, r8, r0, lsl #24
87806ff4:	000c1800 	andeq	r1, ip, r0, lsl #16
87806ff8:	00063000 	andeq	r3, r6, r0
87806ffc:	00036000 	andeq	r6, r3, r0
87807000:	8001c000 	andhi	ip, r1, r0
87807004:	40000001 	andmi	r0, r0, r1
87807008:	20000002 	andcs	r0, r0, r2
8780700c:	10000004 	andne	r0, r0, r4
	...
8780705c:	00100400 	andseq	r0, r0, r0, lsl #8
87807060:	00100400 	andseq	r0, r0, r0, lsl #8
87807064:	00100400 	andseq	r0, r0, r0, lsl #8
87807068:	00100400 	andseq	r0, r0, r0, lsl #8
8780706c:	00100400 	andseq	r0, r0, r0, lsl #8
87807070:	00100400 	andseq	r0, r0, r0, lsl #8
87807074:	00100400 	andseq	r0, r0, r0, lsl #8
87807078:	00100400 	andseq	r0, r0, r0, lsl #8
8780707c:	00100400 	andseq	r0, r0, r0, lsl #8
87807080:	00100400 	andseq	r0, r0, r0, lsl #8
87807084:	00100400 	andseq	r0, r0, r0, lsl #8
87807088:	00100400 	andseq	r0, r0, r0, lsl #8
8780708c:	00100400 	andseq	r0, r0, r0, lsl #8
87807090:	00100400 	andseq	r0, r0, r0, lsl #8
	...
878070e0:	10000004 	andne	r0, r0, r4
878070e4:	20000002 	andcs	r0, r0, r2
878070e8:	40000001 	andmi	r0, r0, r1
878070ec:	8001c000 	andhi	ip, r1, r0
878070f0:	00036000 	andeq	r6, r3, r0
878070f4:	00063000 	andeq	r3, r6, r0
878070f8:	000c1800 	andeq	r1, ip, r0, lsl #16
878070fc:	00180c00 	andseq	r0, r8, r0, lsl #24
87807100:	00300600 	eorseq	r0, r0, r0, lsl #12
87807104:	00600300 	rsbeq	r0, r0, r0, lsl #6
87807108:	00c00100 	sbceq	r0, r0, r0, lsl #2
8780710c:	00800000 	addeq	r0, r0, r0
	...
87807160:	00007800 	andeq	r7, r0, r0, lsl #16
87807164:	0000f801 	andeq	pc, r0, r1, lsl #16
87807168:	00003802 	andeq	r3, r0, r2, lsl #16
8780716c:	00000002 	andeq	r0, r0, r2
87807170:	c0000004 	andgt	r0, r0, r4
87807174:	e0790004 	rsbs	r0, r9, r4
87807178:	e0810004 	add	r0, r1, r4
8780717c:	c0000104 	andgt	r0, r0, r4, lsl #2
87807180:	00000304 	andeq	r0, r0, r4, lsl #6
87807184:	00000202 	andeq	r0, r0, r2, lsl #4
87807188:	00000603 	andeq	r0, r0, r3, lsl #12
8780718c:	0000fc01 	andeq	pc, r0, r1, lsl #24
87807190:	0000f800 	andeq	pc, r0, r0, lsl #16
	...
878071dc:	00f80f00 	rscseq	r0, r8, r0, lsl #30
878071e0:	00fe3f00 	rscseq	r3, lr, r0, lsl #30
878071e4:	80077000 	andhi	r7, r7, r0
878071e8:	c000c000 	andgt	ip, r0, r0
878071ec:	40f80101 	rscsmi	r0, r8, r1, lsl #2
878071f0:	20fc0703 	rscscs	r0, ip, r3, lsl #14
878071f4:	20041e02 	andcs	r1, r4, r2, lsl #28
878071f8:	20083002 	andcs	r3, r8, r2
878071fc:	20302002 	eorscs	r2, r0, r2
87807200:	20fc3f02 	rscscs	r3, ip, r2, lsl #30
87807204:	40043f01 	andmi	r3, r4, r1, lsl #30
87807208:	c00c8001 	andgt	r8, ip, r1
8780720c:	8031e000 	eorshi	lr, r1, r0
87807210:	00c21f00 	sbceq	r1, r2, r0, lsl #30
	...
87807258:	20000000 	andcs	r0, r0, r0
8780725c:	60000000 	andvs	r0, r0, r0
87807260:	e0030000 	and	r0, r3, r0
87807264:	203e0000 	eorscs	r0, lr, r0
87807268:	20e00300 	rsccs	r0, r0, r0, lsl #6
8780726c:	00203e00 	eoreq	r3, r0, r0, lsl #28
87807270:	0020e003 	eoreq	lr, r0, r3
87807274:	00208003 	eoreq	r8, r0, r3
87807278:	0020fc07 	eoreq	pc, r0, r7, lsl #24
8780727c:	00e03f00 	rsceq	r3, r0, r0, lsl #30
87807280:	20fe0300 	rscscs	r0, lr, r0, lsl #6
87807284:	e03f0000 	eors	r0, pc, r0
87807288:	e0010000 	and	r0, r1, r0
8780728c:	20000000 	andcs	r0, r0, r0
87807290:	20000000 	andcs	r0, r0, r0
	...
878072dc:	20000002 	andcs	r0, r0, r2
878072e0:	20000002 	andcs	r0, r0, r2
878072e4:	e0ffff03 	rscs	pc, pc, r3, lsl #30
878072e8:	e0ffff03 	rscs	pc, pc, r3, lsl #30
878072ec:	20000102 	andcs	r0, r0, r2, lsl #2
878072f0:	20000102 	andcs	r0, r0, r2, lsl #2
878072f4:	20000102 	andcs	r0, r0, r2, lsl #2
878072f8:	20000102 	andcs	r0, r0, r2, lsl #2
878072fc:	20000102 	andcs	r0, r0, r2, lsl #2
87807300:	20000303 	andcs	r0, r0, r3, lsl #6
87807304:	60808601 	addvs	r8, r0, r1, lsl #12
87807308:	c0c0fc01 	sbcgt	pc, r0, r1, lsl #24
8780730c:	807ff800 	rsbshi	pc, pc, r0, lsl #16
87807310:	001f0000 	andseq	r0, pc, r0
	...
8780735c:	00f80700 	rscseq	r0, r8, r0, lsl #14
87807360:	00ff3f00 	rscseq	r3, pc, r0, lsl #30
87807364:	80077000 	andhi	r7, r7, r0
87807368:	c000c000 	andgt	ip, r0, r0
8780736c:	40000001 	andmi	r0, r0, r1
87807370:	20000003 	andcs	r0, r0, r3
87807374:	20000002 	andcs	r0, r0, r2
87807378:	20000002 	andcs	r0, r0, r2
8780737c:	20000002 	andcs	r0, r0, r2
87807380:	20000002 	andcs	r0, r0, r2
87807384:	40000001 	andmi	r0, r0, r1
87807388:	c0008001 	andgt	r8, r0, r1
8780738c:	8001c003 	andhi	ip, r1, r3
87807390:	00063000 	andeq	r3, r6, r0
	...
878073dc:	20000002 	andcs	r0, r0, r2
878073e0:	20000002 	andcs	r0, r0, r2
878073e4:	e0ffff03 	rscs	pc, pc, r3, lsl #30
878073e8:	e0ffff03 	rscs	pc, pc, r3, lsl #30
878073ec:	20000002 	andcs	r0, r0, r2
878073f0:	20000002 	andcs	r0, r0, r2
878073f4:	20000002 	andcs	r0, r0, r2
878073f8:	20000002 	andcs	r0, r0, r2
878073fc:	60000003 	andvs	r0, r0, r3
87807400:	40000001 	andmi	r0, r0, r1
87807404:	c0008001 	andgt	r8, r0, r1
87807408:	8007f000 	andhi	pc, r7, r0
8780740c:	00fe7f00 	rscseq	r7, lr, r0, lsl #30
87807410:	00f80f00 	rscseq	r0, r8, r0, lsl #30
	...
8780745c:	20000002 	andcs	r0, r0, r2
87807460:	20000002 	andcs	r0, r0, r2
87807464:	e0ffff03 	rscs	pc, pc, r3, lsl #30
87807468:	e0ffff03 	rscs	pc, pc, r3, lsl #30
8780746c:	20000102 	andcs	r0, r0, r2, lsl #2
87807470:	20000102 	andcs	r0, r0, r2, lsl #2
87807474:	20000102 	andcs	r0, r0, r2, lsl #2
87807478:	20000102 	andcs	r0, r0, r2, lsl #2
8780747c:	20000102 	andcs	r0, r0, r2, lsl #2
87807480:	20800302 	addcs	r0, r0, r2, lsl #6
87807484:	20e00f02 	rsccs	r0, r0, r2, lsl #30
87807488:	60000003 	andvs	r0, r0, r3
8780748c:	e000c003 	and	ip, r0, r3
87807490:	00036000 	andeq	r6, r3, r0
	...
878074dc:	20000002 	andcs	r0, r0, r2
878074e0:	20000002 	andcs	r0, r0, r2
878074e4:	e0ffff03 	rscs	pc, pc, r3, lsl #30
878074e8:	e0ffff03 	rscs	pc, pc, r3, lsl #30
878074ec:	20000102 	andcs	r0, r0, r2, lsl #2
878074f0:	20000102 	andcs	r0, r0, r2, lsl #2
878074f4:	00000102 	andeq	r0, r0, r2, lsl #2
878074f8:	00000102 	andeq	r0, r0, r2, lsl #2
878074fc:	00000102 	andeq	r0, r0, r2, lsl #2
87807500:	00000102 	andeq	r0, r0, r2, lsl #2
87807504:	00800302 	addeq	r0, r0, r2, lsl #6
87807508:	00e00f03 	rsceq	r0, r0, r3, lsl #30
8780750c:	00000003 	andeq	r0, r0, r3
87807510:	0000c003 	andeq	ip, r0, r3
87807514:	00006000 	andeq	r6, r0, r0
	...
8780755c:	00f80700 	rscseq	r0, r8, r0, lsl #14
87807560:	00fe3f00 	rscseq	r3, lr, r0, lsl #30
87807564:	80077000 	andhi	r7, r7, r0
87807568:	c001c001 	andgt	ip, r1, r1
8780756c:	40000001 	andmi	r0, r0, r1
87807570:	20000003 	andcs	r0, r0, r3
87807574:	20000002 	andcs	r0, r0, r2
87807578:	20000002 	andcs	r0, r0, r2
8780757c:	20000002 	andcs	r0, r0, r2
87807580:	20200001 	eorcs	r0, r0, r1
87807584:	40200001 	eormi	r0, r0, r1
87807588:	803fc003 	eorshi	ip, pc, r3
8780758c:	803f3000 	eorshi	r3, pc, r0
87807590:	00200000 	eoreq	r0, r0, r0
87807594:	00200000 	eoreq	r0, r0, r0
	...
878075d8:	20000002 	andcs	r0, r0, r2
878075dc:	20000002 	andcs	r0, r0, r2
878075e0:	e0ffff03 	rscs	pc, pc, r3, lsl #30
878075e4:	e0ffff03 	rscs	pc, pc, r3, lsl #30
878075e8:	20800002 	addcs	r0, r0, r2
878075ec:	20800002 	addcs	r0, r0, r2
878075f0:	00800000 	addeq	r0, r0, r0
878075f4:	00800000 	addeq	r0, r0, r0
878075f8:	00800000 	addeq	r0, r0, r0
878075fc:	20800002 	addcs	r0, r0, r2
87807600:	20800002 	addcs	r0, r0, r2
87807604:	e0ffff03 	rscs	pc, pc, r3, lsl #30
87807608:	e0ffff03 	rscs	pc, pc, r3, lsl #30
8780760c:	20000002 	andcs	r0, r0, r2
87807610:	20000002 	andcs	r0, r0, r2
	...
87807664:	20000002 	andcs	r0, r0, r2
87807668:	20000002 	andcs	r0, r0, r2
8780766c:	20000002 	andcs	r0, r0, r2
87807670:	20000002 	andcs	r0, r0, r2
87807674:	e0ffff03 	rscs	pc, pc, r3, lsl #30
87807678:	e0ffff03 	rscs	pc, pc, r3, lsl #30
8780767c:	20000002 	andcs	r0, r0, r2
87807680:	20000002 	andcs	r0, r0, r2
87807684:	20000002 	andcs	r0, r0, r2
87807688:	20000002 	andcs	r0, r0, r2
	...
878076dc:	0e000000 	cdpeq	0, 0, cr0, cr0, cr0, {0}
878076e0:	0f000000 	svceq	0x00000000
878076e4:	0f000000 	svceq	0x00000000
878076e8:	01000000 	mrseq	r0, (UNDEF: 0)
878076ec:	01000002 	tsteq	r0, r2
878076f0:	01000002 	tsteq	r0, r2
878076f4:	03000002 	movweq	r0, #2
878076f8:	06000002 	streq	r0, [r0], -r2
878076fc:	fcffff03 	ldc2l	15, cr15, [pc], #12	@ 87807710 <asc2_3216+0x1538>
87807700:	f8ffff03 			@ <UNDEFINED> instruction: 0xf8ffff03
87807704:	00000002 	andeq	r0, r0, r2
87807708:	00000002 	andeq	r0, r0, r2
8780770c:	00000002 	andeq	r0, r0, r2
87807710:	00000002 	andeq	r0, r0, r2
	...
8780775c:	20000002 	andcs	r0, r0, r2
87807760:	20000002 	andcs	r0, r0, r2
87807764:	e0ffff03 	rscs	pc, pc, r3, lsl #30
87807768:	e0ffff03 	rscs	pc, pc, r3, lsl #30
8780776c:	20c00002 	sbccs	r0, r0, r2
87807770:	20000102 	andcs	r0, r0, r2, lsl #2
87807774:	00800700 	addeq	r0, r0, r0, lsl #14
87807778:	00e00f00 	rsceq	r0, r0, r0, lsl #30
8780777c:	00f83000 	rscseq	r3, r8, r0
87807780:	203e6002 	eorscs	r6, lr, r2
87807784:	200f8003 	andcs	r8, pc, r3
87807788:	e0030003 	and	r0, r3, r3
8780778c:	e0000002 	and	r0, r0, r2
87807790:	20000002 	andcs	r0, r0, r2
87807794:	20000000 	andcs	r0, r0, r0
	...
878077dc:	20000002 	andcs	r0, r0, r2
878077e0:	20000002 	andcs	r0, r0, r2
878077e4:	e0ffff03 	rscs	pc, pc, r3, lsl #30
878077e8:	e0ffff03 	rscs	pc, pc, r3, lsl #30
878077ec:	20000002 	andcs	r0, r0, r2
878077f0:	20000002 	andcs	r0, r0, r2
878077f4:	20000000 	andcs	r0, r0, r0
878077f8:	20000000 	andcs	r0, r0, r0
878077fc:	20000000 	andcs	r0, r0, r0
87807800:	20000000 	andcs	r0, r0, r0
87807804:	20000000 	andcs	r0, r0, r0
87807808:	60000000 	andvs	r0, r0, r0
8780780c:	e0000000 	and	r0, r0, r0
87807810:	00030000 	andeq	r0, r3, r0
	...
87807858:	20000002 	andcs	r0, r0, r2
8780785c:	20000002 	andcs	r0, r0, r2
87807860:	e0ffff03 	rscs	pc, pc, r3, lsl #30
87807864:	2000e003 	andcs	lr, r0, r3
87807868:	2000ff03 	andcs	pc, r0, r3, lsl #30
8780786c:	00f01f00 	rscseq	r1, r0, r0, lsl #30
87807870:	80ff0100 	rscshi	r0, pc, r0, lsl #2
87807874:	e00f0000 	and	r0, pc, r0
87807878:	001e0000 	andseq	r0, lr, r0
8780787c:	00e00300 	rsceq	r0, r0, r0, lsl #6
87807880:	20003e00 	andcs	r3, r0, r0, lsl #28
87807884:	2000e003 	andcs	lr, r0, r3
87807888:	e0ffff03 	rscs	pc, pc, r3, lsl #30
8780788c:	e0ffff03 	rscs	pc, pc, r3, lsl #30
87807890:	20000002 	andcs	r0, r0, r2
87807894:	20000002 	andcs	r0, r0, r2
	...
878078d8:	20000002 	andcs	r0, r0, r2
878078dc:	20000002 	andcs	r0, r0, r2
878078e0:	e0ffff03 	rscs	pc, pc, r3, lsl #30
878078e4:	20008003 	andcs	r8, r0, r3
878078e8:	2000f003 	andcs	pc, r0, r3
878078ec:	0000fc00 	andeq	pc, r0, r0, lsl #24
878078f0:	00001f00 	andeq	r1, r0, r0, lsl #30
878078f4:	00c00700 	sbceq	r0, r0, r0, lsl #14
878078f8:	00f00100 	rscseq	r0, r0, r0, lsl #2
878078fc:	007c0000 	rsbseq	r0, ip, r0
87807900:	801f0002 	andshi	r0, pc, r2
87807904:	e0070002 	and	r0, r7, r2
87807908:	e0ffff03 	rscs	pc, pc, r3, lsl #30
8780790c:	00000002 	andeq	r0, r0, r2
87807910:	00000002 	andeq	r0, r0, r2
	...
8780795c:	00f80f00 	rscseq	r0, r8, r0, lsl #30
87807960:	00fe3f00 	rscseq	r3, lr, r0, lsl #30
87807964:	8007f000 	andhi	pc, r7, r0
87807968:	c0008001 	andgt	r8, r0, r1
8780796c:	40000001 	andmi	r0, r0, r1
87807970:	20000002 	andcs	r0, r0, r2
87807974:	20000002 	andcs	r0, r0, r2
87807978:	20000002 	andcs	r0, r0, r2
8780797c:	20000002 	andcs	r0, r0, r2
87807980:	40000001 	andmi	r0, r0, r1
87807984:	c0008001 	andgt	r8, r0, r1
87807988:	8003f000 	andhi	pc, r3, r0
8780798c:	00fe3f00 	rscseq	r3, lr, r0, lsl #30
87807990:	00f80f00 	rscseq	r0, r8, r0, lsl #30
	...
878079dc:	20000002 	andcs	r0, r0, r2
878079e0:	20000002 	andcs	r0, r0, r2
878079e4:	e0ffff03 	rscs	pc, pc, r3, lsl #30
878079e8:	e0ffff03 	rscs	pc, pc, r3, lsl #30
878079ec:	20800002 	addcs	r0, r0, r2
878079f0:	20800002 	addcs	r0, r0, r2
878079f4:	00800002 	addeq	r0, r0, r2
878079f8:	00800002 	addeq	r0, r0, r2
878079fc:	00800002 	addeq	r0, r0, r2
87807a00:	00800002 	addeq	r0, r0, r2
87807a04:	00800103 	addeq	r0, r0, r3, lsl #2
87807a08:	00008301 	andeq	r8, r0, r1, lsl #6
87807a0c:	0000fe00 	andeq	pc, r0, r0, lsl #28
87807a10:	00007c00 	andeq	r7, r0, r0, lsl #24
	...
87807a5c:	00f80f00 	rscseq	r0, r8, r0, lsl #30
87807a60:	00ff7f00 	rscseq	r7, pc, r0, lsl #30
87807a64:	8003f000 	andhi	pc, r3, r0
87807a68:	c0018001 	andgt	r8, r1, r1
87807a6c:	40060001 	andmi	r0, r6, r1
87807a70:	20040002 	andcs	r0, r4, r2
87807a74:	20040002 	andcs	r0, r4, r2
87807a78:	20060002 	andcs	r0, r6, r2
87807a7c:	e0030002 	and	r0, r3, r2
87807a80:	f8000001 			@ <UNDEFINED> instruction: 0xf8000001
87807a84:	5c008001 	stcpl	0, cr8, [r0], {1}
87807a88:	8c03e000 	stchi	0, cr14, [r3], {-0}
87807a8c:	0cff3f00 	ldcleq	15, cr3, [pc]	@ 87807a94 <asc2_3216+0x18bc>
87807a90:	18fc0f00 	ldmne	ip!, {r8, r9, sl, fp}^
	...
87807adc:	20000002 	andcs	r0, r0, r2
87807ae0:	20000002 	andcs	r0, r0, r2
87807ae4:	e0ffff03 	rscs	pc, pc, r3, lsl #30
87807ae8:	e0ffff03 	rscs	pc, pc, r3, lsl #30
87807aec:	20000102 	andcs	r0, r0, r2, lsl #2
87807af0:	20000102 	andcs	r0, r0, r2, lsl #2
87807af4:	00800102 	addeq	r0, r0, r2, lsl #2
87807af8:	00e00102 	rsceq	r0, r0, r2, lsl #2
87807afc:	00fc0102 	rscseq	r0, ip, r2, lsl #2
87807b00:	803f0303 	eorshi	r0, pc, r3, lsl #6
87807b04:	e0078601 	and	r8, r7, r1, lsl #12
87807b08:	e000fc01 	and	pc, r0, r1, lsl #24
87807b0c:	2000f800 	andcs	pc, r0, r0, lsl #16
87807b10:	20000000 	andcs	r0, r0, r0
	...
87807b60:	00067800 	andeq	r7, r6, r0, lsl #16
87807b64:	e001fe00 	and	pc, r1, r0, lsl #28
87807b68:	c0008601 	andgt	r8, r0, r1, lsl #12
87807b6c:	40000303 	andmi	r0, r0, r3, lsl #6
87807b70:	20000302 	andcs	r0, r0, r2, lsl #6
87807b74:	20800102 	addcs	r0, r0, r2, lsl #2
87807b78:	20800102 	addcs	r0, r0, r2, lsl #2
87807b7c:	20c00102 	sbccs	r0, r0, r2, lsl #2
87807b80:	20c00002 	sbccs	r0, r0, r2
87807b84:	60e00001 	rscvs	r0, r0, r1
87807b88:	c0708001 	rsbsgt	r8, r0, r1
87807b8c:	803fe003 	eorshi	lr, pc, r3
87807b90:	001f0000 	andseq	r0, pc, r0
	...
87807bdc:	00006000 	andeq	r6, r0, r0
87807be0:	00008003 	andeq	r8, r0, r3
87807be4:	00000003 	andeq	r0, r0, r3
87807be8:	00000002 	andeq	r0, r0, r2
87807bec:	20000002 	andcs	r0, r0, r2
87807bf0:	20000002 	andcs	r0, r0, r2
87807bf4:	e0ffff03 	rscs	pc, pc, r3, lsl #30
87807bf8:	e0ffff03 	rscs	pc, pc, r3, lsl #30
87807bfc:	20000002 	andcs	r0, r0, r2
87807c00:	20000002 	andcs	r0, r0, r2
87807c04:	00000002 	andeq	r0, r0, r2
87807c08:	00000002 	andeq	r0, r0, r2
87807c0c:	00008003 	andeq	r8, r0, r3
87807c10:	0000e000 	andeq	lr, r0, r0
	...
87807c58:	00000002 	andeq	r0, r0, r2
87807c5c:	00000002 	andeq	r0, r0, r2
87807c60:	00ffff03 	rscseq	pc, pc, r3, lsl #30
87807c64:	c0ffff03 	rscsgt	pc, pc, r3, lsl #30
87807c68:	40000002 	andmi	r0, r0, r2
87807c6c:	60000002 	andvs	r0, r0, r2
87807c70:	20000000 	andcs	r0, r0, r0
87807c74:	20000000 	andcs	r0, r0, r0
87807c78:	20000000 	andcs	r0, r0, r0
87807c7c:	20000000 	andcs	r0, r0, r0
87807c80:	40000002 	andmi	r0, r0, r2
87807c84:	80000002 	andhi	r0, r0, r2
87807c88:	00ffff03 	rscseq	pc, pc, r3, lsl #30
87807c8c:	00000002 	andeq	r0, r0, r2
87807c90:	00000002 	andeq	r0, r0, r2
	...
87807cdc:	00000002 	andeq	r0, r0, r2
87807ce0:	00000002 	andeq	r0, r0, r2
87807ce4:	0000c003 	andeq	ip, r0, r3
87807ce8:	0000fc03 	andeq	pc, r0, r3, lsl #24
87807cec:	00c03f02 	sbceq	r3, r0, r2, lsl #30
87807cf0:	00f80300 	rscseq	r0, r8, r0, lsl #6
87807cf4:	807f0000 	rsbshi	r0, pc, r0
87807cf8:	e0070000 	and	r0, r7, r0
87807cfc:	80070000 	andhi	r0, r7, r0
87807d00:	00780000 	rsbseq	r0, r8, r0
87807d04:	00c00302 	sbceq	r0, r0, r2, lsl #6
87807d08:	00003c02 	andeq	r3, r0, r2, lsl #24
87807d0c:	0000c003 	andeq	ip, r0, r3
87807d10:	00000002 	andeq	r0, r0, r2
87807d14:	00000002 	andeq	r0, r0, r2
	...
87807d58:	00000002 	andeq	r0, r0, r2
87807d5c:	0000c003 	andeq	ip, r0, r3
87807d60:	0080ff03 	addeq	pc, r0, r3, lsl #30
87807d64:	00fe3f02 	rscseq	r3, lr, r2, lsl #30
87807d68:	e07f0002 	rsbs	r0, pc, r2
87807d6c:	000f0000 	andeq	r0, pc, r0
87807d70:	00f00002 	rscseq	r0, r0, r2
87807d74:	0000ef03 	andeq	lr, r0, r3, lsl #30
87807d78:	0080ff03 	addeq	pc, r0, r3, lsl #30
87807d7c:	00fe0f02 	rscseq	r0, lr, r2, lsl #30
87807d80:	e03f0000 	eors	r0, pc, r0
87807d84:	001f0000 	andseq	r0, pc, r0
87807d88:	00e00702 	rsceq	r0, r0, r2, lsl #14
87807d8c:	0000f803 	andeq	pc, r0, r3, lsl #16
87807d90:	00000003 	andeq	r0, r0, r3
87807d94:	00000002 	andeq	r0, r0, r2
	...
87807ddc:	20000002 	andcs	r0, r0, r2
87807de0:	20000002 	andcs	r0, r0, r2
87807de4:	e0008003 	and	r8, r0, r3
87807de8:	2003f003 	andcs	pc, r3, r3
87807dec:	200cfc02 	andcs	pc, ip, r2, lsl #24
87807df0:	00301f02 	eorseq	r1, r0, r2, lsl #30
87807df4:	00c00700 	sbceq	r0, r0, r0, lsl #14
87807df8:	00f00700 	rscseq	r0, r0, r0, lsl #14
87807dfc:	007c1802 	rsbseq	r1, ip, r2, lsl #16
87807e00:	201f6002 	andscs	r6, pc, r2
87807e04:	e0038003 	and	r8, r3, r3
87807e08:	e0000002 	and	r0, r0, r2
87807e0c:	20000002 	andcs	r0, r0, r2
87807e10:	20000000 	andcs	r0, r0, r0
	...
87807e5c:	00000002 	andeq	r0, r0, r2
87807e60:	00000003 	andeq	r0, r0, r3
87807e64:	0000c003 	andeq	ip, r0, r3
87807e68:	0000f803 	andeq	pc, r0, r3, lsl #16
87807e6c:	20003e02 	andcs	r3, r0, r2, lsl #28
87807e70:	20c00f02 	sbccs	r0, r0, r2, lsl #30
87807e74:	e0ff0100 	rscs	r0, pc, r0, lsl #2
87807e78:	e07f0000 	rsbs	r0, pc, r0
87807e7c:	20800300 	addcs	r0, r0, r0, lsl #6
87807e80:	20001c02 	andcs	r1, r0, r2, lsl #24
87807e84:	00007002 	andeq	r7, r0, r2
87807e88:	00008003 	andeq	r8, r0, r3
87807e8c:	00000002 	andeq	r0, r0, r2
87807e90:	00000002 	andeq	r0, r0, r2
	...
87807edc:	20000000 	andcs	r0, r0, r0
87807ee0:	e0006000 	and	r6, r0, r0
87807ee4:	e0038003 	and	r8, r3, r3
87807ee8:	a00f0003 	andge	r0, pc, r3
87807eec:	203e0002 	eorscs	r0, lr, r2
87807ef0:	20f80002 	rscscs	r0, r8, r2
87807ef4:	20e00302 	rsccs	r0, r0, r2, lsl #6
87807ef8:	20800f02 	addcs	r0, r0, r2, lsl #30
87807efc:	20003e02 	andcs	r3, r0, r2, lsl #28
87807f00:	20007802 	andcs	r7, r0, r2, lsl #16
87807f04:	6000e003 	andvs	lr, r0, r3
87807f08:	e0008003 	and	r8, r0, r3
87807f0c:	00030002 	andeq	r0, r3, r2
	...
87807f70:	fcffff1f 	ldc2l	15, cr15, [pc], #124	@ 87807ff4 <asc2_3216+0x1e1c>
87807f74:	04000010 	streq	r0, [r0], #-16
87807f78:	04000010 	streq	r0, [r0], #-16
87807f7c:	04000010 	streq	r0, [r0], #-16
87807f80:	04000010 	streq	r0, [r0], #-16
87807f84:	04000010 	streq	r0, [r0], #-16
87807f88:	04000010 	streq	r0, [r0], #-16
87807f8c:	04000010 	streq	r0, [r0], #-16
	...
87807fe4:	00000007 	andeq	r0, r0, r7
87807fe8:	0000c003 	andeq	ip, r0, r3
87807fec:	00007800 	andeq	r7, r0, r0, lsl #16
87807ff0:	00001e00 	andeq	r1, r0, r0, lsl #28
87807ff4:	00c00300 	sbceq	r0, r0, r0, lsl #6
87807ff8:	00f00000 	rscseq	r0, r0, r0
87807ffc:	001e0000 	andseq	r0, lr, r0
87808000:	80070000 	andhi	r0, r7, r0
87808004:	f0000000 			@ <UNDEFINED> instruction: 0xf0000000
87808008:	3c000000 	stccc	0, cr0, [r0], {-0}
8780800c:	06000000 	streq	r0, [r0], -r0
	...
87808060:	04000010 	streq	r0, [r0], #-16
87808064:	04000010 	streq	r0, [r0], #-16
87808068:	04000010 	streq	r0, [r0], #-16
8780806c:	04000010 	streq	r0, [r0], #-16
87808070:	04000010 	streq	r0, [r0], #-16
87808074:	04000010 	streq	r0, [r0], #-16
87808078:	04000010 	streq	r0, [r0], #-16
8780807c:	fcffff1f 	ldc2l	15, cr15, [pc], #124	@ 87808100 <asc2_3216+0x1f28>
	...
878080e8:	00000002 	andeq	r0, r0, r2
878080ec:	00000004 	andeq	r0, r0, r4
878080f0:	00000008 	andeq	r0, r0, r8
878080f4:	00000018 	andeq	r0, r0, r8, lsl r0
878080f8:	00000010 	andeq	r0, r0, r0, lsl r0
878080fc:	00000018 	andeq	r0, r0, r8, lsl r0
87808100:	00000018 	andeq	r0, r0, r8, lsl r0
87808104:	00000004 	andeq	r0, r0, r4
87808108:	00000002 	andeq	r0, r0, r2
	...
87808158:	01000000 	mrseq	r0, (UNDEF: 0)
8780815c:	01000000 	mrseq	r0, (UNDEF: 0)
87808160:	01000000 	mrseq	r0, (UNDEF: 0)
87808164:	01000000 	mrseq	r0, (UNDEF: 0)
87808168:	01000000 	mrseq	r0, (UNDEF: 0)
8780816c:	01000000 	mrseq	r0, (UNDEF: 0)
87808170:	01000000 	mrseq	r0, (UNDEF: 0)
87808174:	01000000 	mrseq	r0, (UNDEF: 0)
87808178:	01000000 	mrseq	r0, (UNDEF: 0)
8780817c:	01000000 	mrseq	r0, (UNDEF: 0)
87808180:	01000000 	mrseq	r0, (UNDEF: 0)
87808184:	01000000 	mrseq	r0, (UNDEF: 0)
87808188:	01000000 	mrseq	r0, (UNDEF: 0)
8780818c:	01000000 	mrseq	r0, (UNDEF: 0)
87808190:	01000000 	mrseq	r0, (UNDEF: 0)
87808194:	01000000 	mrseq	r0, (UNDEF: 0)
	...
878081e4:	00000010 	andeq	r0, r0, r0, lsl r0
878081e8:	00000010 	andeq	r0, r0, r0, lsl r0
878081ec:	00000010 	andeq	r0, r0, r0, lsl r0
878081f0:	00000018 	andeq	r0, r0, r8, lsl r0
878081f4:	00000008 	andeq	r0, r0, r8
878081f8:	00000004 	andeq	r0, r0, r4
	...
8780825c:	80030000 	andhi	r0, r3, r0
87808260:	c08f0100 	addgt	r0, pc, r0, lsl #2
87808264:	608c0300 	addvs	r0, ip, r0, lsl #6
87808268:	20180600 	andscs	r0, r8, r0, lsl #12
8780826c:	20100400 	andscs	r0, r0, r0, lsl #8
87808270:	20100400 	andscs	r0, r0, r0, lsl #8
87808274:	20200400 	eorcs	r0, r0, r0, lsl #8
87808278:	40200400 	eormi	r0, r0, r0, lsl #8
8780827c:	40200600 	eormi	r0, r0, r0, lsl #12
87808280:	c0ff0300 	rscsgt	r0, pc, r0, lsl #6
87808284:	e0ff0100 	rscs	r0, pc, r0, lsl #2
87808288:	20000000 	andcs	r0, r0, r0
8780828c:	20000000 	andcs	r0, r0, r0
87808290:	c0000000 	andgt	r0, r0, r0
	...
878082dc:	00000002 	andeq	r0, r0, r2
878082e0:	00000002 	andeq	r0, r0, r2
878082e4:	e0ffff03 	rscs	pc, pc, r3, lsl #30
878082e8:	c0ffff07 	rscsgt	pc, pc, r7, lsl #30
878082ec:	c0800100 	addgt	r0, r0, r0, lsl #2
878082f0:	60000200 	andvs	r0, r0, r0, lsl #4
878082f4:	20000200 	andcs	r0, r0, r0, lsl #4
878082f8:	20000400 	andcs	r0, r0, r0, lsl #8
878082fc:	20000400 	andcs	r0, r0, r0, lsl #8
87808300:	20000400 	andcs	r0, r0, r0, lsl #8
87808304:	40000600 	andmi	r0, r0, r0, lsl #12
87808308:	c0000300 	andgt	r0, r0, r0, lsl #6
8780830c:	80ff0100 	rscshi	r0, pc, r0, lsl #2
87808310:	00fe0000 	rscseq	r0, lr, r0
	...
87808360:	007e0000 	rsbseq	r0, lr, r0
87808364:	80ff0100 	rscshi	r0, pc, r0, lsl #2
87808368:	c0810300 	addgt	r0, r1, r0, lsl #6
8780836c:	40000200 	andmi	r0, r0, r0, lsl #4
87808370:	20000600 	andcs	r0, r0, r0, lsl #12
87808374:	20000400 	andcs	r0, r0, r0, lsl #8
87808378:	20000400 	andcs	r0, r0, r0, lsl #8
8780837c:	20000400 	andcs	r0, r0, r0, lsl #8
87808380:	20000600 	andcs	r0, r0, r0, lsl #12
87808384:	40c00300 	sbcmi	r0, r0, r0, lsl #6
87808388:	80c00100 	sbchi	r0, r0, r0, lsl #2
8780838c:	00030000 	andeq	r0, r3, r0
	...
878083e0:	007e0000 	rsbseq	r0, lr, r0
878083e4:	80ff0100 	rscshi	r0, pc, r0, lsl #2
878083e8:	c0800300 	addgt	r0, r0, r0, lsl #6
878083ec:	60000600 	andvs	r0, r0, r0, lsl #12
878083f0:	20000400 	andcs	r0, r0, r0, lsl #8
878083f4:	20000400 	andcs	r0, r0, r0, lsl #8
878083f8:	20000400 	andcs	r0, r0, r0, lsl #8
878083fc:	40000402 	andmi	r0, r0, r2, lsl #8
87808400:	80000202 	andhi	r0, r0, r2, lsl #4
87808404:	e0ffff03 	rscs	pc, pc, r3, lsl #30
87808408:	c0ffff07 	rscsgt	pc, pc, r7, lsl #30
8780840c:	40000000 	andmi	r0, r0, r0
87808410:	40000000 	andmi	r0, r0, r0
	...
87808460:	007e0000 	rsbseq	r0, lr, r0
87808464:	80ff0100 	rscshi	r0, pc, r0, lsl #2
87808468:	c0110300 	andsgt	r0, r1, r0, lsl #6
8780846c:	40100200 	andsmi	r0, r0, r0, lsl #4
87808470:	60100400 	andsvs	r0, r0, r0, lsl #8
87808474:	20100400 	andscs	r0, r0, r0, lsl #8
87808478:	20100400 	andscs	r0, r0, r0, lsl #8
8780847c:	20100400 	andscs	r0, r0, r0, lsl #8
87808480:	20100600 	andscs	r0, r0, r0, lsl #12
87808484:	40100300 	andsmi	r0, r0, r0, lsl #6
87808488:	c0f00100 	rscsgt	r0, r0, r0, lsl #2
8780848c:	00710000 	rsbseq	r0, r1, r0
	...
878084e0:	00000400 	andeq	r0, r0, r0, lsl #8
878084e4:	20000400 	andcs	r0, r0, r0, lsl #8
878084e8:	20000400 	andcs	r0, r0, r0, lsl #8
878084ec:	20000400 	andcs	r0, r0, r0, lsl #8
878084f0:	e0ff7f00 	rscs	r7, pc, r0, lsl #30
878084f4:	e0ffff01 	rscs	pc, pc, r1, lsl #30
878084f8:	20000401 	andcs	r0, r0, r1, lsl #8
878084fc:	20000403 	andcs	r0, r0, r3, lsl #8
87808500:	20000402 	andcs	r0, r0, r2, lsl #8
87808504:	20000402 	andcs	r0, r0, r2, lsl #8
87808508:	00000402 	andeq	r0, r0, r2, lsl #8
8780850c:	00000002 	andeq	r0, r0, r2
87808510:	0000c001 	andeq	ip, r0, r1
87808514:	0000c001 	andeq	ip, r0, r1
	...
87808560:	1c000000 	stcne	0, cr0, [r0], {-0}
87808564:	3ee30000 	cdpcc	0, 14, cr0, cr3, cr0, {0}
87808568:	c2ff0300 	rscsgt	r0, pc, #0, 6
8780856c:	c30c0200 	movwgt	r0, #49664	@ 0xc200
87808570:	c1040400 	tstgt	r4, r0, lsl #8
87808574:	c1040400 	tstgt	r4, r0, lsl #8
87808578:	c1040400 	tstgt	r4, r0, lsl #8
8780857c:	c1040400 	tstgt	r4, r0, lsl #8
87808580:	c10c0600 	tstgt	ip, r0, lsl #12
87808584:	c3f80300 	mvnsgt	r0, #0, 6
87808588:	62f00500 	rscsvs	r0, r0, #0, 10
8780858c:	7e000600 	cfmadd32vc	mvax0, mvfx0, mvfx0, mvfx0
87808590:	3c000600 	stccc	6, cr0, [r0], {-0}
	...
878085dc:	20000002 	andcs	r0, r0, r2
878085e0:	20000002 	andcs	r0, r0, r2
878085e4:	e0ffff03 	rscs	pc, pc, r3, lsl #30
878085e8:	e0ffff07 	rscs	pc, pc, r7, lsl #30
878085ec:	20000100 	andcs	r0, r0, r0, lsl #2
878085f0:	20000200 	andcs	r0, r0, r0, lsl #4
878085f4:	00000600 	andeq	r0, r0, r0, lsl #12
878085f8:	00000400 	andeq	r0, r0, r0, lsl #8
878085fc:	00000400 	andeq	r0, r0, r0, lsl #8
87808600:	20000400 	andcs	r0, r0, r0, lsl #8
87808604:	20000600 	andcs	r0, r0, r0, lsl #12
87808608:	e0ff0300 	rscs	r0, pc, r0, lsl #6
8780860c:	e0ff0100 	rscs	r0, pc, r0, lsl #2
87808610:	20000000 	andcs	r0, r0, r0
87808614:	20000000 	andcs	r0, r0, r0
	...
87808664:	20000400 	andcs	r0, r0, r0, lsl #8
87808668:	20000400 	andcs	r0, r0, r0, lsl #8
8780866c:	20000400 	andcs	r0, r0, r0, lsl #8
87808670:	20000400 	andcs	r0, r0, r0, lsl #8
87808674:	e0ff8703 	rscs	r8, pc, r3, lsl #14
87808678:	e0ff8f03 	rscs	r8, pc, r3, lsl #30
8780867c:	20008003 	andcs	r8, r0, r3
87808680:	20000000 	andcs	r0, r0, r0
87808684:	20000000 	andcs	r0, r0, r0
87808688:	20000000 	andcs	r0, r0, r0
	...
878086e4:	06000000 	streq	r0, [r0], -r0
878086e8:	07000000 	streq	r0, [r0, -r0]
878086ec:	01000000 	mrseq	r0, (UNDEF: 0)
878086f0:	01000000 	mrseq	r0, (UNDEF: 0)
878086f4:	01000400 	tsteq	r0, r0, lsl #8
878086f8:	01000400 	tsteq	r0, r0, lsl #8
878086fc:	03000400 	movweq	r0, #1024	@ 0x400
87808700:	06000400 	streq	r0, [r0], -r0, lsl #8
87808704:	fcff8703 	ldc2l	7, cr8, [pc], #12	@ 87808718 <asc2_3216+0x2540>
87808708:	f8ff8f03 			@ <UNDEFINED> instruction: 0xf8ff8f03
8780870c:	00008003 	andeq	r8, r0, r3
	...
8780875c:	20000002 	andcs	r0, r0, r2
87808760:	20000002 	andcs	r0, r0, r2
87808764:	e0ffff03 	rscs	pc, pc, r3, lsl #30
87808768:	e0ffff07 	rscs	pc, pc, r7, lsl #30
8780876c:	20080000 	andcs	r0, r8, r0
87808770:	20100000 	andscs	r0, r0, r0
87808774:	00300000 	eorseq	r0, r0, r0
87808778:	00fc0000 	rscseq	r0, ip, r0
8780877c:	008e0500 	addeq	r0, lr, r0, lsl #10
87808780:	a0070700 	andge	r0, r7, r0, lsl #14
87808784:	e0010600 	and	r0, r1, r0, lsl #12
87808788:	e0000400 	and	r0, r0, r0, lsl #8
8780878c:	20000400 	andcs	r0, r0, r0, lsl #8
87808790:	20000000 	andcs	r0, r0, r0
	...
878087e4:	20000002 	andcs	r0, r0, r2
878087e8:	20000002 	andcs	r0, r0, r2
878087ec:	20000002 	andcs	r0, r0, r2
878087f0:	20000002 	andcs	r0, r0, r2
878087f4:	e0ffff03 	rscs	pc, pc, r3, lsl #30
878087f8:	e0ffff07 	rscs	pc, pc, r7, lsl #30
878087fc:	20000000 	andcs	r0, r0, r0
87808800:	20000000 	andcs	r0, r0, r0
87808804:	20000000 	andcs	r0, r0, r0
87808808:	20000000 	andcs	r0, r0, r0
	...
8780885c:	20000400 	andcs	r0, r0, r0, lsl #8
87808860:	e0ff0700 	rscs	r0, pc, r0, lsl #14
87808864:	e0ff0f00 	rscs	r0, pc, r0, lsl #30
87808868:	20000200 	andcs	r0, r0, r0, lsl #4
8780886c:	00000400 	andeq	r0, r0, r0, lsl #8
87808870:	20000400 	andcs	r0, r0, r0, lsl #8
87808874:	e0ff0700 	rscs	r0, pc, r0, lsl #14
87808878:	e0ff0300 	rscs	r0, pc, r0, lsl #6
8780887c:	20000200 	andcs	r0, r0, r0, lsl #4
87808880:	00000400 	andeq	r0, r0, r0, lsl #8
87808884:	20000400 	andcs	r0, r0, r0, lsl #8
87808888:	e0ff0700 	rscs	r0, pc, r0, lsl #14
8780888c:	e0ff0300 	rscs	r0, pc, r0, lsl #6
87808890:	20000000 	andcs	r0, r0, r0
	...
878088dc:	20000400 	andcs	r0, r0, r0, lsl #8
878088e0:	20000400 	andcs	r0, r0, r0, lsl #8
878088e4:	e0ff0700 	rscs	r0, pc, r0, lsl #14
878088e8:	e0ff0f00 	rscs	r0, pc, r0, lsl #30
878088ec:	20000100 	andcs	r0, r0, r0, lsl #2
878088f0:	20000200 	andcs	r0, r0, r0, lsl #4
878088f4:	00000200 	andeq	r0, r0, r0, lsl #4
878088f8:	00000400 	andeq	r0, r0, r0, lsl #8
878088fc:	00000400 	andeq	r0, r0, r0, lsl #8
87808900:	20000400 	andcs	r0, r0, r0, lsl #8
87808904:	20000600 	andcs	r0, r0, r0, lsl #12
87808908:	e0ff0300 	rscs	r0, pc, r0, lsl #6
8780890c:	e0ff0100 	rscs	r0, pc, r0, lsl #2
87808910:	20000000 	andcs	r0, r0, r0
87808914:	20000000 	andcs	r0, r0, r0
	...
87808960:	007e0000 	rsbseq	r0, lr, r0
87808964:	80ff0000 	rscshi	r0, pc, r0
87808968:	c0810300 	addgt	r0, r1, r0, lsl #6
8780896c:	40000200 	andmi	r0, r0, r0, lsl #4
87808970:	20000600 	andcs	r0, r0, r0, lsl #12
87808974:	20000400 	andcs	r0, r0, r0, lsl #8
87808978:	20000400 	andcs	r0, r0, r0, lsl #8
8780897c:	20000400 	andcs	r0, r0, r0, lsl #8
87808980:	20000600 	andcs	r0, r0, r0, lsl #12
87808984:	40000200 	andmi	r0, r0, r0, lsl #4
87808988:	c0810300 	addgt	r0, r1, r0, lsl #6
8780898c:	80ff0100 	rscshi	r0, pc, r0, lsl #2
87808990:	007e0000 	rsbseq	r0, lr, r0
	...
878089dc:	01000400 	tsteq	r0, r0, lsl #8
878089e0:	01000400 	tsteq	r0, r0, lsl #8
878089e4:	ffff0700 			@ <UNDEFINED> instruction: 0xffff0700
878089e8:	ffff0f00 			@ <UNDEFINED> instruction: 0xffff0f00
878089ec:	c1000100 	mrsgt	r0, (UNDEF: 16)
878089f0:	41000200 	mrsmi	r0, R8_usr
878089f4:	20000400 	andcs	r0, r0, r0, lsl #8
878089f8:	20000400 	andcs	r0, r0, r0, lsl #8
878089fc:	20000400 	andcs	r0, r0, r0, lsl #8
87808a00:	20000400 	andcs	r0, r0, r0, lsl #8
87808a04:	40000600 	andmi	r0, r0, r0, lsl #12
87808a08:	c0010300 	andgt	r0, r1, r0, lsl #6
87808a0c:	80ff0100 	rscshi	r0, pc, r0, lsl #2
87808a10:	007e0000 	rsbseq	r0, lr, r0
	...
87808a60:	007e0000 	rsbseq	r0, lr, r0
87808a64:	80ff0100 	rscshi	r0, pc, r0, lsl #2
87808a68:	c0800300 	addgt	r0, r0, r0, lsl #6
87808a6c:	60000200 	andvs	r0, r0, r0, lsl #4
87808a70:	20000400 	andcs	r0, r0, r0, lsl #8
87808a74:	20000400 	andcs	r0, r0, r0, lsl #8
87808a78:	20000400 	andcs	r0, r0, r0, lsl #8
87808a7c:	20000400 	andcs	r0, r0, r0, lsl #8
87808a80:	41000200 	mrsmi	r0, R8_usr
87808a84:	c1000300 	mrsgt	r0, LR_irq
87808a88:	ffff0300 			@ <UNDEFINED> instruction: 0xffff0300
87808a8c:	ffff0700 			@ <UNDEFINED> instruction: 0xffff0700
87808a90:	01000000 	mrseq	r0, (UNDEF: 0)
87808a94:	01000000 	mrseq	r0, (UNDEF: 0)
	...
87808adc:	20000400 	andcs	r0, r0, r0, lsl #8
87808ae0:	20000400 	andcs	r0, r0, r0, lsl #8
87808ae4:	20000400 	andcs	r0, r0, r0, lsl #8
87808ae8:	20000400 	andcs	r0, r0, r0, lsl #8
87808aec:	e0ff0f00 	rscs	r0, pc, r0, lsl #30
87808af0:	e0ff0f00 	rscs	r0, pc, r0, lsl #30
87808af4:	20c00000 	sbccs	r0, r0, r0
87808af8:	20000100 	andcs	r0, r0, r0, lsl #2
87808afc:	20000200 	andcs	r0, r0, r0, lsl #4
87808b00:	20000600 	andcs	r0, r0, r0, lsl #12
87808b04:	00000400 	andeq	r0, r0, r0, lsl #8
87808b08:	00000400 	andeq	r0, r0, r0, lsl #8
87808b0c:	00000700 	andeq	r0, r0, r0, lsl #14
87808b10:	00000300 	andeq	r0, r0, r0, lsl #6
	...
87808b60:	e0030000 	and	r0, r3, r0
87808b64:	e0c00100 	sbc	r0, r0, r0, lsl #2
87808b68:	40e00300 	rscmi	r0, r0, r0, lsl #6
87808b6c:	20300600 	eorscs	r0, r0, r0, lsl #12
87808b70:	20300400 	eorscs	r0, r0, r0, lsl #8
87808b74:	20180400 	andscs	r0, r8, r0, lsl #8
87808b78:	20180400 	andscs	r0, r8, r0, lsl #8
87808b7c:	20180400 	andscs	r0, r8, r0, lsl #8
87808b80:	200c0400 	andcs	r0, ip, r0, lsl #8
87808b84:	600c0200 	andvs	r0, ip, r0, lsl #4
87808b88:	c0070300 	andgt	r0, r7, r0, lsl #6
87808b8c:	80830700 	addhi	r0, r3, r0, lsl #14
	...
87808be0:	00000400 	andeq	r0, r0, r0, lsl #8
87808be4:	00000400 	andeq	r0, r0, r0, lsl #8
87808be8:	00000400 	andeq	r0, r0, r0, lsl #8
87808bec:	00000c00 	andeq	r0, r0, r0, lsl #24
87808bf0:	80ff1f00 	rscshi	r1, pc, r0, lsl #30
87808bf4:	c0ffff00 	rscsgt	pc, pc, r0, lsl #30
87808bf8:	60000400 	andvs	r0, r0, r0, lsl #8
87808bfc:	20000400 	andcs	r0, r0, r0, lsl #8
87808c00:	20000400 	andcs	r0, r0, r0, lsl #8
87808c04:	20000400 	andcs	r0, r0, r0, lsl #8
87808c08:	40000400 	andmi	r0, r0, r0, lsl #8
87808c0c:	80010000 	andhi	r0, r1, r0
	...
87808c5c:	00000400 	andeq	r0, r0, r0, lsl #8
87808c60:	00000400 	andeq	r0, r0, r0, lsl #8
87808c64:	80ff0700 	rscshi	r0, pc, r0, lsl #14
87808c68:	c0ff0f00 	rscsgt	r0, pc, r0, lsl #30
87808c6c:	60000000 	andvs	r0, r0, r0
87808c70:	20000000 	andcs	r0, r0, r0
87808c74:	20000000 	andcs	r0, r0, r0
87808c78:	20000000 	andcs	r0, r0, r0
87808c7c:	20000000 	andcs	r0, r0, r0
87808c80:	40000400 	andmi	r0, r0, r0, lsl #8
87808c84:	80000400 	andhi	r0, r0, r0, lsl #8
87808c88:	e0ff0700 	rscs	r0, pc, r0, lsl #14
87808c8c:	c0ff0f00 	rscsgt	r0, pc, r0, lsl #30
87808c90:	40000000 	andmi	r0, r0, r0
87808c94:	40000000 	andmi	r0, r0, r0
	...
87808cdc:	00000400 	andeq	r0, r0, r0, lsl #8
87808ce0:	00000400 	andeq	r0, r0, r0, lsl #8
87808ce4:	00800700 	addeq	r0, r0, r0, lsl #14
87808ce8:	00f00700 	rscseq	r0, r0, r0, lsl #14
87808cec:	00fe0400 	rscseq	r0, lr, r0, lsl #8
87808cf0:	c01f0400 	andsgt	r0, pc, r0, lsl #8
87808cf4:	e0030000 	and	r0, r3, r0
87808cf8:	80030000 	andhi	r0, r3, r0
87808cfc:	001c0000 	andseq	r0, ip, r0
87808d00:	00600400 	rsbeq	r0, r0, r0, lsl #8
87808d04:	00800700 	addeq	r0, r0, r0, lsl #14
87808d08:	00000600 	andeq	r0, r0, r0, lsl #12
87808d0c:	00000400 	andeq	r0, r0, r0, lsl #8
	...
87808d58:	00000400 	andeq	r0, r0, r0, lsl #8
87808d5c:	00000600 	andeq	r0, r0, r0, lsl #12
87808d60:	00c00700 	sbceq	r0, r0, r0, lsl #14
87808d64:	00fc0700 	rscseq	r0, ip, r0, lsl #14
87808d68:	803f0400 	eorshi	r0, pc, r0, lsl #8
87808d6c:	e0030000 	and	r0, r3, r0
87808d70:	800f0400 	andhi	r0, pc, r0, lsl #8
87808d74:	00f00600 	rscseq	r0, r0, r0, lsl #12
87808d78:	00f00700 	rscseq	r0, r0, r0, lsl #14
87808d7c:	80ff0700 	rscshi	r0, pc, r0, lsl #14
87808d80:	e00f0400 	and	r0, pc, r0, lsl #8
87808d84:	80030000 	andhi	r0, r3, r0
87808d88:	003c0400 	eorseq	r0, ip, r0, lsl #8
87808d8c:	00c00700 	sbceq	r0, r0, r0, lsl #14
87808d90:	00000600 	andeq	r0, r0, r0, lsl #12
87808d94:	00000400 	andeq	r0, r0, r0, lsl #8
	...
87808ddc:	20000000 	andcs	r0, r0, r0
87808de0:	20000400 	andcs	r0, r0, r0, lsl #8
87808de4:	60000400 	andvs	r0, r0, r0, lsl #8
87808de8:	e0000700 	and	r0, r0, r0, lsl #14
87808dec:	20830700 	addcs	r0, r3, r0, lsl #14
87808df0:	00e60700 	rsceq	r0, r6, r0, lsl #14
87808df4:	00f80400 	rscseq	r0, r8, r0, lsl #8
87808df8:	003c0000 	eorseq	r0, ip, r0
87808dfc:	205e0400 	subscs	r0, lr, r0, lsl #8
87808e00:	a0870500 	addge	r0, r7, r0, lsl #10
87808e04:	e0010600 	and	r0, r1, r0, lsl #12
87808e08:	60000400 	andvs	r0, r0, r0, lsl #8
87808e0c:	20000400 	andcs	r0, r0, r0, lsl #8
87808e10:	20000000 	andcs	r0, r0, r0
	...
87808e5c:	00000400 	andeq	r0, r0, r0, lsl #8
87808e60:	03000400 	movweq	r0, #1024	@ 0x400
87808e64:	03000700 	movweq	r0, #1792	@ 0x700
87808e68:	01e00700 	mvneq	r0, r0, lsl #14
87808e6c:	01f80400 	mvnseq	r0, r0, lsl #8
87808e70:	021f0400 	andseq	r0, pc, #0, 8
87808e74:	fc070000 	stc2	0, cr0, [r7], {-0}
87808e78:	e0000000 	and	r0, r0, r0
87808e7c:	00070000 	andeq	r0, r7, r0
87808e80:	00380400 	eorseq	r0, r8, r0, lsl #8
87808e84:	00c00700 	sbceq	r0, r0, r0, lsl #14
87808e88:	00000600 	andeq	r0, r0, r0, lsl #12
87808e8c:	00000400 	andeq	r0, r0, r0, lsl #8
87808e90:	00000400 	andeq	r0, r0, r0, lsl #8
	...
87808ee0:	60800700 	addvs	r0, r0, r0, lsl #14
87808ee4:	e0000600 	and	r0, r0, r0, lsl #12
87808ee8:	e0030400 	and	r0, r3, r0, lsl #8
87808eec:	a0070400 	andge	r0, r7, r0, lsl #8
87808ef0:	200e0400 	andcs	r0, lr, r0, lsl #8
87808ef4:	203c0400 	eorscs	r0, ip, r0, lsl #8
87808ef8:	20700400 	rsbscs	r0, r0, r0, lsl #8
87808efc:	20e00500 	rsccs	r0, r0, r0, lsl #10
87808f00:	20800700 	addcs	r0, r0, r0, lsl #14
87808f04:	60000700 	andvs	r0, r0, r0, lsl #14
87808f08:	e0000400 	and	r0, r0, r0, lsl #8
87808f0c:	80030000 	andhi	r0, r3, r0
	...
87808f74:	00800000 	addeq	r0, r0, r0
87808f78:	00800000 	addeq	r0, r0, r0
87808f7c:	00400100 	subeq	r0, r0, r0, lsl #2
87808f80:	f83ffe07 			@ <UNDEFINED> instruction: 0xf83ffe07
87808f84:	04000008 	streq	r0, [r0], #-8
87808f88:	02000010 	andeq	r0, r0, #16
87808f8c:	02000010 	andeq	r0, r0, #16
	...
87808ff8:	ffffffff 			@ <UNDEFINED> instruction: 0xffffffff
	...
87809060:	02000010 	andeq	r0, r0, #16
87809064:	02000010 	andeq	r0, r0, #16
87809068:	04000008 	streq	r0, [r0], #-8
8780906c:	f83ffe07 			@ <UNDEFINED> instruction: 0xf83ffe07
87809070:	00400100 	subeq	r0, r0, r0, lsl #2
87809074:	00800000 	addeq	r0, r0, r0
87809078:	00800000 	addeq	r0, r0, r0
	...
878090dc:	00000018 	andeq	r0, r0, r8, lsl r0
878090e0:	00000030 	andeq	r0, r0, r0, lsr r0
878090e4:	00000040 	andeq	r0, r0, r0, asr #32
878090e8:	00000040 	andeq	r0, r0, r0, asr #32
878090ec:	00000040 	andeq	r0, r0, r0, asr #32
878090f0:	00000020 	andeq	r0, r0, r0, lsr #32
878090f4:	00000030 	andeq	r0, r0, r0, lsr r0
878090f8:	00000008 	andeq	r0, r0, r8
878090fc:	00000004 	andeq	r0, r0, r4
87809100:	00000002 	andeq	r0, r0, r2
87809104:	00000002 	andeq	r0, r0, r2
87809108:	00000002 	andeq	r0, r0, r2
8780910c:	0000000c 	andeq	r0, r0, ip
87809110:	00000018 	andeq	r0, r0, r8, lsl r0
	...

87809158 <CSWTCH.12>:
87809158:	70844342 	addvc	r4, r4, r2, asr #6
8780915c:	00007016 	andeq	r7, r0, r6, lsl r0
87809160:	10184384 	andsne	r4, r8, r4, lsl #7

87809164 <.LANCHOR0>:
87809164:	00000000 	andeq	r0, r0, r0
87809168:	003b001f 	eorseq	r0, fp, pc, lsl r0
8780916c:	0078005a 	rsbseq	r0, r8, sl, asr r0
87809170:	00b50097 	umlalseq	r0, r5, r7, r0
87809174:	00f300d4 	ldrsbteq	r0, [r3], #4
87809178:	01300111 	teqeq	r0, r1, lsl r1
8780917c:	0000014e 	andeq	r0, r0, lr, asr #2
87809180:	1f1c1f00 	svcne	0x001c1f00
87809184:	1f1e1f1e 	svcne	0x001e1f1e
87809188:	1e1f1e1f 	mrcne	14, 0, r1, cr15, cr15, {0}
8780918c:	0000001f 	andeq	r0, r0, pc, lsl r0

87809190 <CSWTCH.11>:
87809190:	42830000 	addmi	r0, r3, #0
87809194:	42033333 	andmi	r3, r3, #-872415232	@ 0xcc000000
87809198:	41833333 	orrmi	r3, r3, r3, lsr r3

8780919c <CSWTCH.13>:
8780919c:	10002000 	andne	r2, r0, r0
878091a0:	00000800 	andeq	r0, r0, r0, lsl #16
878091a4:	00000000 	andeq	r0, r0, r0

878091a8 <digits.0>:
878091a8:	33323130 	teqcc	r2, #48, 2
878091ac:	37363534 			@ <UNDEFINED> instruction: 0x37363534
878091b0:	42413938 	submi	r3, r1, #56, 18	@ 0xe0000
878091b4:	46454443 	strbmi	r4, [r5], -r3, asr #8

.ARM.exidx 區段的反組譯：

878091b8 <.ARM.exidx>:
878091b8:	7fffb5e4 	svcvc	0x00ffb5e4
878091bc:	00000001 	andeq	r0, r0, r1

.data 區段的反組譯：

878091c0 <release.0>:
878091c0:	00000001 	andeq	r0, r0, r1
878091c4:	00000000 	andeq	r0, r0, r0

878091c8 <_ctype>:
878091c8:	08080808 	stmdaeq	r8, {r3, fp}
878091cc:	08080808 	stmdaeq	r8, {r3, fp}
878091d0:	28282808 	stmdacs	r8!, {r3, fp, sp}
878091d4:	08082828 	stmdaeq	r8, {r3, r5, fp, sp}
878091d8:	08080808 	stmdaeq	r8, {r3, fp}
878091dc:	08080808 	stmdaeq	r8, {r3, fp}
878091e0:	08080808 	stmdaeq	r8, {r3, fp}
878091e4:	08080808 	stmdaeq	r8, {r3, fp}
878091e8:	101010a0 	andsne	r1, r0, r0, lsr #1
878091ec:	10101010 	andsne	r1, r0, r0, lsl r0
878091f0:	10101010 	andsne	r1, r0, r0, lsl r0
878091f4:	10101010 	andsne	r1, r0, r0, lsl r0
878091f8:	04040404 	streq	r0, [r4], #-1028	@ 0xfffffbfc
878091fc:	04040404 	streq	r0, [r4], #-1028	@ 0xfffffbfc
87809200:	10100404 	andsne	r0, r0, r4, lsl #8
87809204:	10101010 	andsne	r1, r0, r0, lsl r0
87809208:	41414110 	cmpmi	r1, r0, lsl r1
8780920c:	01414141 	cmpeq	r1, r1, asr #2
87809210:	01010101 	tsteq	r1, r1, lsl #2
87809214:	01010101 	tsteq	r1, r1, lsl #2
87809218:	01010101 	tsteq	r1, r1, lsl #2
8780921c:	01010101 	tsteq	r1, r1, lsl #2
87809220:	10010101 	andne	r0, r1, r1, lsl #2
87809224:	10101010 	andsne	r1, r0, r0, lsl r0
87809228:	42424210 	submi	r4, r2, #16, 4
8780922c:	02424242 	subeq	r4, r2, #536870916	@ 0x20000004
87809230:	02020202 	andeq	r0, r2, #536870912	@ 0x20000000
87809234:	02020202 	andeq	r0, r2, #536870912	@ 0x20000000
87809238:	02020202 	andeq	r0, r2, #536870912	@ 0x20000000
8780923c:	02020202 	andeq	r0, r2, #536870912	@ 0x20000000
87809240:	10020202 	andne	r0, r2, r2, lsl #4
87809244:	08101010 	ldmdaeq	r0, {r4, ip}
	...
87809268:	101010a0 	andsne	r1, r0, r0, lsr #1
8780926c:	10101010 	andsne	r1, r0, r0, lsl r0
87809270:	10101010 	andsne	r1, r0, r0, lsl r0
87809274:	10101010 	andsne	r1, r0, r0, lsl r0
87809278:	10101010 	andsne	r1, r0, r0, lsl r0
8780927c:	10101010 	andsne	r1, r0, r0, lsl r0
87809280:	10101010 	andsne	r1, r0, r0, lsl r0
87809284:	10101010 	andsne	r1, r0, r0, lsl r0
87809288:	01010101 	tsteq	r1, r1, lsl #2
8780928c:	01010101 	tsteq	r1, r1, lsl #2
87809290:	01010101 	tsteq	r1, r1, lsl #2
87809294:	01010101 	tsteq	r1, r1, lsl #2
87809298:	01010101 	tsteq	r1, r1, lsl #2
8780929c:	10010101 	andne	r0, r1, r1, lsl #2
878092a0:	01010101 	tsteq	r1, r1, lsl #2
878092a4:	02010101 	andeq	r0, r1, #1073741824	@ 0x40000000
878092a8:	02020202 	andeq	r0, r2, #536870912	@ 0x20000000
878092ac:	02020202 	andeq	r0, r2, #536870912	@ 0x20000000
878092b0:	02020202 	andeq	r0, r2, #536870912	@ 0x20000000
878092b4:	02020202 	andeq	r0, r2, #536870912	@ 0x20000000
878092b8:	02020202 	andeq	r0, r2, #536870912	@ 0x20000000
878092bc:	10020202 	andne	r0, r2, r2, lsl #4
878092c0:	02020202 	andeq	r0, r2, #536870912	@ 0x20000000
878092c4:	02020202 	andeq	r0, r2, #536870912	@ 0x20000000

.ARM.attributes 區段的反組譯：

00000000 <.ARM.attributes>:
   0:	00003041 	andeq	r3, r0, r1, asr #32
   4:	61656100 	cmnvs	r5, r0, lsl #2
   8:	01006962 	tsteq	r0, r2, ror #18
   c:	00000026 	andeq	r0, r0, r6, lsr #32
  10:	412d3705 			@ <UNDEFINED> instruction: 0x412d3705
  14:	070a0600 	streq	r0, [sl, -r0, lsl #12]
  18:	09010841 	stmdbeq	r1, {r0, r6, fp}
  1c:	0c050a02 			@ <UNDEFINED> instruction: 0x0c050a02
  20:	14041202 	strne	r1, [r4], #-514	@ 0xfffffdfe
  24:	17011501 	strne	r1, [r1, -r1, lsl #10]
  28:	1a011803 	bne	4603c <shift+0x4603c>
  2c:	22011c02 	andcs	r1, r1, #512	@ 0x200
  30:	Address 0x30 is out of bounds.


.comment 區段的反組譯：

00000000 <.comment>:
   0:	3a434347 	bcc	10d0d24 <shift+0x10d0d24>
   4:	4e472820 	cdpmi	8, 4, cr2, cr7, cr0, {1}
   8:	31202955 			@ <UNDEFINED> instruction: 0x31202955
   c:	2e302e34 	mrccs	14, 1, r2, cr0, cr4, {1}
  10:	30322030 	eorscc	r2, r2, r0, lsr r0
  14:	36303332 			@ <UNDEFINED> instruction: 0x36303332
  18:	28203530 	stmdacs	r0!, {r4, r5, r8, sl, ip, sp}
  1c:	65707865 	ldrbvs	r7, [r0, #-2149]!	@ 0xfffff79b
  20:	656d6972 	strbvs	r6, [sp, #-2418]!	@ 0xfffff68e
  24:	6c61746e 	cfstrdvs	mvd7, [r1], #-440	@ 0xfffffe48
  28:	6d5b2029 	ldclvs	0, cr2, [fp, #-164]	@ 0xffffff5c
  2c:	65747361 	ldrbvs	r7, [r4, #-865]!	@ 0xfffffc9f
  30:	65722072 	ldrbvs	r2, [r2, #-114]!	@ 0xffffff8e
  34:	69736976 	ldmdbvs	r3!, {r1, r2, r4, r5, r6, r8, fp, sp, lr}^
  38:	63206e6f 			@ <UNDEFINED> instruction: 0x63206e6f
  3c:	37656637 			@ <UNDEFINED> instruction: 0x37656637
  40:	31366461 	teqcc	r6, r1, ror #8
  44:	36626232 			@ <UNDEFINED> instruction: 0x36626232
  48:	31636161 	cmncc	r3, r1, ror #2
  4c:	38373064 	ldmdacc	r7!, {r2, r5, r6, ip, sp}
  50:	35313264 	ldrcc	r3, [r1, #-612]!	@ 0xfffffd9c
  54:	30373564 	eorscc	r3, r7, r4, ror #10
  58:	34636530 	strbtcc	r6, [r3], #-1328	@ 0xfffffad0
  5c:	30376665 	eorscc	r6, r7, r5, ror #12
  60:	5d633365 	stclpl	3, cr3, [r3, #-404]!	@ 0xfffffe6c
	...

.debug_frame 區段的反組譯：

00000000 <.debug_frame>:
   0:	0000000c 	andeq	r0, r0, ip
   4:	ffffffff 			@ <UNDEFINED> instruction: 0xffffffff
   8:	7c010001 	stcvc	0, cr0, [r1], {1}
   c:	000d0c0e 	andeq	r0, sp, lr, lsl #24
  10:	0000000c 	andeq	r0, r0, ip
  14:	00000000 	andeq	r0, r0, r0
  18:	878044e9 	strhi	r4, [r0, r9, ror #9]
  1c:	0000025c 	andeq	r0, r0, ip, asr r2
  20:	0000000c 	andeq	r0, r0, ip
  24:	ffffffff 			@ <UNDEFINED> instruction: 0xffffffff
  28:	7c020001 	stcvc	0, cr0, [r2], {1}
  2c:	000d0c0e 	andeq	r0, sp, lr, lsl #24
  30:	00000018 	andeq	r0, r0, r8, lsl r0
  34:	00000020 	andeq	r0, r0, r0, lsr #32
  38:	87804760 	strhi	r4, [r0, r0, ror #14]
  3c:	00000030 	andeq	r0, r0, r0, lsr r0
  40:	8e100e50 	mrchi	14, 0, r0, cr0, cr0, {2}
  44:	0ece4703 	cdpeq	7, 12, cr4, cr14, cr3, {0}
  48:	00000010 	andeq	r0, r0, r0, lsl r0
  4c:	0000000c 	andeq	r0, r0, ip
  50:	ffffffff 			@ <UNDEFINED> instruction: 0xffffffff
  54:	7c010001 	stcvc	0, cr0, [r1], {1}
  58:	000d0c0e 	andeq	r0, sp, lr, lsl #24
  5c:	00000014 	andeq	r0, r0, r4, lsl r0
  60:	0000004c 	andeq	r0, r0, ip, asr #32
  64:	87804791 			@ <UNDEFINED> instruction: 0x87804791
  68:	0000000c 	andeq	r0, r0, ip
  6c:	0e018e42 	cdpeq	14, 0, cr8, cr1, cr2, {2}
  70:	00000008 	andeq	r0, r0, r8
  74:	0000000c 	andeq	r0, r0, ip
  78:	ffffffff 			@ <UNDEFINED> instruction: 0xffffffff
  7c:	7c020001 	stcvc	0, cr0, [r2], {1}
  80:	000d0c0e 	andeq	r0, sp, lr, lsl #24
  84:	00000020 	andeq	r0, r0, r0, lsr #32
  88:	00000074 	andeq	r0, r0, r4, ror r0
  8c:	8780479c 			@ <UNDEFINED> instruction: 0x8780479c
  90:	00000102 	andeq	r0, r0, r2, lsl #2
  94:	841c0e42 	ldrhi	r0, [ip], #-3650	@ 0xfffff1be
  98:	86068507 	strhi	r8, [r6], -r7, lsl #10
  9c:	88048705 	stmdahi	r4, {r0, r2, r8, r9, sl, pc}
  a0:	8e028903 	vmlahi.f16	s16, s4, s6	@ <UNPREDICTABLE>
  a4:	00000001 	andeq	r0, r0, r1

.debug_line 區段的反組譯：

00000000 <.debug_line>:
   0:	00000065 	andeq	r0, r0, r5, rrx
   4:	00040005 	andeq	r0, r4, r5
   8:	0000002e 	andeq	r0, r0, lr, lsr #32
   c:	fb010102 	blx	4041e <shift+0x4041e>
  10:	01000d0e 	tsteq	r0, lr, lsl #26
  14:	00010101 	andeq	r0, r1, r1, lsl #2
  18:	00010000 	andeq	r0, r1, r0
  1c:	01010100 	mrseq	r0, (UNDEF: 17)
  20:	0000021f 	andeq	r0, r0, pc, lsl r2
  24:	009a0000 	addseq	r0, sl, r0
  28:	01020000 	mrseq	r0, (UNDEF: 2)
  2c:	020f021f 	andeq	r0, pc, #-268435455	@ 0xf0000001
  30:	000000f4 	strdeq	r0, [r0], -r4
  34:	0000f401 	andeq	pc, r0, r1, lsl #8
  38:	05000100 	streq	r0, [r0, #-256]	@ 0xffffff00
  3c:	8044e802 	subhi	lr, r4, r2, lsl #16
  40:	08cf0387 	stmiaeq	pc, {r0, r1, r2, r7, r8, r9}^	@ <UNPREDICTABLE>
  44:	21212101 			@ <UNDEFINED> instruction: 0x21212101
  48:	212f212f 			@ <UNDEFINED> instruction: 0x212f212f
  4c:	02910230 	addseq	r0, r1, #48, 4
  50:	21222114 			@ <UNDEFINED> instruction: 0x21222114
  54:	4c222121 	stfmis	f2, [r2], #-132	@ 0xffffff7c
  58:	1f03242f 	svcne	0x0003242f
  5c:	2f212158 	svccs	0x00212158
  60:	2f2f2f2f 	svccs	0x002f2f2f
  64:	01000102 	tsteq	r0, r2, lsl #2
  68:	00004a01 	andeq	r4, r0, r1, lsl #20
  6c:	04000500 	streq	r0, [r0], #-1280	@ 0xfffffb00
  70:	00002e00 	andeq	r2, r0, r0, lsl #28
  74:	01010200 	mrseq	r0, R9_usr
  78:	000d0efb 	strdeq	r0, [sp], -fp
  7c:	01010101 	tsteq	r1, r1, lsl #2
  80:	01000000 	mrseq	r0, (UNDEF: 0)
  84:	01010000 	mrseq	r0, (UNDEF: 1)
  88:	00021f01 	andeq	r1, r2, r1, lsl #30
  8c:	9a000000 	bls	94 <shift+0x94>
  90:	02000000 	andeq	r0, r0, #0
  94:	0f021f01 	svceq	0x00021f01
  98:	00010002 	andeq	r0, r1, r2
  9c:	01000100 	mrseq	r0, (UNDEF: 16)
  a0:	00010000 	andeq	r0, r1, r0
  a4:	47600205 	strbmi	r0, [r0, -r5, lsl #4]!
  a8:	fd038780 	stc2	7, cr8, [r3, #-512]	@ 0xfffffe00
  ac:	4cbc0101 	ldfmis	f0, [ip], #4
  b0:	0102592f 	tsteq	r2, pc, lsr #18
  b4:	4b010100 	blmi	404bc <shift+0x404bc>
  b8:	05000000 	streq	r0, [r0, #-0]
  bc:	2e000400 	cfcpyscs	mvf0, mvf0
  c0:	02000000 	andeq	r0, r0, #0
  c4:	0efb0101 	cdpeq	1, 15, cr0, cr11, cr1, {0}
  c8:	0101000d 	tsteq	r1, sp
  cc:	00000101 	andeq	r0, r0, r1, lsl #2
  d0:	00000100 	andeq	r0, r0, r0, lsl #2
  d4:	1f010101 	svcne	0x00010101
  d8:	00000002 	andeq	r0, r0, r2
  dc:	00009a00 	andeq	r9, r0, r0, lsl #20
  e0:	1f010200 	svcne	0x00010200
  e4:	f4020f02 			@ <UNDEFINED> instruction: 0xf4020f02
  e8:	01000000 	mrseq	r0, (UNDEF: 0)
  ec:	000000f4 	strdeq	r0, [r0], -r4
  f0:	02050001 	andeq	r0, r5, #1
  f4:	87804790 			@ <UNDEFINED> instruction: 0x87804790
  f8:	010bd003 	tsteq	fp, r3
  fc:	2f200903 	svccs	0x00200903
 100:	0001022f 	andeq	r0, r1, pc, lsr #4
 104:	01b80101 			@ <UNDEFINED> instruction: 0x01b80101
 108:	00030000 	andeq	r0, r3, r0
 10c:	00000095 	muleq	r0, r5, r0
 110:	0efb0102 	cdpeq	1, 15, cr0, cr11, cr2, {0}
 114:	0101000d 	tsteq	r1, sp
 118:	00000101 	andeq	r0, r0, r1, lsl #2
 11c:	00000100 	andeq	r0, r0, r0, lsl #2
 120:	6f682f01 	svcvs	0x00682f01
 124:	742f656d 	strtvc	r6, [pc], #-1389	@ 12c <shift+0x12c>
 128:	2d677763 	stclcs	7, cr7, [r7, #-396]!	@ 0xfffffe74
 12c:	6c697562 	cfstr64vs	mvdx7, [r9], #-392	@ 0xfffffe78
 130:	616c7364 	cmnvs	ip, r4, ror #6
 134:	772f6576 			@ <UNDEFINED> instruction: 0x772f6576
 138:	736b726f 	cmnvc	fp, #-268435450	@ 0xf0000006
 13c:	65636170 	strbvs	r6, [r3, #-368]!	@ 0xfffffe90
 140:	7763742f 	strbvc	r7, [r3, -pc, lsr #8]!
 144:	6e672d67 	cdpvs	13, 6, cr2, cr7, cr7, {3}
 148:	75622d75 	strbvc	r2, [r2, #-3445]!	@ 0xfffff28b
 14c:	2f646c69 	svccs	0x00646c69
 150:	70616e73 	rsbvc	r6, r1, r3, ror lr
 154:	746f6873 	strbtvc	r6, [pc], #-2163	@ 15c <shift+0x15c>
 158:	63672f73 	cmnvs	r7, #460	@ 0x1cc
 15c:	69672e63 	stmdbvs	r7!, {r0, r1, r5, r6, r9, sl, fp, sp}^
 160:	616d7e74 	smcvs	55268	@ 0xd7e4
 164:	72657473 	rsbvc	r7, r5, #1929379840	@ 0x73000000
 168:	62696c2f 	rsbvs	r6, r9, #12032	@ 0x2f00
 16c:	00636367 	rsbeq	r6, r3, r7, ror #6
 170:	2e2f2e2e 	cdpcs	14, 2, cr2, cr15, cr14, {1}
 174:	2f2e2f2e 	svccs	0x002e2f2e
 178:	00636367 	rsbeq	r6, r3, r7, ror #6
 17c:	62696c00 	rsbvs	r6, r9, #0, 24
 180:	32636367 	rsbcc	r6, r3, #-1677721599	@ 0x9c000001
 184:	0100632e 	tsteq	r0, lr, lsr #6
 188:	72610000 	rsbvc	r0, r1, #0
 18c:	73692d6d 	cmnvc	r9, #6976	@ 0x1b40
 190:	00682e61 	rsbeq	r2, r8, r1, ror #28
 194:	6c000002 	stcvs	0, cr0, [r0], {2}
 198:	63676269 	cmnvs	r7, #-1879048186	@ 0x90000006
 19c:	682e3263 	stmdavs	lr!, {r0, r1, r5, r6, r9, ip, sp}
 1a0:	00000100 	andeq	r0, r0, r0, lsl #2
 1a4:	00010500 	andeq	r0, r1, r0, lsl #10
 1a8:	479c0205 	ldrmi	r0, [ip, r5, lsl #4]
 1ac:	9f038780 	svcls	0x00038780
 1b0:	03050107 	movweq	r0, #20743	@ 0x5107
 1b4:	06010513 			@ <UNDEFINED> instruction: 0x06010513
 1b8:	03060511 	movweq	r0, #25873	@ 0x6511
 1bc:	01052e0c 	tsteq	r5, ip, lsl #28
 1c0:	05207403 	streq	r7, [r0, #-1027]!	@ 0xfffffbfd
 1c4:	03220603 			@ <UNDEFINED> instruction: 0x03220603
 1c8:	0105010a 	tsteq	r5, sl, lsl #2
 1cc:	01740306 	cmneq	r4, r6, lsl #6
 1d0:	0c030605 	stceq	6, cr0, [r3], {5}
 1d4:	030b0520 	movweq	r0, #46368	@ 0xb520
 1d8:	01052e75 	tsteq	r5, r5, ror lr
 1dc:	210b052d 	tstcs	fp, sp, lsr #10
 1e0:	0b030605 	bleq	c19fc <shift+0xc19fc>
 1e4:	0607052e 	streq	r0, [r7], -lr, lsr #10
 1e8:	060d0522 	streq	r0, [sp], -r2, lsr #10
 1ec:	06070501 	streq	r0, [r7], -r1, lsl #10
 1f0:	060d054b 	streq	r0, [sp], -fp, asr #10
 1f4:	06070501 	streq	r0, [r7], -r1, lsl #10
 1f8:	0609054c 	streq	r0, [r9], -ip, asr #10
 1fc:	06070501 	streq	r0, [r7], -r1, lsl #10
 200:	06090521 	streq	r0, [r9], -r1, lsr #10
 204:	662e3c01 	strtvs	r3, [lr], -r1, lsl #24
 208:	27060705 	strcs	r0, [r6, -r5, lsl #14]
 20c:	01060a05 	tsteq	r6, r5, lsl #20
 210:	68030b05 	stmdavs	r3, {r0, r2, r8, r9, fp}
 214:	030a053c 	movweq	r0, #42300	@ 0xa53c
 218:	04053c18 	streq	r3, [r5], #-3096	@ 0xfffff3e8
 21c:	06052206 	streq	r2, [r5], -r6, lsl #4
 220:	211f1306 	tstcs	pc, r6, lsl #6
 224:	06040565 	streq	r0, [r4], -r5, ror #10
 228:	0606052f 	streq	r0, [r6], -pc, lsr #10
 22c:	06070501 	streq	r0, [r7], -r1, lsl #10
 230:	060a0531 			@ <UNDEFINED> instruction: 0x060a0531
 234:	06040501 	streq	r0, [r4], -r1, lsl #10
 238:	06060522 	streq	r0, [r6], -r2, lsr #10
 23c:	051c2401 	ldreq	r2, [ip, #-1025]	@ 0xfffffbff
 240:	06400604 	strbeq	r0, [r0], -r4, lsl #12
 244:	240b0501 	strcs	r0, [fp], #-1281	@ 0xfffffaff
 248:	2e100520 	cfmul64cs	mvdx0, mvdx0, mvdx0
 24c:	052e0505 	streq	r0, [lr, #-1285]!	@ 0xfffffafb
 250:	053f0608 	ldreq	r0, [pc, #-1544]!	@ fffffc50 <__bss_end+0x787f5c0c>
 254:	2e061311 	mcrcs	3, 0, r1, cr6, cr1, {0}
 258:	03060405 	movweq	r0, #25605	@ 0x6405
 25c:	08052079 	stmdaeq	r5, {r0, r3, r4, r5, r6, sp}
 260:	13030514 	movwne	r0, #13588	@ 0x3514
 264:	060b0514 			@ <UNDEFINED> instruction: 0x060b0514
 268:	4d05050f 	cfstr32mi	mvfx0, [r5, #-60]	@ 0xffffffc4
 26c:	06080520 	streq	r0, [r8], -r0, lsr #10
 270:	13110521 	tstne	r1, #138412032	@ 0x8400000
 274:	04052e06 	streq	r2, [r5], #-3590	@ 0xfffff1fa
 278:	06052406 	streq	r2, [r5], -r6, lsl #8
 27c:	65210106 	strvs	r0, [r1, #-262]!	@ 0xfffffefa
 280:	2f060405 	svccs	0x00060405
 284:	01060605 	tsteq	r6, r5, lsl #12
 288:	59060405 	stmdbpl	r6, {r0, r2, sl}
 28c:	01060f05 	tsteq	r6, r5, lsl #30
 290:	90060566 	andls	r0, r6, r6, ror #10
 294:	06030520 	streq	r0, [r3], -r0, lsr #10
 298:	06060532 			@ <UNDEFINED> instruction: 0x06060532
 29c:	06050501 	streq	r0, [r5], -r1, lsl #10
 2a0:	06090521 	streq	r0, [r9], -r1, lsr #10
 2a4:	06030501 	streq	r0, [r3], -r1, lsl #10
 2a8:	0601052f 	streq	r0, [r1], -pc, lsr #10
 2ac:	030d0513 	movweq	r0, #54547	@ 0xd513
 2b0:	2f492e55 	svccs	0x00492e55
 2b4:	0607052d 	streq	r0, [r7], -sp, lsr #10
 2b8:	060d0521 	streq	r0, [sp], -r1, lsr #10
 2bc:	00030201 	andeq	r0, r3, r1, lsl #4
 2c0:	Address 0x2c0 is out of bounds.


.debug_line_str 區段的反組譯：

00000000 <.debug_line_str>:
   0:	6d6f682f 	stclvs	8, cr6, [pc, #-188]!	@ ffffff4c <__bss_end+0x787f5f08>
   4:	63742f65 	cmnvs	r4, #404	@ 0x194
   8:	622d6777 	eorvs	r6, sp, #31195136	@ 0x1dc0000
   c:	646c6975 	strbtvs	r6, [ip], #-2421	@ 0xfffff68b
  10:	76616c73 			@ <UNDEFINED> instruction: 0x76616c73
  14:	6f772f65 	svcvs	0x00772f65
  18:	70736b72 	rsbsvc	r6, r3, r2, ror fp
  1c:	2f656361 	svccs	0x00656361
  20:	67776374 			@ <UNDEFINED> instruction: 0x67776374
  24:	756e672d 	strbvc	r6, [lr, #-1837]!	@ 0xfffff8d3
  28:	6975622d 	ldmdbvs	r5!, {r0, r2, r3, r5, r9, sp, lr}^
  2c:	5f2f646c 	svcpl	0x002f646c
  30:	6c697562 	cfstr64vs	mvdx7, [r9], #-392	@ 0xfffffe78
  34:	75622f64 	strbvc	r2, [r2, #-3940]!	@ 0xfffff09c
  38:	73646c69 	cmnvc	r4, #26880	@ 0x6900
  3c:	3638782f 	ldrtcc	r7, [r8], -pc, lsr #16
  40:	2d34365f 	ldccs	6, cr3, [r4, #-380]!	@ 0xfffffe84
  44:	6c2d6370 	stcvs	3, cr6, [sp], #-448	@ 0xfffffe40
  48:	78756e69 	ldmdavc	r5!, {r0, r3, r5, r6, r9, sl, fp, sp, lr}^
  4c:	756e672d 	strbvc	r6, [lr, #-1837]!	@ 0xfffff8d3
  50:	6d72612f 	ldfvse	f6, [r2, #-188]!	@ 0xffffff44
  54:	6e696c2d 	cdpvs	12, 6, cr6, cr9, cr13, {1}
  58:	672d7875 			@ <UNDEFINED> instruction: 0x672d7875
  5c:	6165756e 	cmnvs	r5, lr, ror #10
  60:	66686962 	strbtvs	r6, [r8], -r2, ror #18
  64:	6363672f 	cmnvs	r3, #12320768	@ 0xbc0000
  68:	6363672d 	cmnvs	r3, #11796480	@ 0xb40000
  6c:	7469672e 	strbtvc	r6, [r9], #-1838	@ 0xfffff8d2
  70:	73616d7e 	cmnvc	r1, #8064	@ 0x1f80
  74:	2d726574 	cfldr64cs	mvdx6, [r2, #-464]!	@ 0xfffffe30
  78:	67617473 			@ <UNDEFINED> instruction: 0x67617473
  7c:	612f3265 			@ <UNDEFINED> instruction: 0x612f3265
  80:	6c2d6d72 	stcvs	13, cr6, [sp], #-456	@ 0xfffffe38
  84:	78756e69 	ldmdavc	r5!, {r0, r3, r5, r6, r9, sl, fp, sp, lr}^
  88:	756e672d 	strbvc	r6, [lr, #-1837]!	@ 0xfffff8d3
  8c:	69626165 	stmdbvs	r2!, {r0, r2, r5, r6, r8, sp, lr}^
  90:	6c2f6668 	stcvs	6, cr6, [pc], #-416	@ fffffef8 <__bss_end+0x787f5eb4>
  94:	63676269 	cmnvs	r7, #-1879048186	@ 0x90000006
  98:	682f0063 	stmdavs	pc!, {r0, r1, r5, r6}	@ <UNPREDICTABLE>
  9c:	2f656d6f 	svccs	0x00656d6f
  a0:	67776374 			@ <UNDEFINED> instruction: 0x67776374
  a4:	6975622d 	ldmdbvs	r5!, {r0, r2, r3, r5, r9, sp, lr}^
  a8:	6c73646c 	cfldrdvs	mvd6, [r3], #-432	@ 0xfffffe50
  ac:	2f657661 	svccs	0x00657661
  b0:	6b726f77 	blvs	1c9be94 <shift+0x1c9be94>
  b4:	63617073 	cmnvs	r1, #115	@ 0x73
  b8:	63742f65 	cmnvs	r4, #404	@ 0x194
  bc:	672d6777 			@ <UNDEFINED> instruction: 0x672d6777
  c0:	622d756e 	eorvs	r7, sp, #461373440	@ 0x1b800000
  c4:	646c6975 	strbtvs	r6, [ip], #-2421	@ 0xfffff68b
  c8:	616e732f 	cmnvs	lr, pc, lsr #6
  cc:	6f687370 	svcvs	0x00687370
  d0:	672f7374 			@ <UNDEFINED> instruction: 0x672f7374
  d4:	672e6363 	strvs	r6, [lr, -r3, ror #6]!
  d8:	6d7e7469 	cfldrdvs	mvd7, [lr, #-420]!	@ 0xfffffe5c
  dc:	65747361 	ldrbvs	r7, [r4, #-865]!	@ 0xfffffc9f
  e0:	696c2f72 	stmdbvs	ip!, {r1, r4, r5, r6, r8, r9, sl, fp, sp}^
  e4:	63636762 	cmnvs	r3, #25690112	@ 0x1880000
  e8:	6e6f632f 	cdpvs	3, 6, cr6, cr15, cr15, {1}
  ec:	2f676966 	svccs	0x00676966
  f0:	006d7261 	rsbeq	r7, sp, r1, ror #4
  f4:	3162696c 	cmncc	r2, ip, ror #18
  f8:	636e7566 	cmnvs	lr, #427819008	@ 0x19800000
  fc:	00532e73 	subseq	r2, r3, r3, ror lr
 100:	62617062 	rsbvs	r7, r1, #98	@ 0x62
 104:	00532e69 	subseq	r2, r3, r9, ror #28

.debug_info 區段的反組譯：

00000000 <.debug_info>:
   0:	0000003a 	andeq	r0, r0, sl, lsr r0
   4:	04010005 	streq	r0, [r1], #-5
   8:	00000000 	andeq	r0, r0, r0
   c:	00000001 	andeq	r0, r0, r1
  10:	8044e800 	subhi	lr, r4, r0, lsl #16
  14:	0004f687 	andeq	pc, r4, r7, lsl #13
  18:	66000000 	strvs	r0, [r0], -r0
  1c:	00000000 	andeq	r0, r0, r0
  20:	01000001 	tsteq	r0, r1
  24:	010f0280 	smlabbeq	pc, r0, r2, r0	@ <UNPREDICTABLE>
  28:	e93c0000 	ldmdb	ip!, {}	@ <UNPREDICTABLE>
  2c:	dc878044 	stcle	0, cr8, [r7], {68}	@ 0x44
  30:	01190204 	tsteq	r9, r4, lsl #4
  34:	453c0000 	ldrmi	r0, [ip, #-0]!
  38:	1a878047 	bne	fe1e015c <__bss_end+0x769d6118>
  3c:	00200003 	eoreq	r0, r0, r3
  40:	00050000 	andeq	r0, r5, r0
  44:	00280401 	eoreq	r0, r8, r1, lsl #8
  48:	69010000 	stmdbvs	r1, {}	@ <UNPREDICTABLE>
  4c:	60000000 	andvs	r0, r0, r0
  50:	30878047 	addcc	r8, r7, r7, asr #32
  54:	0000012a 	andeq	r0, r0, sl, lsr #2
  58:	00000066 	andeq	r0, r0, r6, rrx
  5c:	00000100 	andeq	r0, r0, r0, lsl #2
  60:	00388001 	eorseq	r8, r8, r1
  64:	00050000 	andeq	r0, r5, r0
  68:	003c0401 	eorseq	r0, ip, r1, lsl #8
  6c:	b7010000 	strlt	r0, [r1, -r0]
  70:	90000000 	andls	r0, r0, r0
  74:	0c878047 	stceq	0, cr8, [r7], {71}	@ 0x47
  78:	00000000 	andeq	r0, r0, r0
  7c:	00000066 	andeq	r0, r0, r6, rrx
  80:	00000100 	andeq	r0, r0, r0, lsl #2
  84:	8c028001 	stchi	0, cr8, [r2], {1}
  88:	3a000001 	bcc	94 <shift+0x94>
  8c:	87804791 			@ <UNDEFINED> instruction: 0x87804791
  90:	019a020c 	orrseq	r0, sl, ip, lsl #4
  94:	913a0000 	teqls	sl, r0
  98:	0c878047 	stceq	0, cr8, [r7], {71}	@ 0x47
  9c:	04000003 	streq	r0, [r0], #-3
  a0:	00050000 	andeq	r0, r5, r0
  a4:	00620401 	rsbeq	r0, r2, r1, lsl #8
  a8:	52080000 	andpl	r0, r8, #0
  ac:	1d000004 	stcne	0, cr0, [r0, #-16]
  b0:	00000362 	andeq	r0, r0, r2, ror #6
  b4:	00000066 	andeq	r0, r0, r6, rrx
  b8:	8780479c 			@ <UNDEFINED> instruction: 0x8780479c
  bc:	00000102 	andeq	r0, r0, r2, lsl #2
  c0:	00000106 	andeq	r0, r0, r6, lsl #2
  c4:	17070802 	strne	r0, [r7, -r2, lsl #16]
  c8:	09000004 	stmdbeq	r0, {r2}
  cc:	6e690504 	cdpvs	5, 6, cr0, cr9, cr4, {0}
  d0:	04020074 	streq	r0, [r2], #-116	@ 0xffffff8c
  d4:	00042107 	andeq	r2, r4, r7, lsl #2
  d8:	05080200 	streq	r0, [r8, #-512]	@ 0xfffffe00
  dc:	000002d0 	ldrdeq	r0, [r0], -r0	@ <UNPREDICTABLE>
  e0:	b5040802 	strlt	r0, [r4, #-2050]	@ 0xfffff7fe
  e4:	02000002 	andeq	r0, r0, #2
  e8:	03e50801 	mvneq	r0, #65536	@ 0x10000
  ec:	02020000 	andeq	r0, r2, #0
  f0:	0005d807 	andeq	sp, r5, r7, lsl #16
  f4:	07040200 	streq	r0, [r4, -r0, lsl #4]
  f8:	0000041c 	andeq	r0, r0, ip, lsl r4
  fc:	e7060102 	str	r0, [r6, -r2, lsl #2]
 100:	02000003 	andeq	r0, r0, #3
 104:	01ef0502 	mvneq	r0, r2, lsl #10
 108:	04020000 	streq	r0, [r2], #-0
 10c:	0002d505 	andeq	sp, r2, r5, lsl #10
 110:	08010200 	stmdaeq	r1, {r9}
 114:	000003ee 	andeq	r0, r0, lr, ror #7
 118:	0007190a 	andeq	r1, r7, sl, lsl #18
 11c:	34040700 	strcc	r0, [r4], #-1792	@ 0xfffff900
 120:	02000000 	andeq	r0, r0, #0
 124:	021f0617 	andseq	r0, pc, #24117248	@ 0x1700000
 128:	c6010000 	strgt	r0, [r1], -r0
 12c:	00000001 	andeq	r0, r0, r1
 130:	00069f01 	andeq	r9, r6, r1, lsl #30
 134:	ce010100 	adfgts	f0, f1, f0
 138:	02000007 	andeq	r0, r0, #7
 13c:	0002de01 	andeq	sp, r2, r1, lsl #28
 140:	48010300 	stmdami	r1, {r8, r9}
 144:	04000007 	streq	r0, [r0], #-7
 148:	00073201 	andeq	r3, r7, r1, lsl #4
 14c:	f8010500 			@ <UNDEFINED> instruction: 0xf8010500
 150:	06000007 	streq	r0, [r0], -r7
 154:	00075501 	andeq	r5, r7, r1, lsl #10
 158:	00010700 	andeq	r0, r1, r0, lsl #14
 15c:	08000004 	stmdaeq	r0, {r2}
 160:	00069001 	andeq	r9, r6, r1
 164:	c2010900 	andgt	r0, r1, #0, 18
 168:	0a000006 	beq	188 <shift+0x188>
 16c:	0006d001 	andeq	sp, r6, r1
 170:	de010b00 	vmlale.f64	d0, d1, d0
 174:	0c000006 	stceq	0, cr0, [r0], {6}
 178:	0005a801 	andeq	sl, r5, r1, lsl #16
 17c:	98010d00 	stmdals	r1, {r8, sl, fp}
 180:	0e000005 	cdpeq	0, 0, cr0, cr0, cr5, {0}
 184:	0001e201 	andeq	lr, r1, r1, lsl #4
 188:	05010f00 	streq	r0, [r1, #-3840]	@ 0xfffff100
 18c:	10000002 	andne	r0, r0, r2
 190:	00058101 	andeq	r8, r5, r1, lsl #2
 194:	98011100 	stmdals	r1, {r8, ip}
 198:	12000007 	andne	r0, r0, #7
 19c:	00070801 	andeq	r0, r7, r1, lsl #16
 1a0:	89011300 	stmdbhi	r1, {r8, r9, ip}
 1a4:	14000007 	strne	r0, [r0], #-7
 1a8:	00029401 	andeq	r9, r2, r1, lsl #8
 1ac:	3f011500 	svccc	0x00011500
 1b0:	16000002 	strne	r0, [r0], -r2
 1b4:	0001f901 	andeq	pc, r1, r1, lsl #18
 1b8:	58011700 	stmdapl	r1, {r8, r9, sl, ip}
 1bc:	18000006 	stmdane	r0, {r1, r2}
 1c0:	00027601 	andeq	r7, r2, r1, lsl #12
 1c4:	a8011900 	stmdage	r1, {r8, fp, ip}
 1c8:	1a000001 	bne	1d4 <shift+0x1d4>
 1cc:	00077b01 	andeq	r7, r7, r1, lsl #22
 1d0:	2e011b00 	vmlacs.f64	d1, d1, d0
 1d4:	1c000004 	stcne	0, cr0, [r0], {4}
 1d8:	00067001 	andeq	r7, r6, r1
 1dc:	4a011d00 	bmi	475e4 <shift+0x475e4>
 1e0:	1e000002 	cdpne	0, 0, cr0, cr0, cr2, {0}
 1e4:	0003ca01 	andeq	ip, r3, r1, lsl #20
 1e8:	ec011f00 	stc	15, cr1, [r1], {-0}
 1ec:	20000006 	andcs	r0, r0, r6
 1f0:	0006fa01 	andeq	pc, r6, r1, lsl #20
 1f4:	63012100 	movwvs	r2, #4352	@ 0x1100
 1f8:	22000007 	andcs	r0, r0, #7
 1fc:	0007a401 	andeq	sl, r7, r1, lsl #8
 200:	b2012300 	andlt	r2, r1, #0, 6
 204:	24000007 	strcs	r0, [r0], #-7
 208:	0007c001 	andeq	ip, r7, r1
 20c:	45012500 	strmi	r2, [r1, #-1280]	@ 0xfffffb00
 210:	26000004 	strcs	r0, [r0], -r4
 214:	00033501 	andeq	r3, r3, r1, lsl #10
 218:	59012700 	stmdbpl	r1, {r8, r9, sl, sp}
 21c:	28000002 	stmdacs	r0, {r1}
 220:	0003f301 	andeq	pc, r3, r1, lsl #6
 224:	12012900 	andne	r2, r1, #0, 18
 228:	2a000002 	bcs	238 <shift+0x238>
 22c:	0007de01 	andeq	sp, r7, r1, lsl #28
 230:	25012b00 	strcs	r2, [r1, #-2816]	@ 0xfffff500
 234:	2c000007 	stccs	0, cr0, [r0], {7}
 238:	0002ea01 	andeq	lr, r2, r1, lsl #20
 23c:	f9012d00 			@ <UNDEFINED> instruction: 0xf9012d00
 240:	2e000002 	cdpcs	0, 0, cr0, cr0, cr2, {0}
 244:	00030801 	andeq	r0, r3, r1, lsl #16
 248:	17012f00 	strne	r2, [r1, -r0, lsl #30]
 24c:	30000003 	andcc	r0, r0, r3
 250:	0002c101 	andeq	ip, r2, r1, lsl #2
 254:	26013100 	strcs	r3, [r1], -r0, lsl #2
 258:	32000003 	andcc	r0, r0, #3
 25c:	0006b301 	andeq	fp, r6, r1, lsl #6
 260:	44013300 	strmi	r3, [r1], #-768	@ 0xfffffd00
 264:	34000003 	strcc	r0, [r0], #-3
 268:	00035301 	andeq	r5, r3, r1, lsl #6
 26c:	d0013500 	andle	r3, r1, r0, lsl #10
 270:	36000001 	strcc	r0, [r0], -r1
 274:	0005eb01 	andeq	lr, r5, r1, lsl #22
 278:	fb013700 	blx	4de82 <shift+0x4de82>
 27c:	38000005 	stmdacc	r0, {r0, r2}
 280:	00060b01 	andeq	r0, r6, r1, lsl #22
 284:	a3013900 	movwge	r3, #6400	@ 0x1900
 288:	3a000002 	bcc	298 <shift+0x298>
 28c:	00061b01 	andeq	r1, r6, r1, lsl #22
 290:	2b013b00 	blcs	4ee98 <shift+0x4ee98>
 294:	3c000006 	stccc	0, cr0, [r0], {6}
 298:	00063b01 	andeq	r3, r6, r1, lsl #22
 29c:	69013d00 	stmdbvs	r1, {r8, sl, fp, ip, sp}
 2a0:	3e000002 	cdpcc	0, 0, cr0, cr0, cr2, {0}
 2a4:	00022201 	andeq	r2, r2, r1, lsl #4
 2a8:	bb013f00 	bllt	4feb0 <shift+0x4feb0>
 2ac:	40000003 	andmi	r0, r0, r3
 2b0:	0005c701 	andeq	ip, r5, r1, lsl #14
 2b4:	63014100 	movwvs	r4, #4352	@ 0x1100
 2b8:	42000006 	andmi	r0, r0, #6
 2bc:	02830b00 	addeq	r0, r3, #0, 22
 2c0:	02080000 	andeq	r0, r8, #0
 2c4:	4608028c 	strmi	r0, [r8], -ip, lsl #5
 2c8:	05000002 	streq	r0, [r0, #-2]
 2cc:	000003e0 	andeq	r0, r0, r0, ror #7
 2d0:	007a0291 			@ <UNDEFINED> instruction: 0x007a0291
 2d4:	05000000 	streq	r0, [r0, #-0]
 2d8:	000002b0 			@ <UNDEFINED> instruction: 0x000002b0
 2dc:	007a0292 			@ <UNDEFINED> instruction: 0x007a0292
 2e0:	00040000 	andeq	r0, r4, r0
 2e4:	00021f06 	andeq	r1, r2, r6, lsl #30
 2e8:	02460c00 	subeq	r0, r6, #0, 24
 2ec:	025b0000 	subseq	r0, fp, #0
 2f0:	340d0000 	strcc	r0, [sp], #-0
 2f4:	11000000 	mrsne	r0, (UNDEF: 0)
 2f8:	024b0600 	subeq	r0, fp, #0, 12
 2fc:	b50e0000 	strlt	r0, [lr, #-0]
 300:	02000005 	andeq	r0, r0, #5
 304:	5b260295 	blpl	980d60 <shift+0x980d60>
 308:	90000002 	andls	r0, r0, r2
 30c:	0000003e 	andeq	r0, r0, lr, lsr r0
 310:	00000041 	andeq	r0, r0, r1, asr #32
 314:	0000000c 	andeq	r0, r0, ip
 318:	00000041 	andeq	r0, r0, r1, asr #32
 31c:	00000011 	andeq	r0, r0, r1, lsl r0
 320:	00000041 	andeq	r0, r0, r1, asr #32
 324:	00000027 	andeq	r0, r0, r7, lsr #32
 328:	00000041 	andeq	r0, r0, r1, asr #32
 32c:	00000036 	andeq	r0, r0, r6, lsr r0
 330:	00000041 	andeq	r0, r0, r1, asr #32
 334:	00000003 	andeq	r0, r0, r3
 338:	00000041 	andeq	r0, r0, r1, asr #32
 33c:	00000006 	andeq	r0, r0, r6
 340:	00000041 	andeq	r0, r0, r1, asr #32
 344:	00000015 	andeq	r0, r0, r5, lsl r0
 348:	00000041 	andeq	r0, r0, r1, asr #32
 34c:	0000000f 	andeq	r0, r0, pc
 350:	00000041 	andeq	r0, r0, r1, asr #32
 354:	0000000e 	andeq	r0, r0, lr
 358:	00000041 	andeq	r0, r0, r1, asr #32
 35c:	00000026 	andeq	r0, r0, r6, lsr #32
 360:	00000041 	andeq	r0, r0, r1, asr #32
 364:	00000013 	andeq	r0, r0, r3, lsl r0
 368:	00000041 	andeq	r0, r0, r1, asr #32
 36c:	00000029 	andeq	r0, r0, r9, lsr #32
 370:	00000041 	andeq	r0, r0, r1, asr #32
 374:	00000002 	andeq	r0, r0, r2
 378:	00000041 	andeq	r0, r0, r1, asr #32
 37c:	00000019 	andeq	r0, r0, r9, lsl r0
 380:	00000041 	andeq	r0, r0, r1, asr #32
 384:	0000000a 	andeq	r0, r0, sl
 388:	00000041 	andeq	r0, r0, r1, asr #32
 38c:	0000000b 	andeq	r0, r0, fp
 390:	00000041 	andeq	r0, r0, r1, asr #32
	...
 39c:	00040f07 	andeq	r0, r4, r7, lsl #30
 3a0:	00348100 	eorseq	r8, r4, r0, lsl #2
 3a4:	90070000 	andls	r0, r7, r0
 3a8:	85000005 	strhi	r0, [r0, #-5]
 3ac:	00000026 	andeq	r0, r0, r6, lsr #32
 3b0:	c0040402 	andgt	r0, r4, r2, lsl #8
 3b4:	02000001 	andeq	r0, r0, #1
 3b8:	01b80308 			@ <UNDEFINED> instruction: 0x01b80308
 3bc:	08020000 	stmdaeq	r2, {}	@ <UNPREDICTABLE>
 3c0:	0002ba04 	andeq	fp, r2, r4, lsl #20
 3c4:	03100200 	tsteq	r0, #0, 4
 3c8:	00000681 	andeq	r0, r0, r1, lsl #13
 3cc:	00064b0f 	andeq	r4, r6, pc, lsl #22
 3d0:	039f0100 	orrseq	r0, pc, #0, 2
 3d4:	00030801 	andeq	r0, r3, r1, lsl #16
 3d8:	80479c00 	subhi	r9, r7, r0, lsl #24
 3dc:	00010287 	andeq	r0, r1, r7, lsl #5
 3e0:	fd9c0100 	ldc2	1, cr0, [ip]
 3e4:	04000003 	streq	r0, [r0], #-3
 3e8:	0817006e 	ldmdaeq	r7, {r1, r2, r3, r5, r6}
 3ec:	10000003 	andne	r0, r0, r3
 3f0:	0c000000 	stceq	0, cr0, [r0], {-0}
 3f4:	04000000 	streq	r0, [r0], #-0
 3f8:	08220064 	stmdaeq	r2!, {r2, r5, r6}
 3fc:	2c000003 	stccs	0, cr0, [r0], {3}
 400:	26000000 	strcs	r0, [r0], -r0
 404:	04000000 	streq	r0, [r0], #-0
 408:	2e007072 	mcrcs	0, 0, r7, cr0, cr2, {3}
 40c:	000003fd 	strdeq	r0, [r0], -sp
 410:	00000052 	andeq	r0, r0, r2, asr r0
 414:	0000004e 	andeq	r0, r0, lr, asr #32
 418:	a1007103 	tstge	r0, r3, lsl #2
 41c:	03080b03 	movweq	r0, #35587	@ 0x8b03
 420:	006c0000 	rsbeq	r0, ip, r0
 424:	00620000 	rsbeq	r0, r2, r0
 428:	72030000 	andvc	r0, r3, #0
 42c:	1203a100 	andne	sl, r3, #0, 2
 430:	00000308 	andeq	r0, r0, r8, lsl #6
 434:	000000bc 	strheq	r0, [r0], -ip
 438:	000000ae 	andeq	r0, r0, lr, lsr #1
 43c:	a1007903 	tstge	r0, r3, lsl #18
 440:	03081903 	movweq	r1, #35075	@ 0x8903
 444:	01110000 	tsteq	r1, r0
 448:	01090000 	mrseq	r0, (UNDEF: 9)
 44c:	6c030000 	stcvs	0, cr0, [r3], {-0}
 450:	a200317a 	andge	r3, r0, #-2147483618	@ 0x8000001e
 454:	02fe0a03 	rscseq	r0, lr, #12288	@ 0x3000
 458:	013f0000 	teqeq	pc, r0
 45c:	013d0000 	teqeq	sp, r0
 460:	6c030000 	stcvs	0, cr0, [r3], {-0}
 464:	a200327a 	andge	r3, r0, #-1610612729	@ 0xa0000007
 468:	02fe0f03 	rscseq	r0, lr, #3, 30
 46c:	01490000 	mrseq	r0, (UNDEF: 73)
 470:	01470000 	mrseq	r0, (UNDEF: 71)
 474:	69030000 	stmdbvs	r3, {}	@ <UNPREDICTABLE>
 478:	1403a200 	strne	sl, [r3], #-512	@ 0xfffffe00
 47c:	000002fe 	strdeq	r0, [r0], -lr
 480:	00000159 	andeq	r0, r0, r9, asr r1
 484:	0000014f 	andeq	r0, r0, pc, asr #2
 488:	a2006b03 	andge	r6, r0, #3072	@ 0xc00
 48c:	02fe1703 	rscseq	r1, lr, #786432	@ 0xc0000
 490:	01820000 	orreq	r0, r2, r0
 494:	01800000 	orreq	r0, r0, r0
 498:	10000000 	andne	r0, r0, r0
 49c:	00030804 	andeq	r0, r3, r4, lsl #16
	...

.debug_abbrev 區段的反組譯：

00000000 <.debug_abbrev>:
   0:	10011101 	andne	r1, r1, r1, lsl #2
   4:	12011117 	andne	r1, r1, #-1073741819	@ 0xc0000005
   8:	1b0e030f 	blne	380c4c <shift+0x380c4c>
   c:	130e250e 	movwne	r2, #58638	@ 0xe50e
  10:	02000005 	andeq	r0, r0, #5
  14:	0e03002e 	cdpeq	0, 0, cr0, cr3, cr14, {1}
  18:	1549193f 	strbne	r1, [r9, #-2367]	@ 0xfffff6c1
  1c:	0f120111 	svceq	0x00120111
  20:	3b030000 	blcc	c0028 <shift+0xc0028>
  24:	00000000 	andeq	r0, r0, r0
  28:	10001101 	andne	r1, r0, r1, lsl #2
  2c:	12011117 	andne	r1, r1, #-1073741819	@ 0xc0000005
  30:	1b0e030f 	blne	380c74 <shift+0x380c74>
  34:	130e250e 	movwne	r2, #58638	@ 0xe50e
  38:	00000005 	andeq	r0, r0, r5
  3c:	10011101 	andne	r1, r1, r1, lsl #2
  40:	12011117 	andne	r1, r1, #-1073741819	@ 0xc0000005
  44:	1b0e030f 	blne	380c88 <shift+0x380c88>
  48:	130e250e 	movwne	r2, #58638	@ 0xe50e
  4c:	02000005 	andeq	r0, r0, #5
  50:	0e03002e 	cdpeq	0, 0, cr0, cr3, cr14, {1}
  54:	01111549 	tsteq	r1, r9, asr #10
  58:	00000f12 	andeq	r0, r0, r2, lsl pc
  5c:	00003b03 	andeq	r3, r0, r3, lsl #22
  60:	28010000 	stmdacs	r1, {}	@ <UNPREDICTABLE>
  64:	1c0e0300 	stcne	3, cr0, [lr], {-0}
  68:	0200000b 	andeq	r0, r0, #11
  6c:	0b0b0024 	bleq	2c0104 <shift+0x2c0104>
  70:	0e030b3e 	vmoveq.16	d3[0], r0
  74:	34030000 	strcc	r0, [r3], #-0
  78:	3a080300 	bcc	200c80 <shift+0x200c80>
  7c:	053b0121 	ldreq	r0, [fp, #-289]!	@ 0xfffffedf
  80:	13490b39 	movtne	r0, #39737	@ 0x9b39
  84:	42b71702 	adcsmi	r1, r7, #524288	@ 0x80000
  88:	04000017 	streq	r0, [r0], #-23	@ 0xffffffe9
  8c:	08030005 	stmdaeq	r3, {r0, r2}
  90:	3b01213a 	blcc	48580 <shift+0x48580>
  94:	39079f21 	stmdbcc	r7, {r0, r5, r8, r9, sl, fp, ip, pc}
  98:	0213490b 	andseq	r4, r3, #180224	@ 0x2c000
  9c:	1742b717 	smlaldne	fp, r2, r7, r7
  a0:	0d050000 	stceq	0, cr0, [r5, #-0]
  a4:	3a0e0300 	bcc	380cac <shift+0x380cac>
  a8:	053b0221 	ldreq	r0, [fp, #-545]!	@ 0xfffffddf
  ac:	49142139 	ldmdbmi	r4, {r0, r3, r4, r5, r8, sp}
  b0:	000b3813 	andeq	r3, fp, r3, lsl r8
  b4:	00260600 	eoreq	r0, r6, r0, lsl #12
  b8:	00001349 	andeq	r1, r0, r9, asr #6
  bc:	03001607 	movweq	r1, #1543	@ 0x607
  c0:	03213a0e 			@ <UNDEFINED> instruction: 0x03213a0e
  c4:	21390b3b 	teqcs	r9, fp, lsr fp
  c8:	00134916 	andseq	r4, r3, r6, lsl r9
  cc:	01110800 	tsteq	r1, r0, lsl #16
  d0:	0b130e25 	bleq	4c396c <shift+0x4c396c>
  d4:	0e1b0e03 	cdpeq	14, 1, cr0, cr11, cr3, {0}
  d8:	06120111 			@ <UNDEFINED> instruction: 0x06120111
  dc:	00001710 	andeq	r1, r0, r0, lsl r7
  e0:	0b002409 	bleq	910c <shift+0x910c>
  e4:	030b3e0b 	movweq	r3, #48651	@ 0xbe0b
  e8:	0a000008 	beq	110 <shift+0x110>
  ec:	0e030104 	adfeqs	f0, f3, f4
  f0:	0b0b0b3e 	bleq	2c2df0 <shift+0x2c2df0>
  f4:	0b3a1349 	bleq	e84e20 <shift+0xe84e20>
  f8:	0b390b3b 	bleq	e42dec <shift+0xe42dec>
  fc:	00001301 	andeq	r1, r0, r1, lsl #6
 100:	0301130b 	movweq	r1, #4875	@ 0x130b
 104:	3a0b0b0e 	bcc	2c2d44 <shift+0x2c2d44>
 108:	39053b0b 	stmdbcc	r5, {r0, r1, r3, r8, r9, fp, ip, sp}
 10c:	0013010b 	andseq	r0, r3, fp, lsl #2
 110:	01010c00 	tsteq	r1, r0, lsl #24
 114:	13011349 	movwne	r1, #4937	@ 0x1349
 118:	210d0000 	mrscs	r0, (UNDEF: 13)
 11c:	2f134900 	svccs	0x00134900
 120:	0e00000b 	cdpeq	0, 0, cr0, cr0, cr11, {0}
 124:	0e030034 	mcreq	0, 0, r0, cr3, cr4, {1}
 128:	053b0b3a 	ldreq	r0, [fp, #-2874]!	@ 0xfffff4c6
 12c:	13490b39 	movtne	r0, #39737	@ 0x9b39
 130:	00000a1c 	andeq	r0, r0, ip, lsl sl
 134:	3f012e0f 	svccc	0x00012e0f
 138:	3a0e0319 	bcc	380da4 <shift+0x380da4>
 13c:	39053b0b 	stmdbcc	r5, {r0, r1, r3, r8, r9, fp, ip, sp}
 140:	4919270b 	ldmdbmi	r9, {r0, r1, r3, r8, r9, sl, sp}
 144:	12011113 	andne	r1, r1, #-1073741820	@ 0xc0000004
 148:	7a184006 	bvc	610168 <shift+0x610168>
 14c:	00130119 	andseq	r0, r3, r9, lsl r1
 150:	000f1000 	andeq	r1, pc, r0
 154:	13490b0b 	movtne	r0, #39691	@ 0x9b0b
 158:	Address 0x158 is out of bounds.


.debug_aranges 區段的反組譯：

00000000 <.debug_aranges>:
   0:	0000001c 	andeq	r0, r0, ip, lsl r0
   4:	00000002 	andeq	r0, r0, r2
   8:	00040000 	andeq	r0, r4, r0
   c:	00000000 	andeq	r0, r0, r0
  10:	878044e8 	strhi	r4, [r0, r8, ror #9]
  14:	00000276 	andeq	r0, r0, r6, ror r2
	...
  20:	0000001c 	andeq	r0, r0, ip, lsl r0
  24:	003e0002 	eorseq	r0, lr, r2
  28:	00040000 	andeq	r0, r4, r0
  2c:	00000000 	andeq	r0, r0, r0
  30:	87804760 	strhi	r4, [r0, r0, ror #14]
  34:	00000030 	andeq	r0, r0, r0, lsr r0
	...
  40:	0000001c 	andeq	r0, r0, ip, lsl r0
  44:	00620002 	rsbeq	r0, r2, r2
  48:	00040000 	andeq	r0, r4, r0
  4c:	00000000 	andeq	r0, r0, r0
  50:	87804790 			@ <UNDEFINED> instruction: 0x87804790
  54:	0000000c 	andeq	r0, r0, ip
	...
  60:	0000001c 	andeq	r0, r0, ip, lsl r0
  64:	009e0002 	addseq	r0, lr, r2
  68:	00040000 	andeq	r0, r4, r0
  6c:	00000000 	andeq	r0, r0, r0
  70:	8780479c 			@ <UNDEFINED> instruction: 0x8780479c
  74:	00000102 	andeq	r0, r0, r2, lsl #2
	...

.debug_str 區段的反組譯：

00000000 <.debug_str>:
   0:	6d6f682f 	stclvs	8, cr6, [pc, #-188]!	@ ffffff4c <__bss_end+0x787f5f08>
   4:	63742f65 	cmnvs	r4, #404	@ 0x194
   8:	622d6777 	eorvs	r6, sp, #31195136	@ 0x1dc0000
   c:	646c6975 	strbtvs	r6, [ip], #-2421	@ 0xfffff68b
  10:	76616c73 			@ <UNDEFINED> instruction: 0x76616c73
  14:	6f772f65 	svcvs	0x00772f65
  18:	70736b72 	rsbsvc	r6, r3, r2, ror fp
  1c:	2f656361 	svccs	0x00656361
  20:	67776374 			@ <UNDEFINED> instruction: 0x67776374
  24:	756e672d 	strbvc	r6, [lr, #-1837]!	@ 0xfffff8d3
  28:	6975622d 	ldmdbvs	r5!, {r0, r2, r3, r5, r9, sp, lr}^
  2c:	732f646c 			@ <UNDEFINED> instruction: 0x732f646c
  30:	7370616e 	cmnvc	r0, #-2147483621	@ 0x8000001b
  34:	73746f68 	cmnvc	r4, #104, 30	@ 0x1a0
  38:	6363672f 	cmnvs	r3, #12320768	@ 0xbc0000
  3c:	7469672e 	strbtvc	r6, [r9], #-1838	@ 0xfffff8d2
  40:	73616d7e 	cmnvc	r1, #8064	@ 0x1f80
  44:	2f726574 	svccs	0x00726574
  48:	6762696c 	strbvs	r6, [r2, -ip, ror #18]!
  4c:	632f6363 			@ <UNDEFINED> instruction: 0x632f6363
  50:	69666e6f 	stmdbvs	r6!, {r0, r1, r2, r3, r5, r6, r9, sl, fp, sp, lr}^
  54:	72612f67 	rsbvc	r2, r1, #412	@ 0x19c
  58:	696c2f6d 	stmdbvs	ip!, {r0, r2, r3, r5, r6, r8, r9, sl, fp, sp}^
  5c:	75663162 	strbvc	r3, [r6, #-354]!	@ 0xfffffe9e
  60:	2e73636e 	cdpcs	3, 7, cr6, cr3, cr14, {3}
  64:	682f0053 	stmdavs	pc!, {r0, r1, r4, r6}	@ <UNPREDICTABLE>
  68:	2f656d6f 	svccs	0x00656d6f
  6c:	67776374 			@ <UNDEFINED> instruction: 0x67776374
  70:	6975622d 	ldmdbvs	r5!, {r0, r2, r3, r5, r9, sp, lr}^
  74:	6c73646c 	cfldrdvs	mvd6, [r3], #-432	@ 0xfffffe50
  78:	2f657661 	svccs	0x00657661
  7c:	6b726f77 	blvs	1c9be60 <shift+0x1c9be60>
  80:	63617073 	cmnvs	r1, #115	@ 0x73
  84:	63742f65 	cmnvs	r4, #404	@ 0x194
  88:	672d6777 			@ <UNDEFINED> instruction: 0x672d6777
  8c:	622d756e 	eorvs	r7, sp, #461373440	@ 0x1b800000
  90:	646c6975 	strbtvs	r6, [ip], #-2421	@ 0xfffff68b
  94:	75625f2f 	strbvc	r5, [r2, #-3887]!	@ 0xfffff0d1
  98:	2f646c69 	svccs	0x00646c69
  9c:	6c697562 	cfstr64vs	mvdx7, [r9], #-392	@ 0xfffffe78
  a0:	782f7364 	stmdavc	pc!, {r2, r5, r6, r8, r9, ip, sp, lr}	@ <UNPREDICTABLE>
  a4:	365f3638 			@ <UNDEFINED> instruction: 0x365f3638
  a8:	63702d34 	cmnvs	r0, #52, 26	@ 0xd00
  ac:	6e696c2d 	cdpvs	12, 6, cr6, cr9, cr13, {1}
  b0:	672d7875 			@ <UNDEFINED> instruction: 0x672d7875
  b4:	612f756e 			@ <UNDEFINED> instruction: 0x612f756e
  b8:	6c2d6d72 	stcvs	13, cr6, [sp], #-456	@ 0xfffffe38
  bc:	78756e69 	ldmdavc	r5!, {r0, r3, r5, r6, r9, sl, fp, sp, lr}^
  c0:	756e672d 	strbvc	r6, [lr, #-1837]!	@ 0xfffff8d3
  c4:	69626165 	stmdbvs	r2!, {r0, r2, r5, r6, r8, sp, lr}^
  c8:	672f6668 	strvs	r6, [pc, -r8, ror #12]!
  cc:	672d6363 	strvs	r6, [sp, -r3, ror #6]!
  d0:	672e6363 	strvs	r6, [lr, -r3, ror #6]!
  d4:	6d7e7469 	cfldrdvs	mvd7, [lr, #-420]!	@ 0xfffffe5c
  d8:	65747361 	ldrbvs	r7, [r4, #-865]!	@ 0xfffffc9f
  dc:	74732d72 	ldrbtvc	r2, [r3], #-3442	@ 0xfffff28e
  e0:	32656761 	rsbcc	r6, r5, #25427968	@ 0x1840000
  e4:	6d72612f 	ldfvse	f6, [r2, #-188]!	@ 0xffffff44
  e8:	6e696c2d 	cdpvs	12, 6, cr6, cr9, cr13, {1}
  ec:	672d7875 			@ <UNDEFINED> instruction: 0x672d7875
  f0:	6165756e 	cmnvs	r5, lr, ror #10
  f4:	66686962 	strbtvs	r6, [r8], -r2, ror #18
  f8:	62696c2f 	rsbvs	r6, r9, #12032	@ 0x2f00
  fc:	00636367 	rsbeq	r6, r3, r7, ror #6
 100:	20554e47 	subscs	r4, r5, r7, asr #28
 104:	32205341 	eorcc	r5, r0, #67108865	@ 0x4000001
 108:	2e30342e 	cdpcs	4, 3, cr3, cr0, cr14, {1}
 10c:	5f003035 	svcpl	0x00003035
 110:	6964755f 	stmdbvs	r4!, {r0, r1, r2, r3, r4, r6, r8, sl, ip, sp, lr}^
 114:	33697376 	cmncc	r9, #-671088639	@ 0xd8000001
 118:	615f5f00 	cmpvs	pc, r0, lsl #30
 11c:	69626165 	stmdbvs	r2!, {r0, r2, r5, r6, r8, sp, lr}^
 120:	6469755f 	strbtvs	r7, [r9], #-1375	@ 0xfffffaa1
 124:	6f6d7669 	svcvs	0x006d7669
 128:	682f0064 	stmdavs	pc!, {r2, r5, r6}	@ <UNPREDICTABLE>
 12c:	2f656d6f 	svccs	0x00656d6f
 130:	67776374 			@ <UNDEFINED> instruction: 0x67776374
 134:	6975622d 	ldmdbvs	r5!, {r0, r2, r3, r5, r9, sp, lr}^
 138:	6c73646c 	cfldrdvs	mvd6, [r3], #-432	@ 0xfffffe50
 13c:	2f657661 	svccs	0x00657661
 140:	6b726f77 	blvs	1c9bf24 <shift+0x1c9bf24>
 144:	63617073 	cmnvs	r1, #115	@ 0x73
 148:	63742f65 	cmnvs	r4, #404	@ 0x194
 14c:	672d6777 			@ <UNDEFINED> instruction: 0x672d6777
 150:	622d756e 	eorvs	r7, sp, #461373440	@ 0x1b800000
 154:	646c6975 	strbtvs	r6, [ip], #-2421	@ 0xfffff68b
 158:	616e732f 	cmnvs	lr, pc, lsr #6
 15c:	6f687370 	svcvs	0x00687370
 160:	672f7374 			@ <UNDEFINED> instruction: 0x672f7374
 164:	672e6363 	strvs	r6, [lr, -r3, ror #6]!
 168:	6d7e7469 	cfldrdvs	mvd7, [lr, #-420]!	@ 0xfffffe5c
 16c:	65747361 	ldrbvs	r7, [r4, #-865]!	@ 0xfffffc9f
 170:	696c2f72 	stmdbvs	ip!, {r1, r4, r5, r6, r8, r9, sl, fp, sp}^
 174:	63636762 	cmnvs	r3, #25690112	@ 0x1880000
 178:	6e6f632f 	cdpvs	3, 6, cr6, cr15, cr15, {1}
 17c:	2f676966 	svccs	0x00676966
 180:	2f6d7261 	svccs	0x006d7261
 184:	62617062 	rsbvs	r7, r1, #98	@ 0x62
 188:	00532e69 	subseq	r2, r3, r9, ror #28
 18c:	65615f5f 	strbvs	r5, [r1, #-3935]!	@ 0xfffff0a1
 190:	5f696261 	svcpl	0x00696261
 194:	7669646c 	strbtvc	r6, [r9], -ip, ror #8
 198:	5f5f0030 	svcpl	0x005f0030
 19c:	62616561 	rsbvs	r6, r1, #406847488	@ 0x18400000
 1a0:	64695f69 	strbtvs	r5, [r9], #-3945	@ 0xfffff097
 1a4:	00307669 	eorseq	r7, r0, r9, ror #12
 1a8:	5f617369 	svcpl	0x00617369
 1ac:	5f746962 	svcpl	0x00746962
 1b0:	64657270 	strbtvs	r7, [r5], #-624	@ 0xfffffd90
 1b4:	00736572 	rsbseq	r6, r3, r2, ror r5
 1b8:	706d6f63 	rsbvc	r6, sp, r3, ror #30
 1bc:	2078656c 	rsbscs	r6, r8, ip, ror #10
 1c0:	616f6c66 	cmnvs	pc, r6, ror #24
 1c4:	73690074 	cmnvc	r9, #116	@ 0x74
 1c8:	6f6e5f61 	svcvs	0x006e5f61
 1cc:	00746962 	rsbseq	r6, r4, r2, ror #18
 1d0:	5f617369 	svcpl	0x00617369
 1d4:	5f746962 	svcpl	0x00746962
 1d8:	5f65766d 	svcpl	0x0065766d
 1dc:	616f6c66 	cmnvs	pc, r6, ror #24
 1e0:	73690074 	cmnvc	r9, #116	@ 0x74
 1e4:	69625f61 	stmdbvs	r2!, {r0, r5, r6, r8, r9, sl, fp, ip, lr}^
 1e8:	70665f74 	rsbvc	r5, r6, r4, ror pc
 1ec:	73003631 	movwvc	r3, #1585	@ 0x631
 1f0:	74726f68 	ldrbtvc	r6, [r2], #-3944	@ 0xfffff098
 1f4:	746e6920 	strbtvc	r6, [lr], #-2336	@ 0xfffff6e0
 1f8:	61736900 	cmnvs	r3, r0, lsl #18
 1fc:	7469625f 	strbtvc	r6, [r9], #-607	@ 0xfffffda1
 200:	6365735f 	cmnvs	r5, #2080374785	@ 0x7c000001
 204:	61736900 	cmnvs	r3, r0, lsl #18
 208:	7469625f 	strbtvc	r6, [r9], #-607	@ 0xfffffda1
 20c:	6964615f 	stmdbvs	r4!, {r0, r1, r2, r3, r4, r6, r8, sp, lr}^
 210:	73690076 	cmnvc	r9, #118	@ 0x76
 214:	69625f61 	stmdbvs	r2!, {r0, r5, r6, r8, r9, sl, fp, ip, lr}^
 218:	77695f74 			@ <UNDEFINED> instruction: 0x77695f74
 21c:	74786d6d 	ldrbtvc	r6, [r8], #-3437	@ 0xfffff293
 220:	73690032 	cmnvc	r9, #50	@ 0x32
 224:	69625f61 	stmdbvs	r2!, {r0, r5, r6, r8, r9, sl, fp, ip, lr}^
 228:	75715f74 	ldrbvc	r5, [r1, #-3956]!	@ 0xfffff08c
 22c:	5f6b7269 	svcpl	0x006b7269
 230:	765f6f6e 	ldrbvc	r6, [pc], -lr, ror #30
 234:	74616c6f 	strbtvc	r6, [r1], #-3183	@ 0xfffff391
 238:	5f656c69 	svcpl	0x00656c69
 23c:	69006563 	stmdbvs	r0, {r0, r1, r5, r6, r8, sl, sp, lr}
 240:	625f6173 	subsvs	r6, pc, #-1073741796	@ 0xc000001c
 244:	6d5f7469 	cfldrdvs	mvd7, [pc, #-420]	@ a8 <shift+0xa8>
 248:	73690070 	cmnvc	r9, #112	@ 0x70
 24c:	69625f61 	stmdbvs	r2!, {r0, r5, r6, r8, r9, sl, fp, ip, lr}^
 250:	72615f74 	rsbvc	r5, r1, #116, 30	@ 0x1d0
 254:	7435766d 	ldrtvc	r7, [r5], #-1645	@ 0xfffff993
 258:	61736900 	cmnvs	r3, r0, lsl #18
 25c:	7469625f 	strbtvc	r6, [r9], #-607	@ 0xfffffda1
 260:	6d72615f 	ldfvse	f6, [r2, #-380]!	@ 0xfffffe84
 264:	65743576 	ldrbvs	r3, [r4, #-1398]!	@ 0xfffffa8a
 268:	61736900 	cmnvs	r3, r0, lsl #18
 26c:	7469625f 	strbtvc	r6, [r9], #-607	@ 0xfffffda1
 270:	6f656e5f 	svcvs	0x00656e5f
 274:	7369006e 	cmnvc	r9, #110	@ 0x6e
 278:	69625f61 	stmdbvs	r2!, {r0, r5, r6, r8, r9, sl, fp, ip, lr}^
 27c:	66625f74 	uqsub16vs	r5, r2, r4
 280:	66003631 			@ <UNDEFINED> instruction: 0x66003631
 284:	5f746962 	svcpl	0x00746962
 288:	6c706d69 	ldclvs	13, cr6, [r0], #-420	@ 0xfffffe5c
 28c:	74616369 	strbtvc	r6, [r1], #-873	@ 0xfffffc97
 290:	006e6f69 	rsbeq	r6, lr, r9, ror #30
 294:	5f617369 	svcpl	0x00617369
 298:	5f746962 	svcpl	0x00746962
 29c:	70797263 	rsbsvc	r7, r9, r3, ror #4
 2a0:	69006f74 	stmdbvs	r0, {r2, r4, r5, r6, r8, r9, sl, fp, sp, lr}
 2a4:	625f6173 	subsvs	r6, pc, #-1073741796	@ 0xc000001c
 2a8:	745f7469 	ldrbvc	r7, [pc], #-1129	@ 2b0 <shift+0x2b0>
 2ac:	00766964 	rsbseq	r6, r6, r4, ror #18
 2b0:	736e6f63 	cmnvc	lr, #396	@ 0x18c
 2b4:	6e6f6c00 	cdpvs	12, 6, cr6, cr15, cr0, {0}
 2b8:	6f642067 	svcvs	0x00642067
 2bc:	656c6275 	strbvs	r6, [ip, #-629]!	@ 0xfffffd8b
 2c0:	61736900 	cmnvs	r3, r0, lsl #18
 2c4:	7469625f 	strbtvc	r6, [r9], #-607	@ 0xfffffda1
 2c8:	6d77695f 			@ <UNDEFINED> instruction: 0x6d77695f
 2cc:	0074786d 	rsbseq	r7, r4, sp, ror #16
 2d0:	676e6f6c 	strbvs	r6, [lr, -ip, ror #30]!
 2d4:	6e6f6c20 	cdpvs	12, 6, cr6, cr15, cr0, {1}
 2d8:	6e692067 	cdpvs	0, 6, cr2, cr9, cr7, {3}
 2dc:	73690074 	cmnvc	r9, #116	@ 0x74
 2e0:	69625f61 	stmdbvs	r2!, {r0, r5, r6, r8, r9, sl, fp, ip, lr}^
 2e4:	766d5f74 	uqsub16vc	r5, sp, r4
 2e8:	73690065 	cmnvc	r9, #101	@ 0x65
 2ec:	69625f61 	stmdbvs	r2!, {r0, r5, r6, r8, r9, sl, fp, ip, lr}^
 2f0:	64635f74 	strbtvs	r5, [r3], #-3956	@ 0xfffff08c
 2f4:	30706365 	rsbscc	r6, r0, r5, ror #6
 2f8:	61736900 	cmnvs	r3, r0, lsl #18
 2fc:	7469625f 	strbtvc	r6, [r9], #-607	@ 0xfffffda1
 300:	6564635f 	strbvs	r6, [r4, #-863]!	@ 0xfffffca1
 304:	00317063 	eorseq	r7, r1, r3, rrx
 308:	5f617369 	svcpl	0x00617369
 30c:	5f746962 	svcpl	0x00746962
 310:	63656463 	cmnvs	r5, #1660944384	@ 0x63000000
 314:	69003270 	stmdbvs	r0, {r4, r5, r6, r9, ip, sp}
 318:	625f6173 	subsvs	r6, pc, #-1073741796	@ 0xc000001c
 31c:	635f7469 	cmpvs	pc, #1761607680	@ 0x69000000
 320:	70636564 	rsbvc	r6, r3, r4, ror #10
 324:	73690033 	cmnvc	r9, #51	@ 0x33
 328:	69625f61 	stmdbvs	r2!, {r0, r5, r6, r8, r9, sl, fp, ip, lr}^
 32c:	64635f74 	strbtvs	r5, [r3], #-3956	@ 0xfffff08c
 330:	34706365 	ldrbtcc	r6, [r0], #-869	@ 0xfffffc9b
 334:	61736900 	cmnvs	r3, r0, lsl #18
 338:	7469625f 	strbtvc	r6, [r9], #-607	@ 0xfffffda1
 33c:	5f70665f 	svcpl	0x0070665f
 340:	006c6264 	rsbeq	r6, ip, r4, ror #4
 344:	5f617369 	svcpl	0x00617369
 348:	5f746962 	svcpl	0x00746962
 34c:	63656463 	cmnvs	r5, #1660944384	@ 0x63000000
 350:	69003670 	stmdbvs	r0, {r4, r5, r6, r9, sl, ip, sp}
 354:	625f6173 	subsvs	r6, pc, #-1073741796	@ 0xc000001c
 358:	635f7469 	cmpvs	pc, #1761607680	@ 0x69000000
 35c:	70636564 	rsbvc	r6, r3, r4, ror #10
 360:	682f0037 	stmdavs	pc!, {r0, r1, r2, r4, r5}	@ <UNPREDICTABLE>
 364:	2f656d6f 	svccs	0x00656d6f
 368:	67776374 			@ <UNDEFINED> instruction: 0x67776374
 36c:	6975622d 	ldmdbvs	r5!, {r0, r2, r3, r5, r9, sp, lr}^
 370:	6c73646c 	cfldrdvs	mvd6, [r3], #-432	@ 0xfffffe50
 374:	2f657661 	svccs	0x00657661
 378:	6b726f77 	blvs	1c9c15c <shift+0x1c9c15c>
 37c:	63617073 	cmnvs	r1, #115	@ 0x73
 380:	63742f65 	cmnvs	r4, #404	@ 0x194
 384:	672d6777 			@ <UNDEFINED> instruction: 0x672d6777
 388:	622d756e 	eorvs	r7, sp, #461373440	@ 0x1b800000
 38c:	646c6975 	strbtvs	r6, [ip], #-2421	@ 0xfffff68b
 390:	616e732f 	cmnvs	lr, pc, lsr #6
 394:	6f687370 	svcvs	0x00687370
 398:	672f7374 			@ <UNDEFINED> instruction: 0x672f7374
 39c:	672e6363 	strvs	r6, [lr, -r3, ror #6]!
 3a0:	6d7e7469 	cfldrdvs	mvd7, [lr, #-420]!	@ 0xfffffe5c
 3a4:	65747361 	ldrbvs	r7, [r4, #-865]!	@ 0xfffffc9f
 3a8:	696c2f72 	stmdbvs	ip!, {r1, r4, r5, r6, r8, r9, sl, fp, sp}^
 3ac:	63636762 	cmnvs	r3, #25690112	@ 0x1880000
 3b0:	62696c2f 	rsbvs	r6, r9, #12032	@ 0x2f00
 3b4:	32636367 	rsbcc	r6, r3, #-1677721599	@ 0x9c000001
 3b8:	6900632e 	stmdbvs	r0, {r1, r2, r3, r5, r8, r9, sp, lr}
 3bc:	625f6173 	subsvs	r6, pc, #-1073741796	@ 0xc000001c
 3c0:	615f7469 	cmpvs	pc, r9, ror #8
 3c4:	36766d72 			@ <UNDEFINED> instruction: 0x36766d72
 3c8:	7369006b 	cmnvc	r9, #107	@ 0x6b
 3cc:	69625f61 	stmdbvs	r2!, {r0, r5, r6, r8, r9, sl, fp, ip, lr}^
 3d0:	72615f74 	rsbvc	r5, r1, #116, 30	@ 0x1d0
 3d4:	5f38766d 	svcpl	0x0038766d
 3d8:	6d5f6d31 	ldclvs	13, cr6, [pc, #-196]	@ 31c <shift+0x31c>
 3dc:	006e6961 	rsbeq	r6, lr, r1, ror #18
 3e0:	65746e61 	ldrbvs	r6, [r4, #-3681]!	@ 0xfffff19f
 3e4:	736e7500 	cmnvc	lr, #0, 10
 3e8:	656e6769 	strbvs	r6, [lr, #-1897]!	@ 0xfffff897
 3ec:	68632064 	stmdavs	r3!, {r2, r5, r6, sp}^
 3f0:	69007261 	stmdbvs	r0, {r0, r5, r6, r9, ip, sp, lr}
 3f4:	625f6173 	subsvs	r6, pc, #-1073741796	@ 0xc000001c
 3f8:	665f7469 	ldrbvs	r7, [pc], -r9, ror #8
 3fc:	00357670 	eorseq	r7, r5, r0, ror r6
 400:	5f617369 	svcpl	0x00617369
 404:	5f746962 	svcpl	0x00746962
 408:	61637378 	smcvs	14136	@ 0x3738
 40c:	5500656c 	strpl	r6, [r0, #-1388]	@ 0xfffffa94
 410:	79744953 	ldmdbvc	r4!, {r0, r1, r4, r6, r8, fp, lr}^
 414:	6c006570 	cfstr32vs	mvfx6, [r0], {112}	@ 0x70
 418:	20676e6f 	rsbcs	r6, r7, pc, ror #28
 41c:	676e6f6c 	strbvs	r6, [lr, -ip, ror #30]!
 420:	736e7520 	cmnvc	lr, #32, 10	@ 0x8000000
 424:	656e6769 	strbvs	r6, [lr, #-1897]!	@ 0xfffff897
 428:	6e692064 	cdpvs	0, 6, cr2, cr9, cr4, {3}
 42c:	73690074 	cmnvc	r9, #116	@ 0x74
 430:	69625f61 	stmdbvs	r2!, {r0, r5, r6, r8, r9, sl, fp, ip, lr}^
 434:	75715f74 	ldrbvc	r5, [r1, #-3956]!	@ 0xfffff08c
 438:	5f6b7269 	svcpl	0x006b7269
 43c:	5f336d63 	svcpl	0x00336d63
 440:	6472646c 	ldrbtvs	r6, [r2], #-1132	@ 0xfffffb94
 444:	61736900 	cmnvs	r3, r0, lsl #18
 448:	7469625f 	strbtvc	r6, [r9], #-607	@ 0xfffffda1
 44c:	6d38695f 			@ <UNDEFINED> instruction: 0x6d38695f
 450:	4e47006d 	cdpmi	0, 4, cr0, cr7, cr13, {3}
 454:	31432055 	qdaddcc	r2, r5, r3
 458:	34312037 	ldrtcc	r2, [r1], #-55	@ 0xffffffc9
 45c:	302e302e 	eorcc	r3, lr, lr, lsr #32
 460:	32303220 	eorscc	r3, r0, #32, 4
 464:	30363033 	eorscc	r3, r6, r3, lsr r0
 468:	65282035 	strvs	r2, [r8, #-53]!	@ 0xffffffcb
 46c:	72657078 	rsbvc	r7, r5, #120	@ 0x78
 470:	6e656d69 	cdpvs	13, 6, cr6, cr5, cr9, {3}
 474:	296c6174 	stmdbcs	ip!, {r2, r4, r5, r6, r8, sp, lr}^
 478:	616d5b20 	cmnvs	sp, r0, lsr #22
 47c:	72657473 	rsbvc	r7, r5, #1929379840	@ 0x73000000
 480:	76657220 	strbtvc	r7, [r5], -r0, lsr #4
 484:	6f697369 	svcvs	0x00697369
 488:	3763206e 	strbcc	r2, [r3, -lr, rrx]!
 48c:	61376566 	teqvs	r7, r6, ror #10
 490:	32313664 	eorscc	r3, r1, #100, 12	@ 0x6400000
 494:	61366262 	teqvs	r6, r2, ror #4
 498:	64316361 	ldrtvs	r6, [r1], #-865	@ 0xfffffc9f
 49c:	64383730 	ldrtvs	r3, [r8], #-1840	@ 0xfffff8d0
 4a0:	64353132 	ldrtvs	r3, [r5], #-306	@ 0xfffffece
 4a4:	30303735 	eorscc	r3, r0, r5, lsr r7
 4a8:	65346365 	ldrvs	r6, [r4, #-869]!	@ 0xfffffc9b
 4ac:	65303766 	ldrvs	r3, [r0, #-1894]!	@ 0xfffff89a
 4b0:	205d6333 	subscs	r6, sp, r3, lsr r3
 4b4:	75746d2d 	ldrbvc	r6, [r4, #-3373]!	@ 0xfffff2d3
 4b8:	633d656e 	teqvs	sp, #461373440	@ 0x1b800000
 4bc:	6574726f 	ldrbvs	r7, [r4, #-623]!	@ 0xfffffd91
 4c0:	39612d78 	stmdbcc	r1!, {r3, r4, r5, r6, r8, sl, fp, sp}^
 4c4:	666d2d20 	strbtvs	r2, [sp], -r0, lsr #26
 4c8:	74616f6c 	strbtvc	r6, [r1], #-3948	@ 0xfffff094
 4cc:	6962612d 	stmdbvs	r2!, {r0, r2, r3, r5, r8, sp, lr}^
 4d0:	7261683d 	rsbvc	r6, r1, #3997696	@ 0x3d0000
 4d4:	6d2d2064 	stcvs	0, cr2, [sp, #-400]!	@ 0xfffffe70
 4d8:	3d757066 	ldclcc	0, cr7, [r5, #-408]!	@ 0xfffffe68
 4dc:	76706676 			@ <UNDEFINED> instruction: 0x76706676
 4e0:	31642d33 	cmncc	r4, r3, lsr sp
 4e4:	6d2d2036 	stcvs	0, cr2, [sp, #-216]!	@ 0xffffff28
 4e8:	2d736c74 	ldclcs	12, cr6, [r3, #-464]!	@ 0xfffffe30
 4ec:	6c616964 			@ <UNDEFINED> instruction: 0x6c616964
 4f0:	3d746365 	ldclcc	3, cr6, [r4, #-404]!	@ 0xfffffe6c
 4f4:	20756e67 	rsbscs	r6, r5, r7, ror #28
 4f8:	68746d2d 	ldmdavs	r4!, {r0, r2, r3, r5, r8, sl, fp, sp, lr}^
 4fc:	20626d75 	rsbcs	r6, r2, r5, ror sp
 500:	72616d2d 	rsbvc	r6, r1, #2880	@ 0xb40
 504:	613d6863 	teqvs	sp, r3, ror #16
 508:	37766d72 			@ <UNDEFINED> instruction: 0x37766d72
 50c:	662b612d 	strtvs	r6, [fp], -sp, lsr #2
 510:	672d2070 			@ <UNDEFINED> instruction: 0x672d2070
 514:	20672d20 	rsbcs	r2, r7, r0, lsr #26
 518:	2d20672d 	stccs	7, cr6, [r0, #-180]!	@ 0xffffff4c
 51c:	2d20324f 	sfmcs	f3, 4, [r0, #-316]!	@ 0xfffffec4
 520:	2d20324f 	sfmcs	f3, 4, [r0, #-316]!	@ 0xfffffec4
 524:	2d20324f 	sfmcs	f3, 4, [r0, #-316]!	@ 0xfffffec4
 528:	69756266 	ldmdbvs	r5!, {r1, r2, r5, r6, r9, sp, lr}^
 52c:	6e69646c 	cdpvs	4, 6, cr6, cr9, cr12, {3}
 530:	696c2d67 	stmdbvs	ip!, {r0, r1, r2, r5, r6, r8, sl, fp, sp}^
 534:	63636762 	cmnvs	r3, #25690112	@ 0x1880000
 538:	6e662d20 	cdpvs	13, 6, cr2, cr6, cr0, {1}
 53c:	74732d6f 	ldrbtvc	r2, [r3], #-3439	@ 0xfffff291
 540:	2d6b6361 	stclcs	3, cr6, [fp, #-388]!	@ 0xfffffe7c
 544:	746f7270 	strbtvc	r7, [pc], #-624	@ 54c <shift+0x54c>
 548:	6f746365 	svcvs	0x00746365
 54c:	662d2072 			@ <UNDEFINED> instruction: 0x662d2072
 550:	20434950 	subcs	r4, r3, r0, asr r9
 554:	6f6e662d 	svcvs	0x006e662d
 558:	6c6e692d 			@ <UNDEFINED> instruction: 0x6c6e692d
 55c:	20656e69 	rsbcs	r6, r5, r9, ror #28
 560:	7865662d 	stmdavc	r5!, {r0, r2, r3, r5, r9, sl, sp, lr}^
 564:	74706563 	ldrbtvc	r6, [r0], #-1379	@ 0xfffffa9d
 568:	736e6f69 	cmnvc	lr, #420	@ 0x1a4
 56c:	76662d20 	strbtvc	r2, [r6], -r0, lsr #26
 570:	62697369 	rsbvs	r7, r9, #-1543503871	@ 0xa4000001
 574:	74696c69 	strbtvc	r6, [r9], #-3177	@ 0xfffff397
 578:	69683d79 	stmdbvs	r8!, {r0, r3, r4, r5, r6, r8, sl, fp, ip, sp}^
 57c:	6e656464 	cdpvs	4, 6, cr6, cr5, cr4, {3}
 580:	61736900 	cmnvs	r3, r0, lsl #18
 584:	7469625f 	strbtvc	r6, [r9], #-607	@ 0xfffffda1
 588:	5f70665f 	svcpl	0x0070665f
 58c:	00323364 	eorseq	r3, r2, r4, ror #6
 590:	74494455 	strbvc	r4, [r9], #-1109	@ 0xfffffbab
 594:	00657079 	rsbeq	r7, r5, r9, ror r0
 598:	5f617369 	svcpl	0x00617369
 59c:	5f746962 	svcpl	0x00746962
 5a0:	766d7261 	strbtvc	r7, [sp], -r1, ror #4
 5a4:	006d6537 	rsbeq	r6, sp, r7, lsr r5
 5a8:	5f617369 	svcpl	0x00617369
 5ac:	5f746962 	svcpl	0x00746962
 5b0:	6561706c 	strbvs	r7, [r1, #-108]!	@ 0xffffff94
 5b4:	6c6c6100 	stfvse	f6, [ip], #-0
 5b8:	706d695f 	rsbvc	r6, sp, pc, asr r9
 5bc:	6465696c 	strbtvs	r6, [r5], #-2412	@ 0xfffff694
 5c0:	6962665f 	stmdbvs	r2!, {r0, r1, r2, r3, r4, r6, r9, sl, sp, lr}^
 5c4:	69007374 	stmdbvs	r0, {r2, r4, r5, r6, r8, r9, ip, sp, lr}
 5c8:	625f6173 	subsvs	r6, pc, #-1073741796	@ 0xc000001c
 5cc:	765f7469 	ldrbvc	r7, [pc], -r9, ror #8
 5d0:	625f7066 	subsvs	r7, pc, #102	@ 0x66
 5d4:	00657361 	rsbeq	r7, r5, r1, ror #6
 5d8:	726f6873 	rsbvc	r6, pc, #7536640	@ 0x730000
 5dc:	6e752074 	mrcvs	0, 3, r2, cr5, cr4, {3}
 5e0:	6e676973 			@ <UNDEFINED> instruction: 0x6e676973
 5e4:	69206465 	stmdbvs	r0!, {r0, r2, r5, r6, sl, sp, lr}
 5e8:	6900746e 	stmdbvs	r0, {r1, r2, r3, r5, r6, sl, ip, sp, lr}
 5ec:	625f6173 	subsvs	r6, pc, #-1073741796	@ 0xc000001c
 5f0:	615f7469 	cmpvs	pc, r9, ror #8
 5f4:	38766d72 	ldmdacc	r6!, {r1, r4, r5, r6, r8, sl, fp, sp, lr}^
 5f8:	6900315f 	stmdbvs	r0, {r0, r1, r2, r3, r4, r6, r8, ip, sp}
 5fc:	625f6173 	subsvs	r6, pc, #-1073741796	@ 0xc000001c
 600:	615f7469 	cmpvs	pc, r9, ror #8
 604:	38766d72 	ldmdacc	r6!, {r1, r4, r5, r6, r8, sl, fp, sp, lr}^
 608:	6900325f 	stmdbvs	r0, {r0, r1, r2, r3, r4, r6, r9, ip, sp}
 60c:	625f6173 	subsvs	r6, pc, #-1073741796	@ 0xc000001c
 610:	615f7469 	cmpvs	pc, r9, ror #8
 614:	38766d72 	ldmdacc	r6!, {r1, r4, r5, r6, r8, sl, fp, sp, lr}^
 618:	6900335f 	stmdbvs	r0, {r0, r1, r2, r3, r4, r6, r8, r9, ip, sp}
 61c:	625f6173 	subsvs	r6, pc, #-1073741796	@ 0xc000001c
 620:	615f7469 	cmpvs	pc, r9, ror #8
 624:	38766d72 	ldmdacc	r6!, {r1, r4, r5, r6, r8, sl, fp, sp, lr}^
 628:	6900345f 	stmdbvs	r0, {r0, r1, r2, r3, r4, r6, sl, ip, sp}
 62c:	625f6173 	subsvs	r6, pc, #-1073741796	@ 0xc000001c
 630:	615f7469 	cmpvs	pc, r9, ror #8
 634:	38766d72 	ldmdacc	r6!, {r1, r4, r5, r6, r8, sl, fp, sp, lr}^
 638:	6900355f 	stmdbvs	r0, {r0, r1, r2, r3, r4, r6, r8, sl, ip, sp}
 63c:	625f6173 	subsvs	r6, pc, #-1073741796	@ 0xc000001c
 640:	615f7469 	cmpvs	pc, r9, ror #8
 644:	38766d72 	ldmdacc	r6!, {r1, r4, r5, r6, r8, sl, fp, sp, lr}^
 648:	5f00365f 	svcpl	0x0000365f
 64c:	6964755f 	stmdbvs	r4!, {r0, r1, r2, r3, r4, r6, r8, sl, ip, sp, lr}^
 650:	646f6d76 	strbtvs	r6, [pc], #-3446	@ 658 <shift+0x658>
 654:	00346964 	eorseq	r6, r4, r4, ror #18
 658:	5f617369 	svcpl	0x00617369
 65c:	5f746962 	svcpl	0x00746962
 660:	69006273 	stmdbvs	r0, {r0, r1, r4, r5, r6, r9, sp, lr}
 664:	6e5f6173 	mrcvs	1, 2, r6, cr15, cr3, {3}
 668:	625f6d75 	subsvs	r6, pc, #7488	@ 0x1d40
 66c:	00737469 	rsbseq	r7, r3, r9, ror #8
 670:	5f617369 	svcpl	0x00617369
 674:	5f746962 	svcpl	0x00746962
 678:	6c616d73 	stclvs	13, cr6, [r1], #-460	@ 0xfffffe34
 67c:	6c756d6c 	ldclvs	13, cr6, [r5], #-432	@ 0xfffffe50
 680:	6d6f6300 	stclvs	3, cr6, [pc, #-0]	@ 688 <shift+0x688>
 684:	78656c70 	stmdavc	r5!, {r4, r5, r6, sl, fp, sp, lr}^
 688:	756f6420 	strbvc	r6, [pc, #-1056]!	@ 270 <shift+0x270>
 68c:	00656c62 	rsbeq	r6, r5, r2, ror #24
 690:	5f617369 	svcpl	0x00617369
 694:	5f746962 	svcpl	0x00746962
 698:	62636170 	rsbvs	r6, r3, #112, 2
 69c:	69006974 	stmdbvs	r0, {r2, r4, r5, r6, r8, fp, sp, lr}
 6a0:	625f6173 	subsvs	r6, pc, #-1073741796	@ 0xc000001c
 6a4:	715f7469 	cmpvc	pc, r9, ror #8
 6a8:	6b726975 	blvs	1c9ac84 <shift+0x1c9ac84>
 6ac:	6c6c765f 	stclvs	6, cr7, [ip], #-380	@ 0xfffffe84
 6b0:	69006d64 	stmdbvs	r0, {r2, r5, r6, r8, sl, fp, sp, lr}
 6b4:	625f6173 	subsvs	r6, pc, #-1073741796	@ 0xc000001c
 6b8:	635f7469 	cmpvs	pc, #1761607680	@ 0x69000000
 6bc:	70636564 	rsbvc	r6, r3, r4, ror #10
 6c0:	73690035 	cmnvc	r9, #53	@ 0x35
 6c4:	69625f61 	stmdbvs	r2!, {r0, r5, r6, r8, r9, sl, fp, ip, lr}^
 6c8:	66765f74 	uhsub16vs	r5, r6, r4
 6cc:	00327670 	eorseq	r7, r2, r0, ror r6
 6d0:	5f617369 	svcpl	0x00617369
 6d4:	5f746962 	svcpl	0x00746962
 6d8:	76706676 			@ <UNDEFINED> instruction: 0x76706676
 6dc:	73690033 	cmnvc	r9, #51	@ 0x33
 6e0:	69625f61 	stmdbvs	r2!, {r0, r5, r6, r8, r9, sl, fp, ip, lr}^
 6e4:	66765f74 	uhsub16vs	r5, r6, r4
 6e8:	00347670 	eorseq	r7, r4, r0, ror r6
 6ec:	5f617369 	svcpl	0x00617369
 6f0:	5f746962 	svcpl	0x00746962
 6f4:	766d7261 	strbtvc	r7, [sp], -r1, ror #4
 6f8:	73690036 	cmnvc	r9, #54	@ 0x36
 6fc:	69625f61 	stmdbvs	r2!, {r0, r5, r6, r8, r9, sl, fp, ip, lr}^
 700:	68745f74 	ldmdavs	r4!, {r2, r4, r5, r6, r8, r9, sl, fp, ip, lr}^
 704:	00626d75 	rsbeq	r6, r2, r5, ror sp
 708:	5f617369 	svcpl	0x00617369
 70c:	5f746962 	svcpl	0x00746962
 710:	36317066 	ldrtcc	r7, [r1], -r6, rrx
 714:	766e6f63 	strbtvc	r6, [lr], -r3, ror #30
 718:	61736900 	cmnvs	r3, r0, lsl #18
 71c:	6165665f 	cmnvs	r5, pc, asr r6
 720:	65727574 	ldrbvs	r7, [r2, #-1396]!	@ 0xfffffa8c
 724:	61736900 	cmnvs	r3, r0, lsl #18
 728:	7469625f 	strbtvc	r6, [r9], #-607	@ 0xfffffda1
 72c:	746f6e5f 	strbtvc	r6, [pc], #-3679	@ 734 <shift+0x734>
 730:	7369006d 	cmnvc	r9, #109	@ 0x6d
 734:	69625f61 	stmdbvs	r2!, {r0, r5, r6, r8, r9, sl, fp, ip, lr}^
 738:	75715f74 	ldrbvc	r5, [r1, #-3956]!	@ 0xfffff08c
 73c:	5f6b7269 	svcpl	0x006b7269
 740:	766d7261 	strbtvc	r7, [sp], -r1, ror #4
 744:	007a6b36 	rsbseq	r6, sl, r6, lsr fp
 748:	5f617369 	svcpl	0x00617369
 74c:	5f746962 	svcpl	0x00746962
 750:	65736d63 	ldrbvs	r6, [r3, #-3427]!	@ 0xfffff29d
 754:	61736900 	cmnvs	r3, r0, lsl #18
 758:	7469625f 	strbtvc	r6, [r9], #-607	@ 0xfffffda1
 75c:	6372635f 	cmnvs	r2, #2080374785	@ 0x7c000001
 760:	69003233 	stmdbvs	r0, {r0, r1, r4, r5, r9, ip, sp}
 764:	625f6173 	subsvs	r6, pc, #-1073741796	@ 0xc000001c
 768:	715f7469 	cmpvc	pc, r9, ror #8
 76c:	6b726975 	blvs	1c9ad48 <shift+0x1c9ad48>
 770:	5f6f6e5f 	svcpl	0x006f6e5f
 774:	636d7361 	cmnvs	sp, #-2080374783	@ 0x84000001
 778:	69007570 	stmdbvs	r0, {r4, r5, r6, r8, sl, ip, sp, lr}
 77c:	625f6173 	subsvs	r6, pc, #-1073741796	@ 0xc000001c
 780:	615f7469 	cmpvs	pc, r9, ror #8
 784:	34766d72 	ldrbtcc	r6, [r6], #-3442	@ 0xfffff28e
 788:	61736900 	cmnvs	r3, r0, lsl #18
 78c:	7469625f 	strbtvc	r6, [r9], #-607	@ 0xfffffda1
 790:	7568745f 	strbvc	r7, [r8, #-1119]!	@ 0xfffffba1
 794:	0032626d 	eorseq	r6, r2, sp, ror #4
 798:	5f617369 	svcpl	0x00617369
 79c:	5f746962 	svcpl	0x00746962
 7a0:	00386562 	eorseq	r6, r8, r2, ror #10
 7a4:	5f617369 	svcpl	0x00617369
 7a8:	5f746962 	svcpl	0x00746962
 7ac:	766d7261 	strbtvc	r7, [sp], -r1, ror #4
 7b0:	73690037 	cmnvc	r9, #55	@ 0x37
 7b4:	69625f61 	stmdbvs	r2!, {r0, r5, r6, r8, r9, sl, fp, ip, lr}^
 7b8:	72615f74 	rsbvc	r5, r1, #116, 30	@ 0x1d0
 7bc:	0038766d 	eorseq	r7, r8, sp, ror #12
 7c0:	5f617369 	svcpl	0x00617369
 7c4:	5f746962 	svcpl	0x00746962
 7c8:	766d7261 	strbtvc	r7, [sp], -r1, ror #4
 7cc:	73690039 	cmnvc	r9, #57	@ 0x39
 7d0:	69625f61 	stmdbvs	r2!, {r0, r5, r6, r8, r9, sl, fp, ip, lr}^
 7d4:	70665f74 	rsbvc	r5, r6, r4, ror pc
 7d8:	6d663631 	stclvs	6, cr3, [r6, #-196]!	@ 0xffffff3c
 7dc:	7369006c 	cmnvc	r9, #108	@ 0x6c
 7e0:	69625f61 	stmdbvs	r2!, {r0, r5, r6, r8, r9, sl, fp, ip, lr}^
 7e4:	75715f74 	ldrbvc	r5, [r1, #-3956]!	@ 0xfffff08c
 7e8:	5f6b7269 	svcpl	0x006b7269
 7ec:	5f736561 	svcpl	0x00736561
 7f0:	32343731 	eorscc	r3, r4, #12845056	@ 0xc40000
 7f4:	00383930 	eorseq	r3, r8, r0, lsr r9
 7f8:	5f617369 	svcpl	0x00617369
 7fc:	5f746962 	svcpl	0x00746962
 800:	70746f64 	rsbsvc	r6, r4, r4, ror #30
 804:	00646f72 	rsbeq	r6, r4, r2, ror pc

.debug_loclists 區段的反組譯：

00000000 <.debug_loclists>:
   0:	00000185 	andeq	r0, r0, r5, lsl #3
   4:	00040005 	andeq	r0, r4, r5
	...
  10:	06120004 	ldreq	r0, [r2], -r4
  14:	51049350 	tstpl	r4, r0, asr r3
  18:	12040493 	andne	r0, r4, #-1828716544	@ 0x93000000
  1c:	a3060282 	movwge	r0, #25218	@ 0x6282
  20:	2600a503 	strcs	sl, [r0], -r3, lsl #10
  24:	0000009f 	muleq	r0, pc, r0	@ <UNPREDICTABLE>
  28:	00000000 	andeq	r0, r0, r0
  2c:	06420004 	strbeq	r0, [r2], -r4
  30:	53049352 	movwpl	r9, #17234	@ 0x4352
  34:	42040493 	andmi	r0, r4, #-1828716544	@ 0x93000000
  38:	a30601ea 	movwge	r0, #25066	@ 0x61ea
  3c:	2602a503 	strcs	sl, [r2], -r3, lsl #10
  40:	01ea049f 			@ <UNDEFINED> instruction: 0x01ea049f
  44:	52060282 	andpl	r0, r6, #536870920	@ 0x20000008
  48:	93530493 	cmpls	r3, #-1828716544	@ 0x93000000
  4c:	00000004 	andeq	r0, r0, r4
  50:	00040000 	andeq	r0, r4, r0
  54:	910201ea 	smlattls	r2, sl, r1, r0
  58:	01ea0400 	mvneq	r0, r0, lsl #8
  5c:	91020282 	smlabbls	r2, r2, r2, r0
  60:	00020000 	andeq	r0, r2, r0
	...
  6c:	0a6a0004 	beq	1a80084 <shift+0x1a80084>
  70:	0000089e 	muleq	r0, lr, r8
  74:	00000000 	andeq	r0, r0, r0
  78:	6a040000 	bvs	100080 <shift+0x100080>
  7c:	500601a2 	andpl	r0, r6, r2, lsr #3
  80:	93510493 	cmpls	r1, #-1828716544	@ 0x93000000
  84:	01b20404 			@ <UNDEFINED> instruction: 0x01b20404
  88:	500601dc 	ldrdpl	r0, [r6], -ip
  8c:	93510493 	cmpls	r1, #-1828716544	@ 0x93000000
  90:	01e00404 	mvneq	r0, r4, lsl #8
  94:	500601ea 	andpl	r0, r6, sl, ror #3
  98:	93510493 	cmpls	r1, #-1828716544	@ 0x93000000
  9c:	01ea0404 	mvneq	r0, r4, lsl #8
  a0:	9e0a0282 	cdpls	2, 0, cr0, cr10, cr2, {4}
  a4:	00000008 	andeq	r0, r0, r8
	...
  bc:	060e0804 	streq	r0, [lr], -r4, lsl #16
  c0:	51049350 	tstpl	r4, r0, asr r3
  c4:	0e040493 	mcreq	4, 0, r0, cr4, cr3, {4}
  c8:	93500612 	cmpls	r0, #18874368	@ 0x1200000
  cc:	04935504 	ldreq	r5, [r3], #1284	@ 0x504
  d0:	06561204 	ldrbeq	r1, [r6], -r4, lsl #4
  d4:	55049354 	strpl	r9, [r4, #-852]	@ 0xfffffcac
  d8:	66040493 			@ <UNDEFINED> instruction: 0x66040493
  dc:	9354067a 	cmpls	r4, #127926272	@ 0x7a00000
  e0:	04935504 	ldreq	r5, [r3], #1284	@ 0x504
  e4:	98018804 	stmdals	r1, {r2, fp, pc}
  e8:	93540601 	cmpls	r4, #1048576	@ 0x100000
  ec:	04935504 	ldreq	r5, [r3], #1284	@ 0x504
  f0:	a0019a04 	andge	r9, r1, r4, lsl #20
  f4:	93540601 	cmpls	r4, #1048576	@ 0x100000
  f8:	04935504 	ldreq	r5, [r3], #1284	@ 0x504
  fc:	8201bc04 	andhi	fp, r1, #4, 24	@ 0x400
 100:	93540602 	cmpls	r4, #2097152	@ 0x200000
 104:	04935504 	ldreq	r5, [r3], #1284	@ 0x504
	...
 110:	32080400 	andcc	r0, r8, #0, 8
 114:	04935206 	ldreq	r5, [r3], #518	@ 0x206
 118:	04049353 	streq	r9, [r4], #-851	@ 0xfffffcad
 11c:	52066e44 	andpl	r6, r6, #68, 28	@ 0x440
 120:	93530493 	cmpls	r3, #-1828716544	@ 0x93000000
 124:	c8760404 	ldmdagt	r6!, {r2, sl}^
 128:	93520601 	cmpls	r2, #1048576	@ 0x100000
 12c:	04935304 	ldreq	r5, [r3], #772	@ 0x304
 130:	8201ea04 	andhi	lr, r1, #4, 20	@ 0x4000
 134:	93520602 	cmpls	r2, #2097152	@ 0x200000
 138:	04935304 	ldreq	r5, [r3], #772	@ 0x304
 13c:	04000000 	streq	r0, [r0], #-0
 140:	028201fc 	addeq	r0, r2, #252, 2	@ 0x3f
 144:	00005601 	andeq	r5, r0, r1, lsl #12
 148:	362a0400 	strtcc	r0, [sl], -r0, lsl #8
 14c:	01005101 	tsteq	r0, r1, lsl #2
 150:	00000101 	andeq	r0, r0, r1, lsl #2
 154:	00000101 	andeq	r0, r0, r1, lsl #2
 158:	88760400 	ldmdahi	r6!, {sl}^
 15c:	04580101 	ldrbeq	r0, [r8], #-257	@ 0xfffffeff
 160:	018c0188 	orreq	r0, ip, r8, lsl #3
 164:	9f7f7803 	svcls	0x007f7803
 168:	9a018c04 	bls	63180 <shift+0x63180>
 16c:	04580101 	ldrbeq	r0, [r8], #-257	@ 0xfffffeff
 170:	019e019a 			@ <UNDEFINED> instruction: 0x019e019a
 174:	9f7f7803 	svcls	0x007f7803
 178:	e0019e04 	and	r9, r1, r4, lsl #28
 17c:	00580101 	subseq	r0, r8, r1, lsl #2
 180:	2c040000 	stccs	0, cr0, [r4], {-0}
 184:	560101e0 	strpl	r0, [r1], -r0, ror #3
	...
