
leds.elf      檔案格式 elf32-littlearm


.text 區段的反組譯：

87800000 <_start>:
87800000:	e59f0068 	ldr	r0, [pc, #104]	@ 87800070 <loop+0x4>
87800004:	e3e01000 	mvn	r1, #0
87800008:	e5801000 	str	r1, [r0]
8780000c:	e59f0060 	ldr	r0, [pc, #96]	@ 87800074 <loop+0x8>
87800010:	e5801000 	str	r1, [r0]
87800014:	e59f005c 	ldr	r0, [pc, #92]	@ 87800078 <loop+0xc>
87800018:	e5801000 	str	r1, [r0]
8780001c:	e59f0058 	ldr	r0, [pc, #88]	@ 8780007c <loop+0x10>
87800020:	e5801000 	str	r1, [r0]
87800024:	e59f0054 	ldr	r0, [pc, #84]	@ 87800080 <loop+0x14>
87800028:	e5801000 	str	r1, [r0]
8780002c:	e59f0050 	ldr	r0, [pc, #80]	@ 87800084 <loop+0x18>
87800030:	e5801000 	str	r1, [r0]
87800034:	e59f004c 	ldr	r0, [pc, #76]	@ 87800088 <loop+0x1c>
87800038:	e5801000 	str	r1, [r0]
8780003c:	e59f0048 	ldr	r0, [pc, #72]	@ 8780008c <loop+0x20>
87800040:	e3a01005 	mov	r1, #5
87800044:	e5801000 	str	r1, [r0]
87800048:	e59f0040 	ldr	r0, [pc, #64]	@ 87800090 <loop+0x24>
8780004c:	e59f1040 	ldr	r1, [pc, #64]	@ 87800094 <loop+0x28>
87800050:	e5801000 	str	r1, [r0]
87800054:	e59f003c 	ldr	r0, [pc, #60]	@ 87800098 <loop+0x2c>
87800058:	e3a01008 	mov	r1, #8
8780005c:	e5801000 	str	r1, [r0]
87800060:	e59f0034 	ldr	r0, [pc, #52]	@ 8780009c <loop+0x30>
87800064:	e3a01000 	mov	r1, #0
87800068:	e5801000 	str	r1, [r0]

8780006c <loop>:
8780006c:	eafffffe 	b	8780006c <loop>
87800070:	020c4068 	andeq	r4, ip, #104	@ 0x68
87800074:	020c406c 	andeq	r4, ip, #108	@ 0x6c
87800078:	020c4070 	andeq	r4, ip, #112	@ 0x70
8780007c:	020c4074 	andeq	r4, ip, #116	@ 0x74
87800080:	020c4078 	andeq	r4, ip, #120	@ 0x78
87800084:	020c407c 	andeq	r4, ip, #124	@ 0x7c
87800088:	020c4080 	andeq	r4, ip, #128	@ 0x80
8780008c:	020e0068 	andeq	r0, lr, #104	@ 0x68
87800090:	020e02f4 	andeq	r0, lr, #244, 4	@ 0x4000000f
87800094:	000010b0 	strheq	r1, [r0], -r0
87800098:	0209c004 	andeq	ip, r9, #4
8780009c:	209c0000 	addscs	r0, ip, r0

.ARM.attributes 區段的反組譯：

00000000 <.ARM.attributes>:
   0:	00001e41 	andeq	r1, r0, r1, asr #28
   4:	61656100 	cmnvs	r5, r0, lsl #2
   8:	01006962 	tsteq	r0, r2, ror #18
   c:	00000014 	andeq	r0, r0, r4, lsl r0
  10:	412d3705 			@ <UNDEFINED> instruction: 0x412d3705
  14:	070a0600 	streq	r0, [sl, -r0, lsl #12]
  18:	09010841 	stmdbeq	r1, {r0, r6, fp}
  1c:	Address 0x1c is out of bounds.


.debug_aranges 區段的反組譯：

00000000 <.debug_aranges>:
   0:	0000001c 	andeq	r0, r0, ip, lsl r0
   4:	00000002 	andeq	r0, r0, r2
   8:	00040000 	andeq	r0, r4, r0
   c:	00000000 	andeq	r0, r0, r0
  10:	87800000 	strhi	r0, [r0, r0]
  14:	000000a0 	andeq	r0, r0, r0, lsr #1
	...

.debug_info 區段的反組譯：

00000000 <.debug_info>:
   0:	00000021 	andeq	r0, r0, r1, lsr #32
   4:	04010005 	streq	r0, [r1], #-5
   8:	00000000 	andeq	r0, r0, r0
   c:	00000001 	andeq	r0, r0, r1
  10:	80000000 	andhi	r0, r0, r0
  14:	0001a087 	andeq	sl, r1, r7, lsl #1
  18:	07000000 	streq	r0, [r0, -r0]
  1c:	31000000 	mrscc	r0, (UNDEF: 0)
  20:	01000000 	mrseq	r0, (UNDEF: 0)
  24:	Address 0x24 is out of bounds.


.debug_abbrev 區段的反組譯：

00000000 <.debug_abbrev>:
   0:	10001101 	andne	r1, r0, r1, lsl #2
   4:	12011117 	andne	r1, r1, #-1073741819	@ 0xc0000005
   8:	1b0e030f 	blne	380c4c <_start-0x8747f3b4>
   c:	130e250e 	movwne	r2, #58638	@ 0xe50e
  10:	00000005 	andeq	r0, r0, r5

.debug_line 區段的反組譯：

00000000 <.debug_line>:
   0:	0000006c 	andeq	r0, r0, ip, rrx
   4:	00040005 	andeq	r0, r4, r5
   8:	0000002a 	andeq	r0, r0, sl, lsr #32
   c:	fb010102 	blx	4041e <_start-0x877bfbe2>
  10:	01000d0e 	tsteq	r0, lr, lsl #26
  14:	00010101 	andeq	r0, r1, r1, lsl #2
  18:	00010000 	andeq	r0, r1, r0
  1c:	01010100 	mrseq	r0, (UNDEF: 17)
  20:	0000011f 	andeq	r0, r0, pc, lsl r1
  24:	01020000 	mrseq	r0, (UNDEF: 2)
  28:	020f021f 	andeq	r0, pc, #-268435455	@ 0xf0000001
  2c:	0000002a 	andeq	r0, r0, sl, lsr #32
  30:	00002a00 	andeq	r2, r0, r0, lsl #20
  34:	05000000 	streq	r0, [r0, #-0]
  38:	80000002 	andhi	r0, r0, r2
  3c:	2f2f1687 	svccs	0x002f1687
  40:	2f302f30 	svccs	0x00302f30
  44:	2f302f30 	svccs	0x00302f30
  48:	2f302f30 	svccs	0x00302f30
  4c:	032f2f33 			@ <UNDEFINED> instruction: 0x032f2f33
  50:	2f2f2e0c 	svccs	0x002f2e0c
  54:	322f2f34 	eorcc	r2, pc, #52, 30	@ 0xd0
  58:	03312f2f 	teqeq	r1, #47, 30	@ 0xbc
  5c:	31322e46 	teqcc	r2, r6, asr #28
  60:	31313131 	teqcc	r1, r1, lsr r1
  64:	2e0e0334 	mcrcs	3, 0, r0, cr14, cr4, {1}
  68:	0234352f 	eorseq	r3, r4, #197132288	@ 0xbc00000
  6c:	01010002 	tsteq	r1, r2

.debug_str 區段的反組譯：

00000000 <.debug_str>:
   0:	7364656c 	cmnvc	r4, #108, 10	@ 0x1b000000
   4:	2f00732e 	svccs	0x0000732e
   8:	656d6f68 	strbvs	r6, [sp, #-3944]!	@ 0xfffff098
   c:	7562752f 	strbvc	r7, [r2, #-1327]!	@ 0xfffffad1
  10:	2f75746e 	svccs	0x0075746e
  14:	5f434f53 	svcpl	0x00434f53
  18:	36584d49 	ldrbcc	r4, [r8], -r9, asr #26
  1c:	2f4c4c55 	svccs	0x004c4c55
  20:	72445f42 	subvc	r5, r4, #264	@ 0x108
  24:	72657669 	rsbvc	r7, r5, #110100480	@ 0x6900000
  28:	5f312f73 	svcpl	0x00312f73
  2c:	7364656c 	cmnvc	r4, #108, 10	@ 0x1b000000
  30:	554e4700 	strbpl	r4, [lr, #-1792]	@ 0xfffff900
  34:	20534120 	subscs	r4, r3, r0, lsr #2
  38:	30342e32 	eorscc	r2, r4, r2, lsr lr
  3c:	0030352e 	eorseq	r3, r0, lr, lsr #10

.debug_line_str 區段的反組譯：

00000000 <.debug_line_str>:
   0:	6d6f682f 	stclvs	8, cr6, [pc, #-188]!	@ ffffff4c <__bss_end__+0x787feeac>
   4:	62752f65 	rsbsvs	r2, r5, #404	@ 0x194
   8:	75746e75 	ldrbvc	r6, [r4, #-3701]!	@ 0xfffff18b
   c:	434f532f 	movtmi	r5, #62255	@ 0xf32f
  10:	584d495f 	stmdapl	sp, {r0, r1, r2, r3, r4, r6, r8, fp, lr}^
  14:	4c4c5536 	cfstr64mi	mvdx5, [ip], {54}	@ 0x36
  18:	445f422f 	ldrbmi	r4, [pc], #-559	@ 20 <_start-0x877fffe0>
  1c:	65766972 	ldrbvs	r6, [r6, #-2418]!	@ 0xfffff68e
  20:	312f7372 			@ <UNDEFINED> instruction: 0x312f7372
  24:	64656c5f 	strbtvs	r6, [r5], #-3167	@ 0xfffff3a1
  28:	656c0073 	strbvs	r0, [ip, #-115]!	@ 0xffffff8d
  2c:	732e7364 			@ <UNDEFINED> instruction: 0x732e7364
	...
